
Balance_Bot_2403.elf:     file format elf32-avr

Sections:
Idx Name          Size      VMA       LMA       File off  Algn
  0 .data         00000322  00800200  000046f8  0000478c  2**0
                  CONTENTS, ALLOC, LOAD, DATA
  1 .text         000046f8  00000000  00000000  00000094  2**1
                  CONTENTS, ALLOC, LOAD, READONLY, CODE
  2 .bss          00000147  00800522  00800522  00004aae  2**0
                  ALLOC
  3 .comment      00000030  00000000  00000000  00004aae  2**0
                  CONTENTS, READONLY
  4 .note.gnu.avr.deviceinfo 00000040  00000000  00000000  00004ae0  2**2
                  CONTENTS, READONLY
  5 .debug_aranges 000007f8  00000000  00000000  00004b20  2**0
                  CONTENTS, READONLY, DEBUGGING
  6 .debug_info   0000ed6e  00000000  00000000  00005318  2**0
                  CONTENTS, READONLY, DEBUGGING
  7 .debug_abbrev 00003ad1  00000000  00000000  00014086  2**0
                  CONTENTS, READONLY, DEBUGGING
  8 .debug_line   00004d2e  00000000  00000000  00017b57  2**0
                  CONTENTS, READONLY, DEBUGGING
  9 .debug_frame  00001a28  00000000  00000000  0001c888  2**2
                  CONTENTS, READONLY, DEBUGGING
 10 .debug_str    00003e90  00000000  00000000  0001e2b0  2**0
                  CONTENTS, READONLY, DEBUGGING
 11 .debug_loc    000081c5  00000000  00000000  00022140  2**0
                  CONTENTS, READONLY, DEBUGGING
 12 .debug_ranges 000008c0  00000000  00000000  0002a305  2**0
                  CONTENTS, READONLY, DEBUGGING

Disassembly of section .text:

00000000 <__vectors>:
       0:	38 c1       	rjmp	.+624    	; 0x272 <__ctors_end>
       2:	00 00       	nop
       4:	0c 94 23 1f 	jmp	0x3e46	; 0x3e46 <__vector_1>
       8:	0c 94 4e 1f 	jmp	0x3e9c	; 0x3e9c <__vector_2>
       c:	0c 94 79 1f 	jmp	0x3ef2	; 0x3ef2 <__vector_3>
      10:	0c 94 a4 1f 	jmp	0x3f48	; 0x3f48 <__vector_4>
      14:	0c 94 cf 1f 	jmp	0x3f9e	; 0x3f9e <__vector_5>
      18:	0c 94 fa 1f 	jmp	0x3ff4	; 0x3ff4 <__vector_6>
      1c:	0c 94 25 20 	jmp	0x404a	; 0x404a <__vector_7>
      20:	0c 94 50 20 	jmp	0x40a0	; 0x40a0 <__vector_8>
      24:	57 c1       	rjmp	.+686    	; 0x2d4 <__bad_interrupt>
      26:	00 00       	nop
      28:	55 c1       	rjmp	.+682    	; 0x2d4 <__bad_interrupt>
      2a:	00 00       	nop
      2c:	53 c1       	rjmp	.+678    	; 0x2d4 <__bad_interrupt>
      2e:	00 00       	nop
      30:	51 c1       	rjmp	.+674    	; 0x2d4 <__bad_interrupt>
      32:	00 00       	nop
      34:	0c 94 50 1e 	jmp	0x3ca0	; 0x3ca0 <__vector_13>
      38:	4d c1       	rjmp	.+666    	; 0x2d4 <__bad_interrupt>
      3a:	00 00       	nop
      3c:	4b c1       	rjmp	.+662    	; 0x2d4 <__bad_interrupt>
      3e:	00 00       	nop
      40:	49 c1       	rjmp	.+658    	; 0x2d4 <__bad_interrupt>
      42:	00 00       	nop
      44:	47 c1       	rjmp	.+654    	; 0x2d4 <__bad_interrupt>
      46:	00 00       	nop
      48:	45 c1       	rjmp	.+650    	; 0x2d4 <__bad_interrupt>
      4a:	00 00       	nop
      4c:	43 c1       	rjmp	.+646    	; 0x2d4 <__bad_interrupt>
      4e:	00 00       	nop
      50:	f8 c1       	rjmp	.+1008   	; 0x442 <__vector_20>
      52:	00 00       	nop
      54:	3f c1       	rjmp	.+638    	; 0x2d4 <__bad_interrupt>
      56:	00 00       	nop
      58:	3d c1       	rjmp	.+634    	; 0x2d4 <__bad_interrupt>
      5a:	00 00       	nop
      5c:	0c 94 7b 20 	jmp	0x40f6	; 0x40f6 <__vector_23>
      60:	39 c1       	rjmp	.+626    	; 0x2d4 <__bad_interrupt>
      62:	00 00       	nop
      64:	0c 94 dc 19 	jmp	0x33b8	; 0x33b8 <__vector_25>
      68:	0c 94 12 1a 	jmp	0x3424	; 0x3424 <__vector_26>
      6c:	33 c1       	rjmp	.+614    	; 0x2d4 <__bad_interrupt>
      6e:	00 00       	nop
      70:	31 c1       	rjmp	.+610    	; 0x2d4 <__bad_interrupt>
      72:	00 00       	nop
      74:	2f c1       	rjmp	.+606    	; 0x2d4 <__bad_interrupt>
      76:	00 00       	nop
      78:	2d c1       	rjmp	.+602    	; 0x2d4 <__bad_interrupt>
      7a:	00 00       	nop
      7c:	2b c1       	rjmp	.+598    	; 0x2d4 <__bad_interrupt>
      7e:	00 00       	nop
      80:	29 c1       	rjmp	.+594    	; 0x2d4 <__bad_interrupt>
      82:	00 00       	nop
      84:	27 c1       	rjmp	.+590    	; 0x2d4 <__bad_interrupt>
      86:	00 00       	nop
      88:	25 c1       	rjmp	.+586    	; 0x2d4 <__bad_interrupt>
      8a:	00 00       	nop
      8c:	0c c3       	rjmp	.+1560   	; 0x6a6 <__vector_35>
      8e:	00 00       	nop
      90:	21 c1       	rjmp	.+578    	; 0x2d4 <__bad_interrupt>
      92:	00 00       	nop
      94:	1f c1       	rjmp	.+574    	; 0x2d4 <__bad_interrupt>
      96:	00 00       	nop
      98:	1d c1       	rjmp	.+570    	; 0x2d4 <__bad_interrupt>
      9a:	00 00       	nop
      9c:	1b c1       	rjmp	.+566    	; 0x2d4 <__bad_interrupt>
      9e:	00 00       	nop
      a0:	19 c1       	rjmp	.+562    	; 0x2d4 <__bad_interrupt>
      a2:	00 00       	nop
      a4:	17 c1       	rjmp	.+558    	; 0x2d4 <__bad_interrupt>
      a6:	00 00       	nop
      a8:	15 c1       	rjmp	.+554    	; 0x2d4 <__bad_interrupt>
      aa:	00 00       	nop
      ac:	13 c1       	rjmp	.+550    	; 0x2d4 <__bad_interrupt>
      ae:	00 00       	nop
      b0:	11 c1       	rjmp	.+546    	; 0x2d4 <__bad_interrupt>
      b2:	00 00       	nop
      b4:	0c 94 9b 13 	jmp	0x2736	; 0x2736 <__vector_45>
      b8:	0d c1       	rjmp	.+538    	; 0x2d4 <__bad_interrupt>
      ba:	00 00       	nop
      bc:	0b c1       	rjmp	.+534    	; 0x2d4 <__bad_interrupt>
      be:	00 00       	nop
      c0:	09 c1       	rjmp	.+530    	; 0x2d4 <__bad_interrupt>
      c2:	00 00       	nop
      c4:	07 c1       	rjmp	.+526    	; 0x2d4 <__bad_interrupt>
      c6:	00 00       	nop
      c8:	05 c1       	rjmp	.+522    	; 0x2d4 <__bad_interrupt>
      ca:	00 00       	nop
      cc:	03 c1       	rjmp	.+518    	; 0x2d4 <__bad_interrupt>
      ce:	00 00       	nop
      d0:	01 c1       	rjmp	.+514    	; 0x2d4 <__bad_interrupt>
      d2:	00 00       	nop
      d4:	ff c0       	rjmp	.+510    	; 0x2d4 <__bad_interrupt>
      d6:	00 00       	nop
      d8:	fd c0       	rjmp	.+506    	; 0x2d4 <__bad_interrupt>
      da:	00 00       	nop
      dc:	fb c0       	rjmp	.+502    	; 0x2d4 <__bad_interrupt>
      de:	00 00       	nop
      e0:	f9 c0       	rjmp	.+498    	; 0x2d4 <__bad_interrupt>
      e2:	00 00       	nop
      e4:	08 4a       	sbci	r16, 0xA8	; 168
      e6:	d7 3b       	cpi	r29, 0xB7	; 183
      e8:	3b ce       	rjmp	.-906    	; 0xfffffd60 <__eeprom_end+0xff7efd60>
      ea:	01 6e       	ori	r16, 0xE1	; 225
      ec:	84 bc       	out	0x24, r8	; 36
      ee:	bf fd       	.word	0xfdbf	; ????
      f0:	c1 2f       	mov	r28, r17
      f2:	3d 6c       	ori	r19, 0xCD	; 205
      f4:	74 31       	cpi	r23, 0x14	; 20
      f6:	9a bd       	out	0x2a, r25	; 42
      f8:	56 83       	std	Z+6, r21	; 0x06
      fa:	3d da       	rcall	.-2950   	; 0xfffff576 <__eeprom_end+0xff7ef576>
      fc:	3d 00       	.word	0x003d	; ????
      fe:	c7 7f       	andi	r28, 0xF7	; 247
     100:	11 be       	out	0x31, r1	; 49
     102:	d9 e4       	ldi	r29, 0x49	; 73
     104:	bb 4c       	sbci	r27, 0xCB	; 203
     106:	3e 91       	ld	r19, -X
     108:	6b aa       	std	Y+51, r6	; 0x33
     10a:	aa be       	out	0x3a, r10	; 58
     10c:	00 00       	nop
     10e:	00 80       	ld	r0, Z
     110:	3f 00       	.word	0x003f	; ????
     112:	fd 1e       	adc	r15, r29
     114:	c7 1e       	adc	r12, r23
     116:	cf 1e       	adc	r12, r31
     118:	db 1e       	adc	r13, r27
     11a:	e8 1e       	adc	r14, r24
     11c:	09 1f       	adc	r16, r25
     11e:	16 1f       	adc	r17, r22
     120:	59 21       	and	r21, r9
     122:	5e 21       	and	r21, r14
     124:	63 21       	and	r22, r3
     126:	6d 21       	and	r22, r13
     128:	77 21       	and	r23, r7
     12a:	f0 21       	and	r31, r0
     12c:	81 21       	and	r24, r1
     12e:	89 21       	and	r24, r9
     130:	91 21       	and	r25, r1
     132:	9b 21       	and	r25, r11
     134:	a5 21       	and	r26, r5
     136:	af 21       	and	r26, r15
     138:	be 21       	and	r27, r14
     13a:	c8 21       	and	r28, r8
     13c:	f0 21       	and	r31, r0
     13e:	d2 21       	and	r29, r2
     140:	dc 21       	and	r29, r12
     142:	e6 21       	and	r30, r6
     144:	13 22       	and	r1, r19
     146:	16 22       	and	r1, r22
     148:	05 22       	and	r0, r21
     14a:	09 22       	and	r0, r25
     14c:	0f 22       	and	r0, r31
     14e:	4d 22       	and	r4, r29
     150:	1a 22       	and	r1, r26
     152:	1e 22       	and	r1, r30
     154:	24 22       	and	r2, r20
     156:	28 22       	and	r2, r24
     158:	2c 22       	and	r2, r28
     15a:	32 22       	and	r3, r18
     15c:	36 22       	and	r3, r22
     15e:	3a 22       	and	r3, r26
     160:	4d 22       	and	r4, r29
     162:	40 22       	and	r4, r16
     164:	44 22       	and	r4, r20
     166:	48 22       	and	r4, r24

00000168 <__trampolines_end>:
     168:	02 00       	Address 0x00000168 is out of bounds.
.word	0xffff	; ????

00000169 <digital_pin_to_timer_PGM>:
     169:	00 00 0a 0b 02 09 0c 0d 0e 08 07 03 04 01 00 00     ................
	...
     195:	12 11 10 00 00 00 00 00 00 00 00 00 00 00 00 00     ................
	...

000001af <digital_pin_to_bit_mask_PGM>:
     1af:	01 02 10 20 20 08 08 10 20 40 10 20 40 80 02 01     ...  ... @. @...
     1bf:	02 01 08 04 02 01 01 02 04 08 10 20 40 80 80 40     ........... @..@
     1cf:	20 10 08 04 02 01 80 04 02 01 80 40 20 10 08 04      ..........@ ...
     1df:	02 01 08 04 02 01 01 02 04 08 10 20 40 80 01 02     ........... @...
     1ef:	04 08 10 20 40 80                                   ... @.

000001f5 <digital_pin_to_port_PGM>:
     1f5:	05 05 05 05 07 05 08 08 08 08 02 02 02 02 0a 0a     ................
     205:	08 08 04 04 04 04 01 01 01 01 01 01 01 01 03 03     ................
     215:	03 03 03 03 03 03 04 07 07 07 0c 0c 0c 0c 0c 0c     ................
     225:	0c 0c 02 02 02 02 06 06 06 06 06 06 06 06 0b 0b     ................
     235:	0b 0b 0b 0b 0b 0b                                   ......

0000023b <port_to_output_PGM>:
     23b:	00 00 22 00 25 00 28 00 2b 00 2e 00 31 00 34 00     ..".%.(.+...1.4.
     24b:	02 01 00 00 05 01 08 01 0b 01                       ..........

00000255 <port_to_mode_PGM>:
     255:	00 00 21 00 24 00 27 00 2a 00 2d 00 30 00 33 00     ..!.$.'.*.-.0.3.
     265:	01 01 00 00 04 01 07 01 0a 01 00                    ...........

00000270 <__ctors_start>:
     270:	44 1a       	sub	r4, r20

00000272 <__ctors_end>:
     272:	11 24       	eor	r1, r1
     274:	1f be       	out	0x3f, r1	; 63
     276:	cf ef       	ldi	r28, 0xFF	; 255
     278:	d1 e2       	ldi	r29, 0x21	; 33
     27a:	de bf       	out	0x3e, r29	; 62
     27c:	cd bf       	out	0x3d, r28	; 61
     27e:	00 e0       	ldi	r16, 0x00	; 0
     280:	0c bf       	out	0x3c, r16	; 60

00000282 <__do_copy_data>:
     282:	15 e0       	ldi	r17, 0x05	; 5
     284:	a0 e0       	ldi	r26, 0x00	; 0
     286:	b2 e0       	ldi	r27, 0x02	; 2
     288:	e8 ef       	ldi	r30, 0xF8	; 248
     28a:	f6 e4       	ldi	r31, 0x46	; 70
     28c:	00 e0       	ldi	r16, 0x00	; 0
     28e:	0b bf       	out	0x3b, r16	; 59
     290:	02 c0       	rjmp	.+4      	; 0x296 <__do_copy_data+0x14>
     292:	07 90       	elpm	r0, Z+
     294:	0d 92       	st	X+, r0
     296:	a2 32       	cpi	r26, 0x22	; 34
     298:	b1 07       	cpc	r27, r17
     29a:	d9 f7       	brne	.-10     	; 0x292 <__do_copy_data+0x10>

0000029c <__do_clear_bss>:
     29c:	26 e0       	ldi	r18, 0x06	; 6
     29e:	a2 e2       	ldi	r26, 0x22	; 34
     2a0:	b5 e0       	ldi	r27, 0x05	; 5
     2a2:	01 c0       	rjmp	.+2      	; 0x2a6 <.do_clear_bss_start>

000002a4 <.do_clear_bss_loop>:
     2a4:	1d 92       	st	X+, r1

000002a6 <.do_clear_bss_start>:
     2a6:	a9 36       	cpi	r26, 0x69	; 105
     2a8:	b2 07       	cpc	r27, r18
     2aa:	e1 f7       	brne	.-8      	; 0x2a4 <.do_clear_bss_loop>

000002ac <__do_global_ctors>:
     2ac:	11 e0       	ldi	r17, 0x01	; 1
     2ae:	c9 e3       	ldi	r28, 0x39	; 57
     2b0:	d1 e0       	ldi	r29, 0x01	; 1
     2b2:	00 e0       	ldi	r16, 0x00	; 0
     2b4:	06 c0       	rjmp	.+12     	; 0x2c2 <__do_global_ctors+0x16>
     2b6:	21 97       	sbiw	r28, 0x01	; 1
     2b8:	01 09       	sbc	r16, r1
     2ba:	80 2f       	mov	r24, r16
     2bc:	fe 01       	movw	r30, r28
     2be:	0e 94 59 23 	call	0x46b2	; 0x46b2 <__tablejump2__>
     2c2:	c8 33       	cpi	r28, 0x38	; 56
     2c4:	d1 07       	cpc	r29, r17
     2c6:	80 e0       	ldi	r24, 0x00	; 0
     2c8:	08 07       	cpc	r16, r24
     2ca:	a9 f7       	brne	.-22     	; 0x2b6 <__do_global_ctors+0xa>
     2cc:	0e 94 72 1a 	call	0x34e4	; 0x34e4 <main>
     2d0:	0c 94 7a 23 	jmp	0x46f4	; 0x46f4 <_exit>

000002d4 <__bad_interrupt>:
     2d4:	95 ce       	rjmp	.-726    	; 0x0 <__vectors>

000002d6 <_Z15calibrate_accelccc>:
Arguments		:	X0g, Y0g, Z0g offsets
Return Value	:	void
Example Call	:	calibrate_accel(0x01, 0x00, 0x03)
***********************************/
void calibrate_accel(char x_offset, char y_offset, char z_offset)
{
     2d6:	cf 93       	push	r28
     2d8:	df 93       	push	r29
     2da:	d6 2f       	mov	r29, r22
     2dc:	c4 2f       	mov	r28, r20
	check_status(i2c_sendbyte(ADXL345_ADDRESS, ADXL345_OFSX, x_offset));
     2de:	48 2f       	mov	r20, r24
     2e0:	6e e1       	ldi	r22, 0x1E	; 30
     2e2:	86 ea       	ldi	r24, 0xA6	; 166
     2e4:	0e 94 6a 0d 	call	0x1ad4	; 0x1ad4 <_Z12i2c_sendbytehhh>
     2e8:	0e 94 01 13 	call	0x2602	; 0x2602 <_Z12check_status17status_check_cond>
	check_status(i2c_sendbyte(ADXL345_ADDRESS, ADXL345_OFSY, y_offset));
     2ec:	4d 2f       	mov	r20, r29
     2ee:	6f e1       	ldi	r22, 0x1F	; 31
     2f0:	86 ea       	ldi	r24, 0xA6	; 166
     2f2:	0e 94 6a 0d 	call	0x1ad4	; 0x1ad4 <_Z12i2c_sendbytehhh>
     2f6:	0e 94 01 13 	call	0x2602	; 0x2602 <_Z12check_status17status_check_cond>
	check_status(i2c_sendbyte(ADXL345_ADDRESS, ADXL345_OFSZ, z_offset));
     2fa:	4c 2f       	mov	r20, r28
     2fc:	60 e2       	ldi	r22, 0x20	; 32
     2fe:	86 ea       	ldi	r24, 0xA6	; 166
     300:	0e 94 6a 0d 	call	0x1ad4	; 0x1ad4 <_Z12i2c_sendbytehhh>
}
     304:	df 91       	pop	r29
     306:	cf 91       	pop	r28
***********************************/
void calibrate_accel(char x_offset, char y_offset, char z_offset)
{
	check_status(i2c_sendbyte(ADXL345_ADDRESS, ADXL345_OFSX, x_offset));
	check_status(i2c_sendbyte(ADXL345_ADDRESS, ADXL345_OFSY, y_offset));
	check_status(i2c_sendbyte(ADXL345_ADDRESS, ADXL345_OFSZ, z_offset));
     308:	0c 94 01 13 	jmp	0x2602	; 0x2602 <_Z12check_status17status_check_cond>

0000030c <_Z10accel_initv>:
Return Value	:	void
Example Call	:	accel_init()
***********************************/
void accel_init()
{
	check_device_ID(ADXL345_ADDRESS, ADXL345_DEVID, ADXL345_KNOWN_ID);		// Verify Device ID
     30c:	45 ee       	ldi	r20, 0xE5	; 229
     30e:	60 e0       	ldi	r22, 0x00	; 0
     310:	86 ea       	ldi	r24, 0xA6	; 166
     312:	0e 94 19 13 	call	0x2632	; 0x2632 <_Z15check_device_IDhha>
	check_status(i2c_sendbyte(ADXL345_ADDRESS, ADXL345_POWER_CTL, 0x00));	// Standby Mode
     316:	40 e0       	ldi	r20, 0x00	; 0
     318:	6d e2       	ldi	r22, 0x2D	; 45
     31a:	86 ea       	ldi	r24, 0xA6	; 166
     31c:	0e 94 6a 0d 	call	0x1ad4	; 0x1ad4 <_Z12i2c_sendbytehhh>
     320:	0e 94 01 13 	call	0x2602	; 0x2602 <_Z12check_status17status_check_cond>
	check_status(i2c_sendbyte(ADXL345_ADDRESS, ADXL345_POWER_CTL, 0x08));	// Measurement Mode
     324:	48 e0       	ldi	r20, 0x08	; 8
     326:	6d e2       	ldi	r22, 0x2D	; 45
     328:	86 ea       	ldi	r24, 0xA6	; 166
     32a:	0e 94 6a 0d 	call	0x1ad4	; 0x1ad4 <_Z12i2c_sendbytehhh>
     32e:	0e 94 01 13 	call	0x2602	; 0x2602 <_Z12check_status17status_check_cond>
	check_status(i2c_sendbyte(ADXL345_ADDRESS, ADXL345_DATA_FORMAT, 0x0B)); // 16g, FULL RES (13 bit)
     332:	4b e0       	ldi	r20, 0x0B	; 11
     334:	61 e3       	ldi	r22, 0x31	; 49
     336:	86 ea       	ldi	r24, 0xA6	; 166
     338:	0e 94 6a 0d 	call	0x1ad4	; 0x1ad4 <_Z12i2c_sendbytehhh>
     33c:	0e 94 01 13 	call	0x2602	; 0x2602 <_Z12check_status17status_check_cond>
	check_status(i2c_sendbyte(ADXL345_ADDRESS, ADXL345_BW_RATE, 0x0A));		// 100Hz Sample Rate, Normal Mode
     340:	4a e0       	ldi	r20, 0x0A	; 10
     342:	6c e2       	ldi	r22, 0x2C	; 44
     344:	86 ea       	ldi	r24, 0xA6	; 166
     346:	0e 94 6a 0d 	call	0x1ad4	; 0x1ad4 <_Z12i2c_sendbytehhh>
     34a:	0e 94 01 13 	call	0x2602	; 0x2602 <_Z12check_status17status_check_cond>
	calibrate_accel(0x01, 0x00, 0x03);										// Calibrate offsets
     34e:	43 e0       	ldi	r20, 0x03	; 3
     350:	60 e0       	ldi	r22, 0x00	; 0
     352:	81 e0       	ldi	r24, 0x01	; 1
     354:	c0 cf       	rjmp	.-128    	; 0x2d6 <_Z15calibrate_accelccc>

00000356 <_Z21convert_accelerometert>:
Arguments		:	Raw accelerometer reading
Return Value	:	Normalized 1g value
Example Call	:	convert_accelerometer(Z_DATA)
***********************************/
float convert_accelerometer(UINT16 value)
{
     356:	9c 01       	movw	r18, r24
     358:	bc 01       	movw	r22, r24
     35a:	80 e0       	ldi	r24, 0x00	; 0
     35c:	90 e0       	ldi	r25, 0x00	; 0
	float g_value;
	
	// Convert 2's compliment to float value
	if (value>32767) g_value = (float)(value-65536);
     35e:	37 ff       	sbrs	r19, 7
     360:	04 c0       	rjmp	.+8      	; 0x36a <_Z21convert_accelerometert+0x14>
     362:	01 97       	sbiw	r24, 0x01	; 1
     364:	0e 94 3f 17 	call	0x2e7e	; 0x2e7e <__floatsisf>
     368:	02 c0       	rjmp	.+4      	; 0x36e <_Z21convert_accelerometert+0x18>
	else g_value = (float)value;
     36a:	0e 94 3d 17 	call	0x2e7a	; 0x2e7a <__floatunsisf>
	
	// Scale to 1g (*16/4096)
	return (g_value*0.00390625);
     36e:	20 e0       	ldi	r18, 0x00	; 0
     370:	30 e0       	ldi	r19, 0x00	; 0
     372:	40 e8       	ldi	r20, 0x80	; 128
     374:	5b e3       	ldi	r21, 0x3B	; 59
     376:	0c 94 1f 18 	jmp	0x303e	; 0x303e <__mulsf3>
}
     37a:	08 95       	ret

0000037c <_Z18read_accelerometerv>:
Arguments		:	none
Return Value	:	Computed pitch angle
Example Call	:	read_accelerometer()
***********************************/
float read_accelerometer()
{
     37c:	cf 92       	push	r12
     37e:	df 92       	push	r13
     380:	ef 92       	push	r14
     382:	ff 92       	push	r15
     384:	0f 93       	push	r16
     386:	1f 93       	push	r17
     388:	cf 93       	push	r28
     38a:	df 93       	push	r29
     38c:	cd b7       	in	r28, 0x3d	; 61
     38e:	de b7       	in	r29, 0x3e	; 62
     390:	2c 97       	sbiw	r28, 0x0c	; 12
     392:	0f b6       	in	r0, 0x3f	; 63
     394:	f8 94       	cli
     396:	de bf       	out	0x3e, r29	; 62
     398:	0f be       	out	0x3f, r0	; 63
     39a:	cd bf       	out	0x3d, r28	; 61
	float pitch_angle=0, x_accel=0, z_accel=0;
	INT8 accel_raw_X[6] = {0, 0};
     39c:	86 e0       	ldi	r24, 0x06	; 6
     39e:	9e 01       	movw	r18, r28
     3a0:	29 5f       	subi	r18, 0xF9	; 249
     3a2:	3f 4f       	sbci	r19, 0xFF	; 255
     3a4:	f9 01       	movw	r30, r18
     3a6:	98 2f       	mov	r25, r24
     3a8:	11 92       	st	Z+, r1
     3aa:	9a 95       	dec	r25
     3ac:	e9 f7       	brne	.-6      	; 0x3a8 <_Z18read_accelerometerv+0x2c>
	INT8 accel_raw_Z[6] = {0, 0};
     3ae:	8e 01       	movw	r16, r28
     3b0:	0f 5f       	subi	r16, 0xFF	; 255
     3b2:	1f 4f       	sbci	r17, 0xFF	; 255
     3b4:	f8 01       	movw	r30, r16
     3b6:	11 92       	st	Z+, r1
     3b8:	8a 95       	dec	r24
     3ba:	e9 f7       	brne	.-6      	; 0x3b6 <_Z18read_accelerometerv+0x3a>
	
	// Read accelerometer data
	check_status(i2c_read_multi_byte(ADXL345_ADDRESS, ADXL345_DATAX0, 2, accel_raw_X));
     3bc:	42 e0       	ldi	r20, 0x02	; 2
     3be:	50 e0       	ldi	r21, 0x00	; 0
     3c0:	62 e3       	ldi	r22, 0x32	; 50
     3c2:	86 ea       	ldi	r24, 0xA6	; 166
     3c4:	0e 94 09 0e 	call	0x1c12	; 0x1c12 <_Z19i2c_read_multi_bytehhtPa>
     3c8:	0e 94 01 13 	call	0x2602	; 0x2602 <_Z12check_status17status_check_cond>
	check_status(i2c_read_multi_byte(ADXL345_ADDRESS, ADXL345_DATAZ0, 2, accel_raw_Z));
     3cc:	98 01       	movw	r18, r16
     3ce:	42 e0       	ldi	r20, 0x02	; 2
     3d0:	50 e0       	ldi	r21, 0x00	; 0
     3d2:	66 e3       	ldi	r22, 0x36	; 54
     3d4:	86 ea       	ldi	r24, 0xA6	; 166
     3d6:	0e 94 09 0e 	call	0x1c12	; 0x1c12 <_Z19i2c_read_multi_bytehhtPa>
     3da:	0e 94 01 13 	call	0x2602	; 0x2602 <_Z12check_status17status_check_cond>
	
	// Combine low and high bytes
	x_accel = convert_accelerometer((UINT8)accel_raw_X[0] | (UINT8)accel_raw_X[1]<<8);
     3de:	88 85       	ldd	r24, Y+8	; 0x08
     3e0:	90 e0       	ldi	r25, 0x00	; 0
     3e2:	98 2f       	mov	r25, r24
     3e4:	88 27       	eor	r24, r24
     3e6:	2f 81       	ldd	r18, Y+7	; 0x07
     3e8:	82 2b       	or	r24, r18
     3ea:	b5 df       	rcall	.-150    	; 0x356 <_Z21convert_accelerometert>
     3ec:	6b 01       	movw	r12, r22
     3ee:	7c 01       	movw	r14, r24
	z_accel = convert_accelerometer((UINT8)accel_raw_Z[0] | (UINT8)accel_raw_Z[1]<<8);
     3f0:	8a 81       	ldd	r24, Y+2	; 0x02
     3f2:	90 e0       	ldi	r25, 0x00	; 0
     3f4:	98 2f       	mov	r25, r24
     3f6:	88 27       	eor	r24, r24
     3f8:	29 81       	ldd	r18, Y+1	; 0x01
     3fa:	82 2b       	or	r24, r18
     3fc:	ac df       	rcall	.-168    	; 0x356 <_Z21convert_accelerometert>
     3fe:	9b 01       	movw	r18, r22
     400:	ac 01       	movw	r20, r24
	
	// Compute the pitch angle and convert to degrees
	pitch_angle = (atan2(-x_accel, z_accel)*180.0)/3.1416;
     402:	c7 01       	movw	r24, r14
     404:	b6 01       	movw	r22, r12
     406:	90 58       	subi	r25, 0x80	; 128
     408:	0e 94 4d 16 	call	0x2c9a	; 0x2c9a <atan2>
     40c:	20 e0       	ldi	r18, 0x00	; 0
     40e:	30 e0       	ldi	r19, 0x00	; 0
     410:	44 e3       	ldi	r20, 0x34	; 52
     412:	53 e4       	ldi	r21, 0x43	; 67
     414:	0e 94 1f 18 	call	0x303e	; 0x303e <__mulsf3>
     418:	29 ef       	ldi	r18, 0xF9	; 249
     41a:	3f e0       	ldi	r19, 0x0F	; 15
     41c:	49 e4       	ldi	r20, 0x49	; 73
     41e:	50 e4       	ldi	r21, 0x40	; 64
     420:	0e 94 a4 16 	call	0x2d48	; 0x2d48 <__divsf3>
	
	return pitch_angle;
}
     424:	2c 96       	adiw	r28, 0x0c	; 12
     426:	0f b6       	in	r0, 0x3f	; 63
     428:	f8 94       	cli
     42a:	de bf       	out	0x3e, r29	; 62
     42c:	0f be       	out	0x3f, r0	; 63
     42e:	cd bf       	out	0x3d, r28	; 61
     430:	df 91       	pop	r29
     432:	cf 91       	pop	r28
     434:	1f 91       	pop	r17
     436:	0f 91       	pop	r16
     438:	ff 90       	pop	r15
     43a:	ef 90       	pop	r14
     43c:	df 90       	pop	r13
     43e:	cf 90       	pop	r12
     440:	08 95       	ret

00000442 <__vector_20>:
Example Call	:	complimentary_filter(gyro_angle, accel_angle, 0.98)
***********************************/
float complimentary_filter(float angle1, float angle2, float alpha)
{
	return (alpha*angle1 + (1-alpha)*angle2);
}
     442:	1f 92       	push	r1
     444:	0f 92       	push	r0
     446:	0f b6       	in	r0, 0x3f	; 63
     448:	0f 92       	push	r0
     44a:	11 24       	eor	r1, r1
     44c:	0b b6       	in	r0, 0x3b	; 59
     44e:	0f 92       	push	r0
     450:	2f 93       	push	r18
     452:	3f 93       	push	r19
     454:	4f 93       	push	r20
     456:	5f 93       	push	r21
     458:	6f 93       	push	r22
     45a:	7f 93       	push	r23
     45c:	8f 93       	push	r24
     45e:	9f 93       	push	r25
     460:	af 93       	push	r26
     462:	bf 93       	push	r27
     464:	ef 93       	push	r30
     466:	ff 93       	push	r31
     468:	cf 93       	push	r28
     46a:	df 93       	push	r29
     46c:	cd b7       	in	r28, 0x3d	; 61
     46e:	de b7       	in	r29, 0x3e	; 62
     470:	28 97       	sbiw	r28, 0x08	; 8
     472:	de bf       	out	0x3e, r29	; 62
     474:	cd bf       	out	0x3d, r28	; 61
     476:	80 e8       	ldi	r24, 0x80	; 128
     478:	9b ef       	ldi	r25, 0xFB	; 251
     47a:	90 93 85 00 	sts	0x0085, r25	; 0x800085 <__TEXT_REGION_LENGTH__+0x700085>
     47e:	80 93 84 00 	sts	0x0084, r24	; 0x800084 <__TEXT_REGION_LENGTH__+0x700084>
     482:	80 91 80 05 	lds	r24, 0x0580	; 0x800580 <left_encoder_count>
     486:	90 91 81 05 	lds	r25, 0x0581	; 0x800581 <left_encoder_count+0x1>
     48a:	a0 91 82 05 	lds	r26, 0x0582	; 0x800582 <left_encoder_count+0x2>
     48e:	b0 91 83 05 	lds	r27, 0x0583	; 0x800583 <left_encoder_count+0x3>
     492:	8d 83       	std	Y+5, r24	; 0x05
     494:	9e 83       	std	Y+6, r25	; 0x06
     496:	af 83       	std	Y+7, r26	; 0x07
     498:	b8 87       	std	Y+8, r27	; 0x08
     49a:	80 91 7c 05 	lds	r24, 0x057C	; 0x80057c <right_encoder_count>
     49e:	90 91 7d 05 	lds	r25, 0x057D	; 0x80057d <right_encoder_count+0x1>
     4a2:	a0 91 7e 05 	lds	r26, 0x057E	; 0x80057e <right_encoder_count+0x2>
     4a6:	b0 91 7f 05 	lds	r27, 0x057F	; 0x80057f <right_encoder_count+0x3>
     4aa:	89 83       	std	Y+1, r24	; 0x01
     4ac:	9a 83       	std	Y+2, r25	; 0x02
     4ae:	ab 83       	std	Y+3, r26	; 0x03
     4b0:	bc 83       	std	Y+4, r27	; 0x04
     4b2:	6d 81       	ldd	r22, Y+5	; 0x05
     4b4:	7e 81       	ldd	r23, Y+6	; 0x06
     4b6:	8f 81       	ldd	r24, Y+7	; 0x07
     4b8:	98 85       	ldd	r25, Y+8	; 0x08
     4ba:	20 91 2c 05 	lds	r18, 0x052C	; 0x80052c <left_prev_count>
     4be:	30 91 2d 05 	lds	r19, 0x052D	; 0x80052d <left_prev_count+0x1>
     4c2:	40 91 2e 05 	lds	r20, 0x052E	; 0x80052e <left_prev_count+0x2>
     4c6:	50 91 2f 05 	lds	r21, 0x052F	; 0x80052f <left_prev_count+0x3>
     4ca:	0e 94 d9 15 	call	0x2bb2	; 0x2bb2 <__subsf3>
     4ce:	20 e0       	ldi	r18, 0x00	; 0
     4d0:	30 e0       	ldi	r19, 0x00	; 0
     4d2:	40 e7       	ldi	r20, 0x70	; 112
     4d4:	52 e4       	ldi	r21, 0x42	; 66
     4d6:	0e 94 1f 18 	call	0x303e	; 0x303e <__mulsf3>
     4da:	26 e6       	ldi	r18, 0x66	; 102
     4dc:	36 e6       	ldi	r19, 0x66	; 102
     4de:	46 e0       	ldi	r20, 0x06	; 6
     4e0:	51 e4       	ldi	r21, 0x41	; 65
     4e2:	0e 94 a4 16 	call	0x2d48	; 0x2d48 <__divsf3>
     4e6:	60 93 34 05 	sts	0x0534, r22	; 0x800534 <left_RPM>
     4ea:	70 93 35 05 	sts	0x0535, r23	; 0x800535 <left_RPM+0x1>
     4ee:	80 93 36 05 	sts	0x0536, r24	; 0x800536 <left_RPM+0x2>
     4f2:	90 93 37 05 	sts	0x0537, r25	; 0x800537 <left_RPM+0x3>
     4f6:	69 81       	ldd	r22, Y+1	; 0x01
     4f8:	7a 81       	ldd	r23, Y+2	; 0x02
     4fa:	8b 81       	ldd	r24, Y+3	; 0x03
     4fc:	9c 81       	ldd	r25, Y+4	; 0x04
     4fe:	20 91 28 05 	lds	r18, 0x0528	; 0x800528 <right_prev_count>
     502:	30 91 29 05 	lds	r19, 0x0529	; 0x800529 <right_prev_count+0x1>
     506:	40 91 2a 05 	lds	r20, 0x052A	; 0x80052a <right_prev_count+0x2>
     50a:	50 91 2b 05 	lds	r21, 0x052B	; 0x80052b <right_prev_count+0x3>
     50e:	0e 94 d9 15 	call	0x2bb2	; 0x2bb2 <__subsf3>
     512:	20 e0       	ldi	r18, 0x00	; 0
     514:	30 e0       	ldi	r19, 0x00	; 0
     516:	40 e7       	ldi	r20, 0x70	; 112
     518:	52 e4       	ldi	r21, 0x42	; 66
     51a:	0e 94 1f 18 	call	0x303e	; 0x303e <__mulsf3>
     51e:	26 e6       	ldi	r18, 0x66	; 102
     520:	36 e6       	ldi	r19, 0x66	; 102
     522:	46 e0       	ldi	r20, 0x06	; 6
     524:	51 e4       	ldi	r21, 0x41	; 65
     526:	0e 94 a4 16 	call	0x2d48	; 0x2d48 <__divsf3>
     52a:	60 93 30 05 	sts	0x0530, r22	; 0x800530 <right_RPM>
     52e:	70 93 31 05 	sts	0x0531, r23	; 0x800531 <right_RPM+0x1>
     532:	80 93 32 05 	sts	0x0532, r24	; 0x800532 <right_RPM+0x2>
     536:	90 93 33 05 	sts	0x0533, r25	; 0x800533 <right_RPM+0x3>
     53a:	8d 81       	ldd	r24, Y+5	; 0x05
     53c:	9e 81       	ldd	r25, Y+6	; 0x06
     53e:	af 81       	ldd	r26, Y+7	; 0x07
     540:	b8 85       	ldd	r27, Y+8	; 0x08
     542:	80 93 2c 05 	sts	0x052C, r24	; 0x80052c <left_prev_count>
     546:	90 93 2d 05 	sts	0x052D, r25	; 0x80052d <left_prev_count+0x1>
     54a:	a0 93 2e 05 	sts	0x052E, r26	; 0x80052e <left_prev_count+0x2>
     54e:	b0 93 2f 05 	sts	0x052F, r27	; 0x80052f <left_prev_count+0x3>
     552:	89 81       	ldd	r24, Y+1	; 0x01
     554:	9a 81       	ldd	r25, Y+2	; 0x02
     556:	ab 81       	ldd	r26, Y+3	; 0x03
     558:	bc 81       	ldd	r27, Y+4	; 0x04
     55a:	80 93 28 05 	sts	0x0528, r24	; 0x800528 <right_prev_count>
     55e:	90 93 29 05 	sts	0x0529, r25	; 0x800529 <right_prev_count+0x1>
     562:	a0 93 2a 05 	sts	0x052A, r26	; 0x80052a <right_prev_count+0x2>
     566:	b0 93 2b 05 	sts	0x052B, r27	; 0x80052b <right_prev_count+0x3>
     56a:	28 96       	adiw	r28, 0x08	; 8
     56c:	0f b6       	in	r0, 0x3f	; 63
     56e:	f8 94       	cli
     570:	de bf       	out	0x3e, r29	; 62
     572:	0f be       	out	0x3f, r0	; 63
     574:	cd bf       	out	0x3d, r28	; 61
     576:	df 91       	pop	r29
     578:	cf 91       	pop	r28
     57a:	ff 91       	pop	r31
     57c:	ef 91       	pop	r30
     57e:	bf 91       	pop	r27
     580:	af 91       	pop	r26
     582:	9f 91       	pop	r25
     584:	8f 91       	pop	r24
     586:	7f 91       	pop	r23
     588:	6f 91       	pop	r22
     58a:	5f 91       	pop	r21
     58c:	4f 91       	pop	r20
     58e:	3f 91       	pop	r19
     590:	2f 91       	pop	r18
     592:	0f 90       	pop	r0
     594:	0b be       	out	0x3b, r0	; 59
     596:	0f 90       	pop	r0
     598:	0f be       	out	0x3f, r0	; 63
     59a:	0f 90       	pop	r0
     59c:	1f 90       	pop	r1
     59e:	18 95       	reti

000005a0 <_Z13encoder_countv>:
     5a0:	60 91 80 05 	lds	r22, 0x0580	; 0x800580 <left_encoder_count>
     5a4:	70 91 81 05 	lds	r23, 0x0581	; 0x800581 <left_encoder_count+0x1>
     5a8:	80 91 82 05 	lds	r24, 0x0582	; 0x800582 <left_encoder_count+0x2>
     5ac:	90 91 83 05 	lds	r25, 0x0583	; 0x800583 <left_encoder_count+0x3>
     5b0:	20 91 7c 05 	lds	r18, 0x057C	; 0x80057c <right_encoder_count>
     5b4:	30 91 7d 05 	lds	r19, 0x057D	; 0x80057d <right_encoder_count+0x1>
     5b8:	40 91 7e 05 	lds	r20, 0x057E	; 0x80057e <right_encoder_count+0x2>
     5bc:	50 91 7f 05 	lds	r21, 0x057F	; 0x80057f <right_encoder_count+0x3>
     5c0:	0c 94 da 15 	jmp	0x2bb4	; 0x2bb4 <__addsf3>
     5c4:	08 95       	ret

000005c6 <_Z15read_tilt_anglev>:
Arguments		:	None
Return Value	:	None
Example Call	:	read_tilt_angle()
***********************************/
void read_tilt_angle()
{
     5c6:	8f 92       	push	r8
     5c8:	9f 92       	push	r9
     5ca:	af 92       	push	r10
     5cc:	bf 92       	push	r11
     5ce:	cf 92       	push	r12
     5d0:	df 92       	push	r13
     5d2:	ef 92       	push	r14
     5d4:	ff 92       	push	r15
     5d6:	0f 93       	push	r16
     5d8:	1f 93       	push	r17
     5da:	cf 93       	push	r28
     5dc:	df 93       	push	r29
     5de:	00 d0       	rcall	.+0      	; 0x5e0 <_Z15read_tilt_anglev+0x1a>
     5e0:	1f 92       	push	r1
     5e2:	cd b7       	in	r28, 0x3d	; 61
     5e4:	de b7       	in	r29, 0x3e	; 62
	// Compute pitch angle from Gyroscope
	gyro_angle = get_gyro_angle(epoch(), angle.position);
     5e6:	0c e6       	ldi	r16, 0x6C	; 108
     5e8:	12 e0       	ldi	r17, 0x02	; 2
     5ea:	f8 01       	movw	r30, r16
     5ec:	20 a1       	ldd	r18, Z+32	; 0x20
     5ee:	31 a1       	ldd	r19, Z+33	; 0x21
     5f0:	42 a1       	ldd	r20, Z+34	; 0x22
     5f2:	53 a1       	ldd	r21, Z+35	; 0x23
     5f4:	29 83       	std	Y+1, r18	; 0x01
     5f6:	3a 83       	std	Y+2, r19	; 0x02
     5f8:	4b 83       	std	Y+3, r20	; 0x03
     5fa:	5c 83       	std	Y+4, r21	; 0x04
     5fc:	0e 94 f0 13 	call	0x27e0	; 0x27e0 <_Z5epochv>
     600:	29 81       	ldd	r18, Y+1	; 0x01
     602:	3a 81       	ldd	r19, Y+2	; 0x02
     604:	4b 81       	ldd	r20, Y+3	; 0x03
     606:	5c 81       	ldd	r21, Y+4	; 0x04
     608:	0e 94 fe 0c 	call	0x19fc	; 0x19fc <_Z14get_gyro_anglemf>
     60c:	60 93 40 05 	sts	0x0540, r22	; 0x800540 <gyro_angle>
     610:	70 93 41 05 	sts	0x0541, r23	; 0x800541 <gyro_angle+0x1>
     614:	80 93 42 05 	sts	0x0542, r24	; 0x800542 <gyro_angle+0x2>
     618:	90 93 43 05 	sts	0x0543, r25	; 0x800543 <gyro_angle+0x3>
	
	// Compute pitch angle from Accelerometer
	accel_angle = read_accelerometer();
     61c:	af de       	rcall	.-674    	; 0x37c <_Z18read_accelerometerv>
     61e:	60 93 44 05 	sts	0x0544, r22	; 0x800544 <accel_angle>
     622:	70 93 45 05 	sts	0x0545, r23	; 0x800545 <accel_angle+0x1>
     626:	80 93 46 05 	sts	0x0546, r24	; 0x800546 <accel_angle+0x2>
     62a:	90 93 47 05 	sts	0x0547, r25	; 0x800547 <accel_angle+0x3>
	
	// Fuse the pitch angles using a Complimentary Filter
	angle.position = complimentary_filter(gyro_angle, accel_angle, COMP_FILTER_ALPHA);
     62e:	80 90 44 05 	lds	r8, 0x0544	; 0x800544 <accel_angle>
     632:	90 90 45 05 	lds	r9, 0x0545	; 0x800545 <accel_angle+0x1>
     636:	a0 90 46 05 	lds	r10, 0x0546	; 0x800546 <accel_angle+0x2>
     63a:	b0 90 47 05 	lds	r11, 0x0547	; 0x800547 <accel_angle+0x3>
     63e:	60 91 40 05 	lds	r22, 0x0540	; 0x800540 <gyro_angle>
     642:	70 91 41 05 	lds	r23, 0x0541	; 0x800541 <gyro_angle+0x1>
     646:	80 91 42 05 	lds	r24, 0x0542	; 0x800542 <gyro_angle+0x2>
     64a:	90 91 43 05 	lds	r25, 0x0543	; 0x800543 <gyro_angle+0x3>
Return Value	:	Fused value
Example Call	:	complimentary_filter(gyro_angle, accel_angle, 0.98)
***********************************/
float complimentary_filter(float angle1, float angle2, float alpha)
{
	return (alpha*angle1 + (1-alpha)*angle2);
     64e:	28 e4       	ldi	r18, 0x48	; 72
     650:	31 ee       	ldi	r19, 0xE1	; 225
     652:	4a e7       	ldi	r20, 0x7A	; 122
     654:	5f e3       	ldi	r21, 0x3F	; 63
     656:	0e 94 1f 18 	call	0x303e	; 0x303e <__mulsf3>
     65a:	6b 01       	movw	r12, r22
     65c:	7c 01       	movw	r14, r24
     65e:	20 e0       	ldi	r18, 0x00	; 0
     660:	37 ed       	ldi	r19, 0xD7	; 215
     662:	43 ea       	ldi	r20, 0xA3	; 163
     664:	5c e3       	ldi	r21, 0x3C	; 60
     666:	c5 01       	movw	r24, r10
     668:	b4 01       	movw	r22, r8
     66a:	0e 94 1f 18 	call	0x303e	; 0x303e <__mulsf3>
     66e:	9b 01       	movw	r18, r22
     670:	ac 01       	movw	r20, r24
     672:	c7 01       	movw	r24, r14
     674:	b6 01       	movw	r22, r12
     676:	0e 94 da 15 	call	0x2bb4	; 0x2bb4 <__addsf3>
	
	// Compute pitch angle from Accelerometer
	accel_angle = read_accelerometer();
	
	// Fuse the pitch angles using a Complimentary Filter
	angle.position = complimentary_filter(gyro_angle, accel_angle, COMP_FILTER_ALPHA);
     67a:	f8 01       	movw	r30, r16
     67c:	60 a3       	std	Z+32, r22	; 0x20
     67e:	71 a3       	std	Z+33, r23	; 0x21
     680:	82 a3       	std	Z+34, r24	; 0x22
     682:	93 a3       	std	Z+35, r25	; 0x23
}
     684:	0f 90       	pop	r0
     686:	0f 90       	pop	r0
     688:	0f 90       	pop	r0
     68a:	0f 90       	pop	r0
     68c:	df 91       	pop	r29
     68e:	cf 91       	pop	r28
     690:	1f 91       	pop	r17
     692:	0f 91       	pop	r16
     694:	ff 90       	pop	r15
     696:	ef 90       	pop	r14
     698:	df 90       	pop	r13
     69a:	cf 90       	pop	r12
     69c:	bf 90       	pop	r11
     69e:	af 90       	pop	r10
     6a0:	9f 90       	pop	r9
     6a2:	8f 90       	pop	r8
     6a4:	08 95       	ret

000006a6 <__vector_35>:
Arguments		:	Timer 3 overflow vector
Return Value	:	None
Example Call	:	Called automatically
***********************************/
ISR(TIMER3_OVF_vect)
{
     6a6:	1f 92       	push	r1
     6a8:	0f 92       	push	r0
     6aa:	0f b6       	in	r0, 0x3f	; 63
     6ac:	0f 92       	push	r0
     6ae:	11 24       	eor	r1, r1
     6b0:	0b b6       	in	r0, 0x3b	; 59
     6b2:	0f 92       	push	r0
     6b4:	2f 93       	push	r18
     6b6:	3f 93       	push	r19
     6b8:	4f 93       	push	r20
     6ba:	5f 93       	push	r21
     6bc:	6f 93       	push	r22
     6be:	7f 93       	push	r23
     6c0:	8f 93       	push	r24
     6c2:	9f 93       	push	r25
     6c4:	af 93       	push	r26
     6c6:	bf 93       	push	r27
     6c8:	cf 93       	push	r28
     6ca:	df 93       	push	r29
     6cc:	ef 93       	push	r30
     6ce:	ff 93       	push	r31
	TIMSK3 = 0x00;	
     6d0:	c1 e7       	ldi	r28, 0x71	; 113
     6d2:	d0 e0       	ldi	r29, 0x00	; 0
     6d4:	18 82       	st	Y, r1
	read_tilt_angle();	
     6d6:	77 df       	rcall	.-274    	; 0x5c6 <_Z15read_tilt_anglev>
	TCNT3 = 0xFF70;
     6d8:	80 e7       	ldi	r24, 0x70	; 112
     6da:	9f ef       	ldi	r25, 0xFF	; 255
     6dc:	90 93 95 00 	sts	0x0095, r25	; 0x800095 <__TEXT_REGION_LENGTH__+0x700095>
     6e0:	80 93 94 00 	sts	0x0094, r24	; 0x800094 <__TEXT_REGION_LENGTH__+0x700094>
	TIMSK3 = 0x01;
     6e4:	81 e0       	ldi	r24, 0x01	; 1
     6e6:	88 83       	st	Y, r24
}
     6e8:	ff 91       	pop	r31
     6ea:	ef 91       	pop	r30
     6ec:	df 91       	pop	r29
     6ee:	cf 91       	pop	r28
     6f0:	bf 91       	pop	r27
     6f2:	af 91       	pop	r26
     6f4:	9f 91       	pop	r25
     6f6:	8f 91       	pop	r24
     6f8:	7f 91       	pop	r23
     6fa:	6f 91       	pop	r22
     6fc:	5f 91       	pop	r21
     6fe:	4f 91       	pop	r20
     700:	3f 91       	pop	r19
     702:	2f 91       	pop	r18
     704:	0f 90       	pop	r0
     706:	0b be       	out	0x3b, r0	; 59
     708:	0f 90       	pop	r0
     70a:	0f be       	out	0x3f, r0	; 63
     70c:	0f 90       	pop	r0
     70e:	1f 90       	pop	r1
     710:	18 95       	reti

00000712 <_Z14handle_buttonsv>:
Arguments		:	None
Return Value	:	None
Example Call	:	handle_buttons()
***********************************/
void handle_buttons()
{
     712:	ef 92       	push	r14
     714:	0f 93       	push	r16
     716:	1f 93       	push	r17
     718:	cf 93       	push	r28
     71a:	df 93       	push	r29
	// Button 4 - Move Forward
	if ((joystick.button_4 == HIGH) && ((epoch() - joystick.b4_time) >= 1))
     71c:	80 91 57 05 	lds	r24, 0x0557	; 0x800557 <joystick+0x7>
     720:	88 23       	and	r24, r24
     722:	81 f0       	breq	.+32     	; 0x744 <_Z14handle_buttonsv+0x32>
     724:	0e 94 f0 13 	call	0x27e0	; 0x27e0 <_Z5epochv>
     728:	00 91 64 05 	lds	r16, 0x0564	; 0x800564 <joystick+0x14>
     72c:	10 91 65 05 	lds	r17, 0x0565	; 0x800565 <joystick+0x15>
     730:	20 91 66 05 	lds	r18, 0x0566	; 0x800566 <joystick+0x16>
     734:	30 91 67 05 	lds	r19, 0x0567	; 0x800567 <joystick+0x17>
     738:	60 17       	cp	r22, r16
     73a:	71 07       	cpc	r23, r17
     73c:	82 07       	cpc	r24, r18
     73e:	93 07       	cpc	r25, r19
     740:	09 f0       	breq	.+2      	; 0x744 <_Z14handle_buttonsv+0x32>
     742:	53 c0       	rjmp	.+166    	; 0x7ea <_Z14handle_buttonsv+0xd8>
		STOP_FLAG = false;
		SLOPE_FLAG = false;
	}
	
	// Button 1 - Move Back
	else if ((joystick.button_1 == HIGH) && ((epoch() - joystick.b1_time) >= 1))
     744:	80 91 54 05 	lds	r24, 0x0554	; 0x800554 <joystick+0x4>
     748:	88 23       	and	r24, r24
     74a:	09 f4       	brne	.+2      	; 0x74e <_Z14handle_buttonsv+0x3c>
     74c:	ad c0       	rjmp	.+346    	; 0x8a8 <_Z14handle_buttonsv+0x196>
     74e:	0e 94 f0 13 	call	0x27e0	; 0x27e0 <_Z5epochv>
     752:	00 91 58 05 	lds	r16, 0x0558	; 0x800558 <joystick+0x8>
     756:	10 91 59 05 	lds	r17, 0x0559	; 0x800559 <joystick+0x9>
     75a:	20 91 5a 05 	lds	r18, 0x055A	; 0x80055a <joystick+0xa>
     75e:	30 91 5b 05 	lds	r19, 0x055B	; 0x80055b <joystick+0xb>
     762:	60 17       	cp	r22, r16
     764:	71 07       	cpc	r23, r17
     766:	82 07       	cpc	r24, r18
     768:	93 07       	cpc	r25, r19
     76a:	09 f4       	brne	.+2      	; 0x76e <_Z14handle_buttonsv+0x5c>
     76c:	9d c0       	rjmp	.+314    	; 0x8a8 <_Z14handle_buttonsv+0x196>
	{
		joystick.b1_time = epoch();
     76e:	0e 94 f0 13 	call	0x27e0	; 0x27e0 <_Z5epochv>
     772:	60 93 58 05 	sts	0x0558, r22	; 0x800558 <joystick+0x8>
     776:	70 93 59 05 	sts	0x0559, r23	; 0x800559 <joystick+0x9>
     77a:	80 93 5a 05 	sts	0x055A, r24	; 0x80055a <joystick+0xa>
     77e:	90 93 5b 05 	sts	0x055B, r25	; 0x80055b <joystick+0xb>
		
		// Update set-point
		encoder.set_point -= 0.1*FULL_SPEED; // Increment the Position Set Point at a Defined Speed
     782:	60 91 18 02 	lds	r22, 0x0218	; 0x800218 <__data_start+0x18>
     786:	70 91 19 02 	lds	r23, 0x0219	; 0x800219 <__data_start+0x19>
     78a:	80 91 1a 02 	lds	r24, 0x021A	; 0x80021a <__data_start+0x1a>
     78e:	90 91 1b 02 	lds	r25, 0x021B	; 0x80021b <__data_start+0x1b>
     792:	20 e0       	ldi	r18, 0x00	; 0
     794:	30 e0       	ldi	r19, 0x00	; 0
     796:	40 ea       	ldi	r20, 0xA0	; 160
     798:	50 e4       	ldi	r21, 0x40	; 64
     79a:	0e 94 d9 15 	call	0x2bb2	; 0x2bb2 <__subsf3>
     79e:	60 93 18 02 	sts	0x0218, r22	; 0x800218 <__data_start+0x18>
     7a2:	70 93 19 02 	sts	0x0219, r23	; 0x800219 <__data_start+0x19>
     7a6:	80 93 1a 02 	sts	0x021A, r24	; 0x80021a <__data_start+0x1a>
     7aa:	90 93 1b 02 	sts	0x021B, r25	; 0x80021b <__data_start+0x1b>
		velocity.set_point = -REVERSE_SPEED;
     7ae:	80 e0       	ldi	r24, 0x00	; 0
     7b0:	90 e0       	ldi	r25, 0x00	; 0
     7b2:	ac e0       	ldi	r26, 0x0C	; 12
     7b4:	b3 ec       	ldi	r27, 0xC3	; 195
     7b6:	80 93 4e 02 	sts	0x024E, r24	; 0x80024e <velocity+0x18>
     7ba:	90 93 4f 02 	sts	0x024F, r25	; 0x80024f <velocity+0x19>
     7be:	a0 93 50 02 	sts	0x0250, r26	; 0x800250 <velocity+0x1a>
     7c2:	b0 93 51 02 	sts	0x0251, r27	; 0x800251 <velocity+0x1b>
		move_offset = 0.05;
     7c6:	8d ec       	ldi	r24, 0xCD	; 205
     7c8:	9c ec       	ldi	r25, 0xCC	; 204
     7ca:	ac e4       	ldi	r26, 0x4C	; 76
     7cc:	bd e3       	ldi	r27, 0x3D	; 61
     7ce:	80 93 48 05 	sts	0x0548, r24	; 0x800548 <move_offset>
     7d2:	90 93 49 05 	sts	0x0549, r25	; 0x800549 <move_offset+0x1>
     7d6:	a0 93 4a 05 	sts	0x054A, r26	; 0x80054a <move_offset+0x2>
     7da:	b0 93 4b 05 	sts	0x054B, r27	; 0x80054b <move_offset+0x3>
		
		// Update flags
		set_led_indicators(false, false, true, false, false, false);
     7de:	e1 2c       	mov	r14, r1
     7e0:	00 e0       	ldi	r16, 0x00	; 0
     7e2:	20 e0       	ldi	r18, 0x00	; 0
     7e4:	41 e0       	ldi	r20, 0x01	; 1
     7e6:	60 e0       	ldi	r22, 0x00	; 0
     7e8:	3d c0       	rjmp	.+122    	; 0x864 <_Z14handle_buttonsv+0x152>
void handle_buttons()
{
	// Button 4 - Move Forward
	if ((joystick.button_4 == HIGH) && ((epoch() - joystick.b4_time) >= 1))
	{
		joystick.b4_time = epoch();
     7ea:	0e 94 f0 13 	call	0x27e0	; 0x27e0 <_Z5epochv>
     7ee:	60 93 64 05 	sts	0x0564, r22	; 0x800564 <joystick+0x14>
     7f2:	70 93 65 05 	sts	0x0565, r23	; 0x800565 <joystick+0x15>
     7f6:	80 93 66 05 	sts	0x0566, r24	; 0x800566 <joystick+0x16>
     7fa:	90 93 67 05 	sts	0x0567, r25	; 0x800567 <joystick+0x17>
		
		// Update set-point
		encoder.set_point += 0.1*FULL_SPEED; // Increment the Position Set Point at a Defined Speed
     7fe:	60 91 18 02 	lds	r22, 0x0218	; 0x800218 <__data_start+0x18>
     802:	70 91 19 02 	lds	r23, 0x0219	; 0x800219 <__data_start+0x19>
     806:	80 91 1a 02 	lds	r24, 0x021A	; 0x80021a <__data_start+0x1a>
     80a:	90 91 1b 02 	lds	r25, 0x021B	; 0x80021b <__data_start+0x1b>
     80e:	20 e0       	ldi	r18, 0x00	; 0
     810:	30 e0       	ldi	r19, 0x00	; 0
     812:	40 ea       	ldi	r20, 0xA0	; 160
     814:	50 e4       	ldi	r21, 0x40	; 64
     816:	0e 94 da 15 	call	0x2bb4	; 0x2bb4 <__addsf3>
     81a:	60 93 18 02 	sts	0x0218, r22	; 0x800218 <__data_start+0x18>
     81e:	70 93 19 02 	sts	0x0219, r23	; 0x800219 <__data_start+0x19>
     822:	80 93 1a 02 	sts	0x021A, r24	; 0x80021a <__data_start+0x1a>
     826:	90 93 1b 02 	sts	0x021B, r25	; 0x80021b <__data_start+0x1b>
		velocity.set_point = FORWARD_SPEED;
     82a:	80 e0       	ldi	r24, 0x00	; 0
     82c:	90 e0       	ldi	r25, 0x00	; 0
     82e:	ab e1       	ldi	r26, 0x1B	; 27
     830:	b3 e4       	ldi	r27, 0x43	; 67
     832:	80 93 4e 02 	sts	0x024E, r24	; 0x80024e <velocity+0x18>
     836:	90 93 4f 02 	sts	0x024F, r25	; 0x80024f <velocity+0x19>
     83a:	a0 93 50 02 	sts	0x0250, r26	; 0x800250 <velocity+0x1a>
     83e:	b0 93 51 02 	sts	0x0251, r27	; 0x800251 <velocity+0x1b>
		move_offset = -0.05;
     842:	8d ec       	ldi	r24, 0xCD	; 205
     844:	9c ec       	ldi	r25, 0xCC	; 204
     846:	ac e4       	ldi	r26, 0x4C	; 76
     848:	bd eb       	ldi	r27, 0xBD	; 189
     84a:	80 93 48 05 	sts	0x0548, r24	; 0x800548 <move_offset>
     84e:	90 93 49 05 	sts	0x0549, r25	; 0x800549 <move_offset+0x1>
     852:	a0 93 4a 05 	sts	0x054A, r26	; 0x80054a <move_offset+0x2>
     856:	b0 93 4b 05 	sts	0x054B, r27	; 0x80054b <move_offset+0x3>
		
		// Update flags
		set_led_indicators(false, true, false, false, false, false);
     85a:	e1 2c       	mov	r14, r1
     85c:	00 e0       	ldi	r16, 0x00	; 0
     85e:	20 e0       	ldi	r18, 0x00	; 0
     860:	40 e0       	ldi	r20, 0x00	; 0
     862:	61 e0       	ldi	r22, 0x01	; 1
		encoder.set_point -= 0.1*FULL_SPEED; // Increment the Position Set Point at a Defined Speed
		velocity.set_point = -REVERSE_SPEED;
		move_offset = 0.05;
		
		// Update flags
		set_led_indicators(false, false, true, false, false, false);
     864:	80 e0       	ldi	r24, 0x00	; 0
     866:	0e 94 3f 0f 	call	0x1e7e	; 0x1e7e <_Z18set_led_indicatorsbbbbbb>
		
		// Set STOP_FLAG to False to avoid Static Balance/Position Holding
		STOP_FLAG = false;
     86a:	10 92 a2 02 	sts	0x02A2, r1	; 0x8002a2 <STOP_FLAG>
		move_offset = 0;
		
		// Update flags
		set_led_indicators(true, false, false, false, false, false);
		STOP_FLAG = true;
		SLOPE_FLAG = false;
     86e:	10 92 22 05 	sts	0x0522, r1	; 0x800522 <__data_end>
	}

	// Button 3 - Sound Buzzer
	if ((joystick.button_3 == HIGH) && ((epoch() - joystick.b3_time) >= 50))
     872:	80 91 56 05 	lds	r24, 0x0556	; 0x800556 <joystick+0x6>
     876:	88 23       	and	r24, r24
     878:	09 f4       	brne	.+2      	; 0x87c <_Z14handle_buttonsv+0x16a>
     87a:	df c0       	rjmp	.+446    	; 0xa3a <_Z14handle_buttonsv+0x328>
     87c:	0e 94 f0 13 	call	0x27e0	; 0x27e0 <_Z5epochv>
     880:	00 91 60 05 	lds	r16, 0x0560	; 0x800560 <joystick+0x10>
     884:	10 91 61 05 	lds	r17, 0x0561	; 0x800561 <joystick+0x11>
     888:	20 91 62 05 	lds	r18, 0x0562	; 0x800562 <joystick+0x12>
     88c:	30 91 63 05 	lds	r19, 0x0563	; 0x800563 <joystick+0x13>
     890:	dc 01       	movw	r26, r24
     892:	cb 01       	movw	r24, r22
     894:	80 1b       	sub	r24, r16
     896:	91 0b       	sbc	r25, r17
     898:	a2 0b       	sbc	r26, r18
     89a:	b3 0b       	sbc	r27, r19
     89c:	c2 97       	sbiw	r24, 0x32	; 50
     89e:	a1 05       	cpc	r26, r1
     8a0:	b1 05       	cpc	r27, r1
     8a2:	08 f0       	brcs	.+2      	; 0x8a6 <_Z14handle_buttonsv+0x194>
     8a4:	b2 c0       	rjmp	.+356    	; 0xa0a <_Z14handle_buttonsv+0x2f8>
     8a6:	c9 c0       	rjmp	.+402    	; 0xa3a <_Z14handle_buttonsv+0x328>
		STOP_FLAG = false;
		SLOPE_FLAG = false;
	}
	
	// Button 2 - Slope Mode
	else if ((joystick.button_2 == HIGH) && ((epoch() - joystick.b2_time) >= 1))
     8a8:	80 91 55 05 	lds	r24, 0x0555	; 0x800555 <joystick+0x5>
     8ac:	88 23       	and	r24, r24
     8ae:	81 f0       	breq	.+32     	; 0x8d0 <_Z14handle_buttonsv+0x1be>
     8b0:	0e 94 f0 13 	call	0x27e0	; 0x27e0 <_Z5epochv>
     8b4:	00 91 5c 05 	lds	r16, 0x055C	; 0x80055c <joystick+0xc>
     8b8:	10 91 5d 05 	lds	r17, 0x055D	; 0x80055d <joystick+0xd>
     8bc:	20 91 5e 05 	lds	r18, 0x055E	; 0x80055e <joystick+0xe>
     8c0:	30 91 5f 05 	lds	r19, 0x055F	; 0x80055f <joystick+0xf>
     8c4:	60 17       	cp	r22, r16
     8c6:	71 07       	cpc	r23, r17
     8c8:	82 07       	cpc	r24, r18
     8ca:	93 07       	cpc	r25, r19
     8cc:	09 f0       	breq	.+2      	; 0x8d0 <_Z14handle_buttonsv+0x1be>
     8ce:	41 c0       	rjmp	.+130    	; 0x952 <_Z14handle_buttonsv+0x240>
		STOP_FLAG = false;
		SLOPE_FLAG = true;
	}
	
	// Button 0 - Hold Position
	else if (!STOP_FLAG)
     8d0:	80 91 a2 02 	lds	r24, 0x02A2	; 0x8002a2 <STOP_FLAG>
     8d4:	81 11       	cpse	r24, r1
     8d6:	cd cf       	rjmp	.-102    	; 0x872 <_Z14handle_buttonsv+0x160>
	{
		// Reset count to current position
		left_encoder_count = right_encoder_count = 0;
     8d8:	10 92 7c 05 	sts	0x057C, r1	; 0x80057c <right_encoder_count>
     8dc:	10 92 7d 05 	sts	0x057D, r1	; 0x80057d <right_encoder_count+0x1>
     8e0:	10 92 7e 05 	sts	0x057E, r1	; 0x80057e <right_encoder_count+0x2>
     8e4:	10 92 7f 05 	sts	0x057F, r1	; 0x80057f <right_encoder_count+0x3>
     8e8:	10 92 80 05 	sts	0x0580, r1	; 0x800580 <left_encoder_count>
     8ec:	10 92 81 05 	sts	0x0581, r1	; 0x800581 <left_encoder_count+0x1>
     8f0:	10 92 82 05 	sts	0x0582, r1	; 0x800582 <left_encoder_count+0x2>
     8f4:	10 92 83 05 	sts	0x0583, r1	; 0x800583 <left_encoder_count+0x3>
		encoder.set_point = encoder_count();
     8f8:	53 de       	rcall	.-858    	; 0x5a0 <_Z13encoder_countv>
     8fa:	60 93 18 02 	sts	0x0218, r22	; 0x800218 <__data_start+0x18>
     8fe:	70 93 19 02 	sts	0x0219, r23	; 0x800219 <__data_start+0x19>
     902:	80 93 1a 02 	sts	0x021A, r24	; 0x80021a <__data_start+0x1a>
     906:	90 93 1b 02 	sts	0x021B, r25	; 0x80021b <__data_start+0x1b>
		
		velocity.set_point = 0;
     90a:	10 92 4e 02 	sts	0x024E, r1	; 0x80024e <velocity+0x18>
     90e:	10 92 4f 02 	sts	0x024F, r1	; 0x80024f <velocity+0x19>
     912:	10 92 50 02 	sts	0x0250, r1	; 0x800250 <velocity+0x1a>
     916:	10 92 51 02 	sts	0x0251, r1	; 0x800251 <velocity+0x1b>
		slope_offset = 0;
     91a:	10 92 4c 05 	sts	0x054C, r1	; 0x80054c <slope_offset>
     91e:	10 92 4d 05 	sts	0x054D, r1	; 0x80054d <slope_offset+0x1>
     922:	10 92 4e 05 	sts	0x054E, r1	; 0x80054e <slope_offset+0x2>
     926:	10 92 4f 05 	sts	0x054F, r1	; 0x80054f <slope_offset+0x3>
		move_offset = 0;
     92a:	10 92 48 05 	sts	0x0548, r1	; 0x800548 <move_offset>
     92e:	10 92 49 05 	sts	0x0549, r1	; 0x800549 <move_offset+0x1>
     932:	10 92 4a 05 	sts	0x054A, r1	; 0x80054a <move_offset+0x2>
     936:	10 92 4b 05 	sts	0x054B, r1	; 0x80054b <move_offset+0x3>
		
		// Update flags
		set_led_indicators(true, false, false, false, false, false);
     93a:	e1 2c       	mov	r14, r1
     93c:	00 e0       	ldi	r16, 0x00	; 0
     93e:	20 e0       	ldi	r18, 0x00	; 0
     940:	40 e0       	ldi	r20, 0x00	; 0
     942:	60 e0       	ldi	r22, 0x00	; 0
     944:	81 e0       	ldi	r24, 0x01	; 1
     946:	0e 94 3f 0f 	call	0x1e7e	; 0x1e7e <_Z18set_led_indicatorsbbbbbb>
		STOP_FLAG = true;
     94a:	81 e0       	ldi	r24, 0x01	; 1
     94c:	80 93 a2 02 	sts	0x02A2, r24	; 0x8002a2 <STOP_FLAG>
     950:	8e cf       	rjmp	.-228    	; 0x86e <_Z14handle_buttonsv+0x15c>
	}
	
	// Button 2 - Slope Mode
	else if ((joystick.button_2 == HIGH) && ((epoch() - joystick.b2_time) >= 1))
	{
		joystick.b2_time = epoch();
     952:	0e 94 f0 13 	call	0x27e0	; 0x27e0 <_Z5epochv>
     956:	60 93 5c 05 	sts	0x055C, r22	; 0x80055c <joystick+0xc>
     95a:	70 93 5d 05 	sts	0x055D, r23	; 0x80055d <joystick+0xd>
     95e:	80 93 5e 05 	sts	0x055E, r24	; 0x80055e <joystick+0xe>
     962:	90 93 5f 05 	sts	0x055F, r25	; 0x80055f <joystick+0xf>
		
		// Gradually increase slope offset angle
		slope_offset -= 0.1;
     966:	2d ec       	ldi	r18, 0xCD	; 205
     968:	3c ec       	ldi	r19, 0xCC	; 204
     96a:	4c ec       	ldi	r20, 0xCC	; 204
     96c:	5d e3       	ldi	r21, 0x3D	; 61
     96e:	60 91 4c 05 	lds	r22, 0x054C	; 0x80054c <slope_offset>
     972:	70 91 4d 05 	lds	r23, 0x054D	; 0x80054d <slope_offset+0x1>
     976:	80 91 4e 05 	lds	r24, 0x054E	; 0x80054e <slope_offset+0x2>
     97a:	90 91 4f 05 	lds	r25, 0x054F	; 0x80054f <slope_offset+0x3>
     97e:	0e 94 d9 15 	call	0x2bb2	; 0x2bb2 <__subsf3>
     982:	eb 01       	movw	r28, r22
     984:	18 2f       	mov	r17, r24
     986:	09 2f       	mov	r16, r25
		slope_offset = constrain(slope_offset, -SLOPE_ANGLE, 0);
     988:	23 e3       	ldi	r18, 0x33	; 51
     98a:	33 e3       	ldi	r19, 0x33	; 51
     98c:	43 e3       	ldi	r20, 0x33	; 51
     98e:	50 ec       	ldi	r21, 0xC0	; 192
     990:	0e 94 a0 16 	call	0x2d40	; 0x2d40 <__cmpsf2>
     994:	87 fd       	sbrc	r24, 7
     996:	0f c0       	rjmp	.+30     	; 0x9b6 <_Z14handle_buttonsv+0x2a4>
     998:	20 e0       	ldi	r18, 0x00	; 0
     99a:	30 e0       	ldi	r19, 0x00	; 0
     99c:	a9 01       	movw	r20, r18
     99e:	be 01       	movw	r22, r28
     9a0:	81 2f       	mov	r24, r17
     9a2:	90 2f       	mov	r25, r16
     9a4:	0e 94 14 18 	call	0x3028	; 0x3028 <__gesf2>
     9a8:	18 16       	cp	r1, r24
     9aa:	4c f4       	brge	.+18     	; 0x9be <_Z14handle_buttonsv+0x2ac>
     9ac:	c0 e0       	ldi	r28, 0x00	; 0
     9ae:	d0 e0       	ldi	r29, 0x00	; 0
     9b0:	10 e0       	ldi	r17, 0x00	; 0
     9b2:	00 e0       	ldi	r16, 0x00	; 0
     9b4:	04 c0       	rjmp	.+8      	; 0x9be <_Z14handle_buttonsv+0x2ac>
     9b6:	c3 e3       	ldi	r28, 0x33	; 51
     9b8:	d3 e3       	ldi	r29, 0x33	; 51
     9ba:	13 e3       	ldi	r17, 0x33	; 51
     9bc:	00 ec       	ldi	r16, 0xC0	; 192
     9be:	ce 01       	movw	r24, r28
     9c0:	a1 2f       	mov	r26, r17
     9c2:	b0 2f       	mov	r27, r16
     9c4:	80 93 4c 05 	sts	0x054C, r24	; 0x80054c <slope_offset>
     9c8:	90 93 4d 05 	sts	0x054D, r25	; 0x80054d <slope_offset+0x1>
     9cc:	a0 93 4e 05 	sts	0x054E, r26	; 0x80054e <slope_offset+0x2>
     9d0:	b0 93 4f 05 	sts	0x054F, r27	; 0x80054f <slope_offset+0x3>
		velocity.set_point = SLOPE_SPEED;
     9d4:	80 e0       	ldi	r24, 0x00	; 0
     9d6:	90 e0       	ldi	r25, 0x00	; 0
     9d8:	ab e1       	ldi	r26, 0x1B	; 27
     9da:	b3 e4       	ldi	r27, 0x43	; 67
     9dc:	80 93 4e 02 	sts	0x024E, r24	; 0x80024e <velocity+0x18>
     9e0:	90 93 4f 02 	sts	0x024F, r25	; 0x80024f <velocity+0x19>
     9e4:	a0 93 50 02 	sts	0x0250, r26	; 0x800250 <velocity+0x1a>
     9e8:	b0 93 51 02 	sts	0x0251, r27	; 0x800251 <velocity+0x1b>
		
		// Update flags
		set_led_indicators(false, false, false, false, false, true);
     9ec:	ee 24       	eor	r14, r14
     9ee:	e3 94       	inc	r14
     9f0:	00 e0       	ldi	r16, 0x00	; 0
     9f2:	20 e0       	ldi	r18, 0x00	; 0
     9f4:	40 e0       	ldi	r20, 0x00	; 0
     9f6:	60 e0       	ldi	r22, 0x00	; 0
     9f8:	80 e0       	ldi	r24, 0x00	; 0
     9fa:	0e 94 3f 0f 	call	0x1e7e	; 0x1e7e <_Z18set_led_indicatorsbbbbbb>
		
		// Set STOP_FLAG to False to avoid Static Balance/Position Holding
		STOP_FLAG = false;
     9fe:	10 92 a2 02 	sts	0x02A2, r1	; 0x8002a2 <STOP_FLAG>
		SLOPE_FLAG = true;
     a02:	81 e0       	ldi	r24, 0x01	; 1
     a04:	80 93 22 05 	sts	0x0522, r24	; 0x800522 <__data_end>
     a08:	34 cf       	rjmp	.-408    	; 0x872 <_Z14handle_buttonsv+0x160>
	}

	// Button 3 - Sound Buzzer
	if ((joystick.button_3 == HIGH) && ((epoch() - joystick.b3_time) >= 50))
	{
		joystick.b3_time = epoch();
     a0a:	0e 94 f0 13 	call	0x27e0	; 0x27e0 <_Z5epochv>
     a0e:	60 93 60 05 	sts	0x0560, r22	; 0x800560 <joystick+0x10>
     a12:	70 93 61 05 	sts	0x0561, r23	; 0x800561 <joystick+0x11>
     a16:	80 93 62 05 	sts	0x0562, r24	; 0x800562 <joystick+0x12>
     a1a:	90 93 63 05 	sts	0x0563, r25	; 0x800563 <joystick+0x13>
		if (!read_buzzer_state())
     a1e:	0e 94 6a 10 	call	0x20d4	; 0x20d4 <_Z17read_buzzer_statev>
     a22:	81 11       	cpse	r24, r1
     a24:	0a c0       	rjmp	.+20     	; 0xa3a <_Z14handle_buttonsv+0x328>
		{
			set_buzzer_state(true);
     a26:	81 e0       	ldi	r24, 0x01	; 1
     a28:	0e 94 65 10 	call	0x20ca	; 0x20ca <_Z16set_buzzer_stateb>
			set_buzz_time();
		}
	}
}
     a2c:	df 91       	pop	r29
     a2e:	cf 91       	pop	r28
     a30:	1f 91       	pop	r17
     a32:	0f 91       	pop	r16
     a34:	ef 90       	pop	r14
	{
		joystick.b3_time = epoch();
		if (!read_buzzer_state())
		{
			set_buzzer_state(true);
			set_buzz_time();
     a36:	0c 94 6d 10 	jmp	0x20da	; 0x20da <_Z13set_buzz_timev>
		}
	}
}
     a3a:	df 91       	pop	r29
     a3c:	cf 91       	pop	r28
     a3e:	1f 91       	pop	r17
     a40:	0f 91       	pop	r16
     a42:	ef 90       	pop	r14
     a44:	08 95       	ret

00000a46 <_Z11steer_robotv>:
Arguments		:	None
Return Value	:	None
Example Call	:	steer_robot()
***********************************/
void steer_robot()
{
     a46:	ef 92       	push	r14
     a48:	0f 93       	push	r16
	// Update the rotation variables
	switch(joystick.x_position)
     a4a:	80 91 50 05 	lds	r24, 0x0550	; 0x800550 <joystick>
     a4e:	90 91 51 05 	lds	r25, 0x0551	; 0x800551 <joystick+0x1>
     a52:	00 97       	sbiw	r24, 0x00	; 0
     a54:	09 f4       	brne	.+2      	; 0xa58 <_Z11steer_robotv+0x12>
     a56:	40 c0       	rjmp	.+128    	; 0xad8 <_Z11steer_robotv+0x92>
     a58:	04 f5       	brge	.+64     	; 0xa9a <_Z11steer_robotv+0x54>
     a5a:	8e 3f       	cpi	r24, 0xFE	; 254
     a5c:	9f 4f       	sbci	r25, 0xFF	; 255
     a5e:	0c f4       	brge	.+2      	; 0xa62 <_Z11steer_robotv+0x1c>
     a60:	5e c0       	rjmp	.+188    	; 0xb1e <_Z11steer_robotv+0xd8>
	{
		// Zone -2/-1 --> Rotate Right
		case -2:
		case -1:
			// Set the turning speed
			rotation_left = TURN_SPEED;
     a62:	80 e0       	ldi	r24, 0x00	; 0
     a64:	90 e0       	ldi	r25, 0x00	; 0
     a66:	a0 e7       	ldi	r26, 0x70	; 112
     a68:	b2 e4       	ldi	r27, 0x42	; 66
     a6a:	80 93 3c 05 	sts	0x053C, r24	; 0x80053c <rotation_left>
     a6e:	90 93 3d 05 	sts	0x053D, r25	; 0x80053d <rotation_left+0x1>
     a72:	a0 93 3e 05 	sts	0x053E, r26	; 0x80053e <rotation_left+0x2>
     a76:	b0 93 3f 05 	sts	0x053F, r27	; 0x80053f <rotation_left+0x3>
			rotation_right = -TURN_SPEED;			
     a7a:	80 e0       	ldi	r24, 0x00	; 0
     a7c:	90 e0       	ldi	r25, 0x00	; 0
     a7e:	a0 e7       	ldi	r26, 0x70	; 112
     a80:	b2 ec       	ldi	r27, 0xC2	; 194
     a82:	80 93 38 05 	sts	0x0538, r24	; 0x800538 <rotation_right>
     a86:	90 93 39 05 	sts	0x0539, r25	; 0x800539 <rotation_right+0x1>
     a8a:	a0 93 3a 05 	sts	0x053A, r26	; 0x80053a <rotation_right+0x2>
     a8e:	b0 93 3b 05 	sts	0x053B, r27	; 0x80053b <rotation_right+0x3>
			set_led_indicators(false, false, false, false, true, false);
     a92:	e1 2c       	mov	r14, r1
     a94:	01 e0       	ldi	r16, 0x01	; 1
     a96:	20 e0       	ldi	r18, 0x00	; 0
     a98:	3a c0       	rjmp	.+116    	; 0xb0e <_Z11steer_robotv+0xc8>
Example Call	:	steer_robot()
***********************************/
void steer_robot()
{
	// Update the rotation variables
	switch(joystick.x_position)
     a9a:	03 97       	sbiw	r24, 0x03	; 3
     a9c:	0c f0       	brlt	.+2      	; 0xaa0 <_Z11steer_robotv+0x5a>
     a9e:	3f c0       	rjmp	.+126    	; 0xb1e <_Z11steer_robotv+0xd8>
		
		// Zone 1/2 --> Rotate Left
		case 1:
		case 2:
			// Set the turning speed
			rotation_left = -TURN_SPEED;
     aa0:	80 e0       	ldi	r24, 0x00	; 0
     aa2:	90 e0       	ldi	r25, 0x00	; 0
     aa4:	a0 e7       	ldi	r26, 0x70	; 112
     aa6:	b2 ec       	ldi	r27, 0xC2	; 194
     aa8:	80 93 3c 05 	sts	0x053C, r24	; 0x80053c <rotation_left>
     aac:	90 93 3d 05 	sts	0x053D, r25	; 0x80053d <rotation_left+0x1>
     ab0:	a0 93 3e 05 	sts	0x053E, r26	; 0x80053e <rotation_left+0x2>
     ab4:	b0 93 3f 05 	sts	0x053F, r27	; 0x80053f <rotation_left+0x3>
			rotation_right = TURN_SPEED;			
     ab8:	80 e0       	ldi	r24, 0x00	; 0
     aba:	90 e0       	ldi	r25, 0x00	; 0
     abc:	a0 e7       	ldi	r26, 0x70	; 112
     abe:	b2 e4       	ldi	r27, 0x42	; 66
     ac0:	80 93 38 05 	sts	0x0538, r24	; 0x800538 <rotation_right>
     ac4:	90 93 39 05 	sts	0x0539, r25	; 0x800539 <rotation_right+0x1>
     ac8:	a0 93 3a 05 	sts	0x053A, r26	; 0x80053a <rotation_right+0x2>
     acc:	b0 93 3b 05 	sts	0x053B, r27	; 0x80053b <rotation_right+0x3>
			set_led_indicators(false, false, false, true, false, false);
     ad0:	e1 2c       	mov	r14, r1
     ad2:	00 e0       	ldi	r16, 0x00	; 0
     ad4:	21 e0       	ldi	r18, 0x01	; 1
     ad6:	1b c0       	rjmp	.+54     	; 0xb0e <_Z11steer_robotv+0xc8>
			ROTATION_FLAG = true;
		break;
		
		// Neutral Position
		case 0:
			rotation_left = 0;
     ad8:	10 92 3c 05 	sts	0x053C, r1	; 0x80053c <rotation_left>
     adc:	10 92 3d 05 	sts	0x053D, r1	; 0x80053d <rotation_left+0x1>
     ae0:	10 92 3e 05 	sts	0x053E, r1	; 0x80053e <rotation_left+0x2>
     ae4:	10 92 3f 05 	sts	0x053F, r1	; 0x80053f <rotation_left+0x3>
			rotation_right = 0;			
     ae8:	10 92 38 05 	sts	0x0538, r1	; 0x800538 <rotation_right>
     aec:	10 92 39 05 	sts	0x0539, r1	; 0x800539 <rotation_right+0x1>
     af0:	10 92 3a 05 	sts	0x053A, r1	; 0x80053a <rotation_right+0x2>
     af4:	10 92 3b 05 	sts	0x053B, r1	; 0x80053b <rotation_right+0x3>
			set_led_indicators(true, false, false, false, false, false);
     af8:	e1 2c       	mov	r14, r1
     afa:	00 e0       	ldi	r16, 0x00	; 0
     afc:	20 e0       	ldi	r18, 0x00	; 0
     afe:	40 e0       	ldi	r20, 0x00	; 0
     b00:	60 e0       	ldi	r22, 0x00	; 0
     b02:	81 e0       	ldi	r24, 0x01	; 1
     b04:	0e 94 3f 0f 	call	0x1e7e	; 0x1e7e <_Z18set_led_indicatorsbbbbbb>
			ROTATION_FLAG = false;
     b08:	10 92 23 05 	sts	0x0523, r1	; 0x800523 <ROTATION_FLAG>
		break;
     b0c:	08 c0       	rjmp	.+16     	; 0xb1e <_Z11steer_robotv+0xd8>
		case 1:
		case 2:
			// Set the turning speed
			rotation_left = -TURN_SPEED;
			rotation_right = TURN_SPEED;			
			set_led_indicators(false, false, false, true, false, false);
     b0e:	40 e0       	ldi	r20, 0x00	; 0
     b10:	60 e0       	ldi	r22, 0x00	; 0
     b12:	80 e0       	ldi	r24, 0x00	; 0
     b14:	0e 94 3f 0f 	call	0x1e7e	; 0x1e7e <_Z18set_led_indicatorsbbbbbb>
			ROTATION_FLAG = true;
     b18:	81 e0       	ldi	r24, 0x01	; 1
     b1a:	80 93 23 05 	sts	0x0523, r24	; 0x800523 <ROTATION_FLAG>
		break;
	}
	
	// Handle the Controller's Push Button Inputs
	handle_buttons();
}
     b1e:	0f 91       	pop	r16
     b20:	ef 90       	pop	r14
			ROTATION_FLAG = true;
		break;
	}
	
	// Handle the Controller's Push Button Inputs
	handle_buttons();
     b22:	f7 cd       	rjmp	.-1042   	; 0x712 <_Z14handle_buttonsv>

00000b24 <_Z20compute_rotation_PIDv>:
Example Call	:	compute_rotation_PID()
***********************************/
void compute_rotation_PID()
{
	// Avoid rotational correction when joystick controller is being used to turn the robot
	if (ROTATION_FLAG)
     b24:	80 91 23 05 	lds	r24, 0x0523	; 0x800523 <ROTATION_FLAG>
     b28:	88 23       	and	r24, r24
     b2a:	89 f0       	breq	.+34     	; 0xb4e <_Z20compute_rotation_PIDv+0x2a>
	{
		left_encoder_count = right_encoder_count;	// Equalize the offset	
     b2c:	80 91 7c 05 	lds	r24, 0x057C	; 0x80057c <right_encoder_count>
     b30:	90 91 7d 05 	lds	r25, 0x057D	; 0x80057d <right_encoder_count+0x1>
     b34:	a0 91 7e 05 	lds	r26, 0x057E	; 0x80057e <right_encoder_count+0x2>
     b38:	b0 91 7f 05 	lds	r27, 0x057F	; 0x80057f <right_encoder_count+0x3>
     b3c:	80 93 80 05 	sts	0x0580, r24	; 0x800580 <left_encoder_count>
     b40:	90 93 81 05 	sts	0x0581, r25	; 0x800581 <left_encoder_count+0x1>
     b44:	a0 93 82 05 	sts	0x0582, r26	; 0x800582 <left_encoder_count+0x2>
     b48:	b0 93 83 05 	sts	0x0583, r27	; 0x800583 <left_encoder_count+0x3>
		return;
     b4c:	08 95       	ret
	}
	
	// Correct rotation drift by computing the difference between the encoder positions
	rotation_left = -1 * LEFT_GAIN * (left_encoder_count - right_encoder_count) * 0.05;
     b4e:	60 91 80 05 	lds	r22, 0x0580	; 0x800580 <left_encoder_count>
     b52:	70 91 81 05 	lds	r23, 0x0581	; 0x800581 <left_encoder_count+0x1>
     b56:	80 91 82 05 	lds	r24, 0x0582	; 0x800582 <left_encoder_count+0x2>
     b5a:	90 91 83 05 	lds	r25, 0x0583	; 0x800583 <left_encoder_count+0x3>
     b5e:	20 91 7c 05 	lds	r18, 0x057C	; 0x80057c <right_encoder_count>
     b62:	30 91 7d 05 	lds	r19, 0x057D	; 0x80057d <right_encoder_count+0x1>
     b66:	40 91 7e 05 	lds	r20, 0x057E	; 0x80057e <right_encoder_count+0x2>
     b6a:	50 91 7f 05 	lds	r21, 0x057F	; 0x80057f <right_encoder_count+0x3>
     b6e:	0e 94 d9 15 	call	0x2bb2	; 0x2bb2 <__subsf3>
     b72:	20 e0       	ldi	r18, 0x00	; 0
     b74:	30 e0       	ldi	r19, 0x00	; 0
     b76:	40 e2       	ldi	r20, 0x20	; 32
     b78:	51 ec       	ldi	r21, 0xC1	; 193
     b7a:	0e 94 1f 18 	call	0x303e	; 0x303e <__mulsf3>
     b7e:	2d ec       	ldi	r18, 0xCD	; 205
     b80:	3c ec       	ldi	r19, 0xCC	; 204
     b82:	4c e4       	ldi	r20, 0x4C	; 76
     b84:	5d e3       	ldi	r21, 0x3D	; 61
     b86:	0e 94 1f 18 	call	0x303e	; 0x303e <__mulsf3>
     b8a:	60 93 3c 05 	sts	0x053C, r22	; 0x80053c <rotation_left>
     b8e:	70 93 3d 05 	sts	0x053D, r23	; 0x80053d <rotation_left+0x1>
     b92:	80 93 3e 05 	sts	0x053E, r24	; 0x80053e <rotation_left+0x2>
     b96:	90 93 3f 05 	sts	0x053F, r25	; 0x80053f <rotation_left+0x3>
	rotation_right = RIGHT_GAIN * (left_encoder_count - right_encoder_count) * 0.05;
     b9a:	60 91 80 05 	lds	r22, 0x0580	; 0x800580 <left_encoder_count>
     b9e:	70 91 81 05 	lds	r23, 0x0581	; 0x800581 <left_encoder_count+0x1>
     ba2:	80 91 82 05 	lds	r24, 0x0582	; 0x800582 <left_encoder_count+0x2>
     ba6:	90 91 83 05 	lds	r25, 0x0583	; 0x800583 <left_encoder_count+0x3>
     baa:	20 91 7c 05 	lds	r18, 0x057C	; 0x80057c <right_encoder_count>
     bae:	30 91 7d 05 	lds	r19, 0x057D	; 0x80057d <right_encoder_count+0x1>
     bb2:	40 91 7e 05 	lds	r20, 0x057E	; 0x80057e <right_encoder_count+0x2>
     bb6:	50 91 7f 05 	lds	r21, 0x057F	; 0x80057f <right_encoder_count+0x3>
     bba:	0e 94 d9 15 	call	0x2bb2	; 0x2bb2 <__subsf3>
     bbe:	20 e0       	ldi	r18, 0x00	; 0
     bc0:	30 e0       	ldi	r19, 0x00	; 0
     bc2:	40 ea       	ldi	r20, 0xA0	; 160
     bc4:	50 e4       	ldi	r21, 0x40	; 64
     bc6:	0e 94 1f 18 	call	0x303e	; 0x303e <__mulsf3>
     bca:	2d ec       	ldi	r18, 0xCD	; 205
     bcc:	3c ec       	ldi	r19, 0xCC	; 204
     bce:	4c e4       	ldi	r20, 0x4C	; 76
     bd0:	5d e3       	ldi	r21, 0x3D	; 61
     bd2:	0e 94 1f 18 	call	0x303e	; 0x303e <__mulsf3>
     bd6:	60 93 38 05 	sts	0x0538, r22	; 0x800538 <rotation_right>
     bda:	70 93 39 05 	sts	0x0539, r23	; 0x800539 <rotation_right+0x1>
     bde:	80 93 3a 05 	sts	0x053A, r24	; 0x80053a <rotation_right+0x2>
     be2:	90 93 3b 05 	sts	0x053B, r25	; 0x80053b <rotation_right+0x3>
     be6:	08 95       	ret

00000be8 <_Z20compute_velocity_PIDv>:
Arguments		:	None
Return Value	:	None
Example Call	:	compute_velocity_PID()
***********************************/
void compute_velocity_PID()
{
     be8:	4f 92       	push	r4
     bea:	5f 92       	push	r5
     bec:	6f 92       	push	r6
     bee:	7f 92       	push	r7
     bf0:	8f 92       	push	r8
     bf2:	9f 92       	push	r9
     bf4:	af 92       	push	r10
     bf6:	bf 92       	push	r11
     bf8:	cf 92       	push	r12
     bfa:	df 92       	push	r13
     bfc:	ef 92       	push	r14
     bfe:	ff 92       	push	r15
     c00:	cf 93       	push	r28
     c02:	df 93       	push	r29
     c04:	cd b7       	in	r28, 0x3d	; 61
     c06:	de b7       	in	r29, 0x3e	; 62
     c08:	60 97       	sbiw	r28, 0x10	; 16
     c0a:	0f b6       	in	r0, 0x3f	; 63
     c0c:	f8 94       	cli
     c0e:	de bf       	out	0x3e, r29	; 62
     c10:	0f be       	out	0x3f, r0	; 63
     c12:	cd bf       	out	0x3d, r28	; 61
	float velocity_KP = 0;
	
	// Get current linear velocity measured using encoders
	velocity.position = (left_RPM + right_RPM)/2.0; // Average of both motor RPMs
     c14:	60 91 34 05 	lds	r22, 0x0534	; 0x800534 <left_RPM>
     c18:	70 91 35 05 	lds	r23, 0x0535	; 0x800535 <left_RPM+0x1>
     c1c:	80 91 36 05 	lds	r24, 0x0536	; 0x800536 <left_RPM+0x2>
     c20:	90 91 37 05 	lds	r25, 0x0537	; 0x800537 <left_RPM+0x3>
     c24:	20 91 30 05 	lds	r18, 0x0530	; 0x800530 <right_RPM>
     c28:	30 91 31 05 	lds	r19, 0x0531	; 0x800531 <right_RPM+0x1>
     c2c:	40 91 32 05 	lds	r20, 0x0532	; 0x800532 <right_RPM+0x2>
     c30:	50 91 33 05 	lds	r21, 0x0533	; 0x800533 <right_RPM+0x3>
     c34:	0e 94 da 15 	call	0x2bb4	; 0x2bb4 <__addsf3>
     c38:	20 e0       	ldi	r18, 0x00	; 0
     c3a:	30 e0       	ldi	r19, 0x00	; 0
     c3c:	40 e0       	ldi	r20, 0x00	; 0
     c3e:	5f e3       	ldi	r21, 0x3F	; 63
     c40:	0e 94 1f 18 	call	0x303e	; 0x303e <__mulsf3>
     c44:	60 93 56 02 	sts	0x0256, r22	; 0x800256 <velocity+0x20>
     c48:	70 93 57 02 	sts	0x0257, r23	; 0x800257 <velocity+0x21>
     c4c:	80 93 58 02 	sts	0x0258, r24	; 0x800258 <velocity+0x22>
     c50:	90 93 59 02 	sts	0x0259, r25	; 0x800259 <velocity+0x23>
	
	// Compute error
	velocity.error = velocity.set_point - velocity.position;
     c54:	60 91 4e 02 	lds	r22, 0x024E	; 0x80024e <velocity+0x18>
     c58:	70 91 4f 02 	lds	r23, 0x024F	; 0x80024f <velocity+0x19>
     c5c:	80 91 50 02 	lds	r24, 0x0250	; 0x800250 <velocity+0x1a>
     c60:	90 91 51 02 	lds	r25, 0x0251	; 0x800251 <velocity+0x1b>
     c64:	20 91 56 02 	lds	r18, 0x0256	; 0x800256 <velocity+0x20>
     c68:	30 91 57 02 	lds	r19, 0x0257	; 0x800257 <velocity+0x21>
     c6c:	40 91 58 02 	lds	r20, 0x0258	; 0x800258 <velocity+0x22>
     c70:	50 91 59 02 	lds	r21, 0x0259	; 0x800259 <velocity+0x23>
     c74:	0e 94 d9 15 	call	0x2bb2	; 0x2bb2 <__subsf3>
     c78:	60 93 52 02 	sts	0x0252, r22	; 0x800252 <velocity+0x1c>
     c7c:	70 93 53 02 	sts	0x0253, r23	; 0x800253 <velocity+0x1d>
     c80:	80 93 54 02 	sts	0x0254, r24	; 0x800254 <velocity+0x1e>
     c84:	90 93 55 02 	sts	0x0255, r25	; 0x800255 <velocity+0x1f>
	
	// Normal motion
	if (!STOP_FLAG)
     c88:	80 91 a2 02 	lds	r24, 0x02A2	; 0x8002a2 <STOP_FLAG>
     c8c:	81 11       	cpse	r24, r1
     c8e:	79 c0       	rjmp	.+242    	; 0xd82 <_Z20compute_velocity_PIDv+0x19a>
	{
		velocity_KP = velocity.con_KP;
     c90:	80 90 36 02 	lds	r8, 0x0236	; 0x800236 <velocity>
     c94:	90 90 37 02 	lds	r9, 0x0237	; 0x800237 <velocity+0x1>
     c98:	a0 90 38 02 	lds	r10, 0x0238	; 0x800238 <velocity+0x2>
     c9c:	b0 90 39 02 	lds	r11, 0x0239	; 0x800239 <velocity+0x3>
		if (abs(velocity.error) < 60) max_angle_vel = 2.5;
     ca0:	60 91 52 02 	lds	r22, 0x0252	; 0x800252 <velocity+0x1c>
     ca4:	70 91 53 02 	lds	r23, 0x0253	; 0x800253 <velocity+0x1d>
     ca8:	80 91 54 02 	lds	r24, 0x0254	; 0x800254 <velocity+0x1e>
     cac:	90 91 55 02 	lds	r25, 0x0255	; 0x800255 <velocity+0x1f>
     cb0:	20 e0       	ldi	r18, 0x00	; 0
     cb2:	30 e0       	ldi	r19, 0x00	; 0
     cb4:	a9 01       	movw	r20, r18
     cb6:	0e 94 14 18 	call	0x3028	; 0x3028 <__gesf2>
     cba:	18 16       	cp	r1, r24
     cbc:	8c f4       	brge	.+34     	; 0xce0 <_Z20compute_velocity_PIDv+0xf8>
     cbe:	60 91 52 02 	lds	r22, 0x0252	; 0x800252 <velocity+0x1c>
     cc2:	70 91 53 02 	lds	r23, 0x0253	; 0x800253 <velocity+0x1d>
     cc6:	80 91 54 02 	lds	r24, 0x0254	; 0x800254 <velocity+0x1e>
     cca:	90 91 55 02 	lds	r25, 0x0255	; 0x800255 <velocity+0x1f>
     cce:	20 e0       	ldi	r18, 0x00	; 0
     cd0:	30 e0       	ldi	r19, 0x00	; 0
     cd2:	40 e7       	ldi	r20, 0x70	; 112
     cd4:	52 e4       	ldi	r21, 0x42	; 66
     cd6:	0e 94 a0 16 	call	0x2d40	; 0x2d40 <__cmpsf2>
     cda:	87 ff       	sbrs	r24, 7
     cdc:	1d c0       	rjmp	.+58     	; 0xd18 <_Z20compute_velocity_PIDv+0x130>
     cde:	10 c0       	rjmp	.+32     	; 0xd00 <_Z20compute_velocity_PIDv+0x118>
     ce0:	60 91 52 02 	lds	r22, 0x0252	; 0x800252 <velocity+0x1c>
     ce4:	70 91 53 02 	lds	r23, 0x0253	; 0x800253 <velocity+0x1d>
     ce8:	80 91 54 02 	lds	r24, 0x0254	; 0x800254 <velocity+0x1e>
     cec:	90 91 55 02 	lds	r25, 0x0255	; 0x800255 <velocity+0x1f>
     cf0:	20 e0       	ldi	r18, 0x00	; 0
     cf2:	30 e0       	ldi	r19, 0x00	; 0
     cf4:	40 e7       	ldi	r20, 0x70	; 112
     cf6:	52 ec       	ldi	r21, 0xC2	; 194
     cf8:	0e 94 14 18 	call	0x3028	; 0x3028 <__gesf2>
     cfc:	18 16       	cp	r1, r24
     cfe:	64 f4       	brge	.+24     	; 0xd18 <_Z20compute_velocity_PIDv+0x130>
     d00:	80 e0       	ldi	r24, 0x00	; 0
     d02:	90 e0       	ldi	r25, 0x00	; 0
     d04:	a0 e2       	ldi	r26, 0x20	; 32
     d06:	b0 e4       	ldi	r27, 0x40	; 64
     d08:	80 93 a7 02 	sts	0x02A7, r24	; 0x8002a7 <max_angle_vel>
     d0c:	90 93 a8 02 	sts	0x02A8, r25	; 0x8002a8 <max_angle_vel+0x1>
     d10:	a0 93 a9 02 	sts	0x02A9, r26	; 0x8002a9 <max_angle_vel+0x2>
     d14:	b0 93 aa 02 	sts	0x02AA, r27	; 0x8002aa <max_angle_vel+0x3>
		if (abs(velocity.error) >= 60) max_angle_vel = 4;
     d18:	60 91 52 02 	lds	r22, 0x0252	; 0x800252 <velocity+0x1c>
     d1c:	70 91 53 02 	lds	r23, 0x0253	; 0x800253 <velocity+0x1d>
     d20:	80 91 54 02 	lds	r24, 0x0254	; 0x800254 <velocity+0x1e>
     d24:	90 91 55 02 	lds	r25, 0x0255	; 0x800255 <velocity+0x1f>
     d28:	20 e0       	ldi	r18, 0x00	; 0
     d2a:	30 e0       	ldi	r19, 0x00	; 0
     d2c:	a9 01       	movw	r20, r18
     d2e:	0e 94 14 18 	call	0x3028	; 0x3028 <__gesf2>
     d32:	18 16       	cp	r1, r24
     d34:	8c f4       	brge	.+34     	; 0xd58 <_Z20compute_velocity_PIDv+0x170>
     d36:	60 91 52 02 	lds	r22, 0x0252	; 0x800252 <velocity+0x1c>
     d3a:	70 91 53 02 	lds	r23, 0x0253	; 0x800253 <velocity+0x1d>
     d3e:	80 91 54 02 	lds	r24, 0x0254	; 0x800254 <velocity+0x1e>
     d42:	90 91 55 02 	lds	r25, 0x0255	; 0x800255 <velocity+0x1f>
     d46:	20 e0       	ldi	r18, 0x00	; 0
     d48:	30 e0       	ldi	r19, 0x00	; 0
     d4a:	40 e7       	ldi	r20, 0x70	; 112
     d4c:	52 e4       	ldi	r21, 0x42	; 66
     d4e:	0e 94 14 18 	call	0x3028	; 0x3028 <__gesf2>
     d52:	87 ff       	sbrs	r24, 7
     d54:	11 c0       	rjmp	.+34     	; 0xd78 <_Z20compute_velocity_PIDv+0x190>
     d56:	3a c0       	rjmp	.+116    	; 0xdcc <_Z20compute_velocity_PIDv+0x1e4>
     d58:	60 91 52 02 	lds	r22, 0x0252	; 0x800252 <velocity+0x1c>
     d5c:	70 91 53 02 	lds	r23, 0x0253	; 0x800253 <velocity+0x1d>
     d60:	80 91 54 02 	lds	r24, 0x0254	; 0x800254 <velocity+0x1e>
     d64:	90 91 55 02 	lds	r25, 0x0255	; 0x800255 <velocity+0x1f>
     d68:	20 e0       	ldi	r18, 0x00	; 0
     d6a:	30 e0       	ldi	r19, 0x00	; 0
     d6c:	40 e7       	ldi	r20, 0x70	; 112
     d6e:	52 ec       	ldi	r21, 0xC2	; 194
     d70:	0e 94 a0 16 	call	0x2d40	; 0x2d40 <__cmpsf2>
     d74:	18 16       	cp	r1, r24
     d76:	54 f1       	brlt	.+84     	; 0xdcc <_Z20compute_velocity_PIDv+0x1e4>
     d78:	80 e0       	ldi	r24, 0x00	; 0
     d7a:	90 e0       	ldi	r25, 0x00	; 0
     d7c:	a0 e8       	ldi	r26, 0x80	; 128
     d7e:	b0 e4       	ldi	r27, 0x40	; 64
     d80:	1d c0       	rjmp	.+58     	; 0xdbc <_Z20compute_velocity_PIDv+0x1d4>
	}
	
	// Slope
	else if (SLOPE_FLAG)
     d82:	80 91 22 05 	lds	r24, 0x0522	; 0x800522 <__data_end>
     d86:	88 23       	and	r24, r24
     d88:	69 f0       	breq	.+26     	; 0xda4 <_Z20compute_velocity_PIDv+0x1bc>
	{
		velocity_KP = velocity.agr_KP;
     d8a:	80 90 42 02 	lds	r8, 0x0242	; 0x800242 <velocity+0xc>
     d8e:	90 90 43 02 	lds	r9, 0x0243	; 0x800243 <velocity+0xd>
     d92:	a0 90 44 02 	lds	r10, 0x0244	; 0x800244 <velocity+0xe>
     d96:	b0 90 45 02 	lds	r11, 0x0245	; 0x800245 <velocity+0xf>
		max_angle_vel = 6;
     d9a:	80 e0       	ldi	r24, 0x00	; 0
     d9c:	90 e0       	ldi	r25, 0x00	; 0
     d9e:	a0 ec       	ldi	r26, 0xC0	; 192
     da0:	b0 e4       	ldi	r27, 0x40	; 64
     da2:	0c c0       	rjmp	.+24     	; 0xdbc <_Z20compute_velocity_PIDv+0x1d4>
	}
	
	// Static balance
	else
	{
		velocity_KP = velocity.con_KP;
     da4:	80 90 36 02 	lds	r8, 0x0236	; 0x800236 <velocity>
     da8:	90 90 37 02 	lds	r9, 0x0237	; 0x800237 <velocity+0x1>
     dac:	a0 90 38 02 	lds	r10, 0x0238	; 0x800238 <velocity+0x2>
     db0:	b0 90 39 02 	lds	r11, 0x0239	; 0x800239 <velocity+0x3>
		max_angle_vel = 2;
     db4:	80 e0       	ldi	r24, 0x00	; 0
     db6:	90 e0       	ldi	r25, 0x00	; 0
     db8:	a0 e0       	ldi	r26, 0x00	; 0
     dba:	b0 e4       	ldi	r27, 0x40	; 64
     dbc:	80 93 a7 02 	sts	0x02A7, r24	; 0x8002a7 <max_angle_vel>
     dc0:	90 93 a8 02 	sts	0x02A8, r25	; 0x8002a8 <max_angle_vel+0x1>
     dc4:	a0 93 a9 02 	sts	0x02A9, r26	; 0x8002a9 <max_angle_vel+0x2>
     dc8:	b0 93 aa 02 	sts	0x02AA, r27	; 0x8002aa <max_angle_vel+0x3>
	}
	
	// Compute derivative
	velocity.derivative = velocity.position - velocity.last_position;
     dcc:	60 91 56 02 	lds	r22, 0x0256	; 0x800256 <velocity+0x20>
     dd0:	70 91 57 02 	lds	r23, 0x0257	; 0x800257 <velocity+0x21>
     dd4:	80 91 58 02 	lds	r24, 0x0258	; 0x800258 <velocity+0x22>
     dd8:	90 91 59 02 	lds	r25, 0x0259	; 0x800259 <velocity+0x23>
     ddc:	20 91 5a 02 	lds	r18, 0x025A	; 0x80025a <velocity+0x24>
     de0:	30 91 5b 02 	lds	r19, 0x025B	; 0x80025b <velocity+0x25>
     de4:	40 91 5c 02 	lds	r20, 0x025C	; 0x80025c <velocity+0x26>
     de8:	50 91 5d 02 	lds	r21, 0x025D	; 0x80025d <velocity+0x27>
     dec:	0e 94 d9 15 	call	0x2bb2	; 0x2bb2 <__subsf3>
     df0:	60 93 62 02 	sts	0x0262, r22	; 0x800262 <velocity+0x2c>
     df4:	70 93 63 02 	sts	0x0263, r23	; 0x800263 <velocity+0x2d>
     df8:	80 93 64 02 	sts	0x0264, r24	; 0x800264 <velocity+0x2e>
     dfc:	90 93 65 02 	sts	0x0265, r25	; 0x800265 <velocity+0x2f>

	// Compute integral and prevent wind-up	
	velocity.integral += velocity.con_KI*0.001*velocity.error;
     e00:	60 91 3a 02 	lds	r22, 0x023A	; 0x80023a <velocity+0x4>
     e04:	70 91 3b 02 	lds	r23, 0x023B	; 0x80023b <velocity+0x5>
     e08:	80 91 3c 02 	lds	r24, 0x023C	; 0x80023c <velocity+0x6>
     e0c:	90 91 3d 02 	lds	r25, 0x023D	; 0x80023d <velocity+0x7>
     e10:	40 90 52 02 	lds	r4, 0x0252	; 0x800252 <velocity+0x1c>
     e14:	50 90 53 02 	lds	r5, 0x0253	; 0x800253 <velocity+0x1d>
     e18:	60 90 54 02 	lds	r6, 0x0254	; 0x800254 <velocity+0x1e>
     e1c:	70 90 55 02 	lds	r7, 0x0255	; 0x800255 <velocity+0x1f>
     e20:	c0 90 5e 02 	lds	r12, 0x025E	; 0x80025e <velocity+0x28>
     e24:	d0 90 5f 02 	lds	r13, 0x025F	; 0x80025f <velocity+0x29>
     e28:	e0 90 60 02 	lds	r14, 0x0260	; 0x800260 <velocity+0x2a>
     e2c:	f0 90 61 02 	lds	r15, 0x0261	; 0x800261 <velocity+0x2b>
     e30:	2f e6       	ldi	r18, 0x6F	; 111
     e32:	32 e1       	ldi	r19, 0x12	; 18
     e34:	43 e8       	ldi	r20, 0x83	; 131
     e36:	5a e3       	ldi	r21, 0x3A	; 58
     e38:	0e 94 1f 18 	call	0x303e	; 0x303e <__mulsf3>
     e3c:	a3 01       	movw	r20, r6
     e3e:	92 01       	movw	r18, r4
     e40:	0e 94 1f 18 	call	0x303e	; 0x303e <__mulsf3>
     e44:	9b 01       	movw	r18, r22
     e46:	ac 01       	movw	r20, r24
     e48:	c7 01       	movw	r24, r14
     e4a:	b6 01       	movw	r22, r12
     e4c:	0e 94 da 15 	call	0x2bb4	; 0x2bb4 <__addsf3>
     e50:	60 93 5e 02 	sts	0x025E, r22	; 0x80025e <velocity+0x28>
     e54:	70 93 5f 02 	sts	0x025F, r23	; 0x80025f <velocity+0x29>
     e58:	80 93 60 02 	sts	0x0260, r24	; 0x800260 <velocity+0x2a>
     e5c:	90 93 61 02 	sts	0x0261, r25	; 0x800261 <velocity+0x2b>
	velocity.integral = constrain(velocity.integral, -max_angle_vel, max_angle_vel);
     e60:	60 91 5e 02 	lds	r22, 0x025E	; 0x80025e <velocity+0x28>
     e64:	70 91 5f 02 	lds	r23, 0x025F	; 0x80025f <velocity+0x29>
     e68:	80 91 60 02 	lds	r24, 0x0260	; 0x800260 <velocity+0x2a>
     e6c:	90 91 61 02 	lds	r25, 0x0261	; 0x800261 <velocity+0x2b>
     e70:	c0 90 a7 02 	lds	r12, 0x02A7	; 0x8002a7 <max_angle_vel>
     e74:	d0 90 a8 02 	lds	r13, 0x02A8	; 0x8002a8 <max_angle_vel+0x1>
     e78:	e0 90 a9 02 	lds	r14, 0x02A9	; 0x8002a9 <max_angle_vel+0x2>
     e7c:	f0 90 aa 02 	lds	r15, 0x02AA	; 0x8002aa <max_angle_vel+0x3>
     e80:	26 01       	movw	r4, r12
     e82:	37 01       	movw	r6, r14
     e84:	77 fa       	bst	r7, 7
     e86:	70 94       	com	r7
     e88:	77 f8       	bld	r7, 7
     e8a:	70 94       	com	r7
     e8c:	a3 01       	movw	r20, r6
     e8e:	92 01       	movw	r18, r4
     e90:	0e 94 a0 16 	call	0x2d40	; 0x2d40 <__cmpsf2>
     e94:	87 fd       	sbrc	r24, 7
     e96:	17 c0       	rjmp	.+46     	; 0xec6 <_Z20compute_velocity_PIDv+0x2de>
     e98:	60 91 5e 02 	lds	r22, 0x025E	; 0x80025e <velocity+0x28>
     e9c:	70 91 5f 02 	lds	r23, 0x025F	; 0x80025f <velocity+0x29>
     ea0:	80 91 60 02 	lds	r24, 0x0260	; 0x800260 <velocity+0x2a>
     ea4:	90 91 61 02 	lds	r25, 0x0261	; 0x800261 <velocity+0x2b>
     ea8:	a7 01       	movw	r20, r14
     eaa:	96 01       	movw	r18, r12
     eac:	0e 94 14 18 	call	0x3028	; 0x3028 <__gesf2>
     eb0:	18 16       	cp	r1, r24
     eb2:	64 f0       	brlt	.+24     	; 0xecc <_Z20compute_velocity_PIDv+0x2e4>
     eb4:	80 91 5e 02 	lds	r24, 0x025E	; 0x80025e <velocity+0x28>
     eb8:	90 91 5f 02 	lds	r25, 0x025F	; 0x80025f <velocity+0x29>
     ebc:	a0 91 60 02 	lds	r26, 0x0260	; 0x800260 <velocity+0x2a>
     ec0:	b0 91 61 02 	lds	r27, 0x0261	; 0x800261 <velocity+0x2b>
     ec4:	05 c0       	rjmp	.+10     	; 0xed0 <_Z20compute_velocity_PIDv+0x2e8>
     ec6:	d3 01       	movw	r26, r6
     ec8:	c2 01       	movw	r24, r4
     eca:	02 c0       	rjmp	.+4      	; 0xed0 <_Z20compute_velocity_PIDv+0x2e8>
     ecc:	d7 01       	movw	r26, r14
     ece:	c6 01       	movw	r24, r12
     ed0:	80 93 5e 02 	sts	0x025E, r24	; 0x80025e <velocity+0x28>
     ed4:	90 93 5f 02 	sts	0x025F, r25	; 0x80025f <velocity+0x29>
     ed8:	a0 93 60 02 	sts	0x0260, r26	; 0x800260 <velocity+0x2a>
     edc:	b0 93 61 02 	sts	0x0261, r27	; 0x800261 <velocity+0x2b>

	// Compute velocity PID output
	velocity.output = (velocity_KP*0.001*velocity.error) + velocity.integral - (velocity.con_KD*0.001*velocity.derivative);
     ee0:	80 91 52 02 	lds	r24, 0x0252	; 0x800252 <velocity+0x1c>
     ee4:	90 91 53 02 	lds	r25, 0x0253	; 0x800253 <velocity+0x1d>
     ee8:	a0 91 54 02 	lds	r26, 0x0254	; 0x800254 <velocity+0x1e>
     eec:	b0 91 55 02 	lds	r27, 0x0255	; 0x800255 <velocity+0x1f>
     ef0:	89 83       	std	Y+1, r24	; 0x01
     ef2:	9a 83       	std	Y+2, r25	; 0x02
     ef4:	ab 83       	std	Y+3, r26	; 0x03
     ef6:	bc 83       	std	Y+4, r27	; 0x04
     ef8:	80 91 5e 02 	lds	r24, 0x025E	; 0x80025e <velocity+0x28>
     efc:	90 91 5f 02 	lds	r25, 0x025F	; 0x80025f <velocity+0x29>
     f00:	a0 91 60 02 	lds	r26, 0x0260	; 0x800260 <velocity+0x2a>
     f04:	b0 91 61 02 	lds	r27, 0x0261	; 0x800261 <velocity+0x2b>
     f08:	8d 83       	std	Y+5, r24	; 0x05
     f0a:	9e 83       	std	Y+6, r25	; 0x06
     f0c:	af 83       	std	Y+7, r26	; 0x07
     f0e:	b8 87       	std	Y+8, r27	; 0x08
     f10:	80 91 3e 02 	lds	r24, 0x023E	; 0x80023e <velocity+0x8>
     f14:	90 91 3f 02 	lds	r25, 0x023F	; 0x80023f <velocity+0x9>
     f18:	a0 91 40 02 	lds	r26, 0x0240	; 0x800240 <velocity+0xa>
     f1c:	b0 91 41 02 	lds	r27, 0x0241	; 0x800241 <velocity+0xb>
     f20:	89 87       	std	Y+9, r24	; 0x09
     f22:	9a 87       	std	Y+10, r25	; 0x0a
     f24:	ab 87       	std	Y+11, r26	; 0x0b
     f26:	bc 87       	std	Y+12, r27	; 0x0c
     f28:	80 91 62 02 	lds	r24, 0x0262	; 0x800262 <velocity+0x2c>
     f2c:	90 91 63 02 	lds	r25, 0x0263	; 0x800263 <velocity+0x2d>
     f30:	a0 91 64 02 	lds	r26, 0x0264	; 0x800264 <velocity+0x2e>
     f34:	b0 91 65 02 	lds	r27, 0x0265	; 0x800265 <velocity+0x2f>
     f38:	8d 87       	std	Y+13, r24	; 0x0d
     f3a:	9e 87       	std	Y+14, r25	; 0x0e
     f3c:	af 87       	std	Y+15, r26	; 0x0f
     f3e:	b8 8b       	std	Y+16, r27	; 0x10
     f40:	2f e6       	ldi	r18, 0x6F	; 111
     f42:	32 e1       	ldi	r19, 0x12	; 18
     f44:	43 e8       	ldi	r20, 0x83	; 131
     f46:	5a e3       	ldi	r21, 0x3A	; 58
     f48:	c5 01       	movw	r24, r10
     f4a:	b4 01       	movw	r22, r8
     f4c:	0e 94 1f 18 	call	0x303e	; 0x303e <__mulsf3>
     f50:	29 81       	ldd	r18, Y+1	; 0x01
     f52:	3a 81       	ldd	r19, Y+2	; 0x02
     f54:	4b 81       	ldd	r20, Y+3	; 0x03
     f56:	5c 81       	ldd	r21, Y+4	; 0x04
     f58:	0e 94 1f 18 	call	0x303e	; 0x303e <__mulsf3>
     f5c:	2d 81       	ldd	r18, Y+5	; 0x05
     f5e:	3e 81       	ldd	r19, Y+6	; 0x06
     f60:	4f 81       	ldd	r20, Y+7	; 0x07
     f62:	58 85       	ldd	r21, Y+8	; 0x08
     f64:	0e 94 da 15 	call	0x2bb4	; 0x2bb4 <__addsf3>
     f68:	4b 01       	movw	r8, r22
     f6a:	5c 01       	movw	r10, r24
     f6c:	2f e6       	ldi	r18, 0x6F	; 111
     f6e:	32 e1       	ldi	r19, 0x12	; 18
     f70:	43 e8       	ldi	r20, 0x83	; 131
     f72:	5a e3       	ldi	r21, 0x3A	; 58
     f74:	69 85       	ldd	r22, Y+9	; 0x09
     f76:	7a 85       	ldd	r23, Y+10	; 0x0a
     f78:	8b 85       	ldd	r24, Y+11	; 0x0b
     f7a:	9c 85       	ldd	r25, Y+12	; 0x0c
     f7c:	0e 94 1f 18 	call	0x303e	; 0x303e <__mulsf3>
     f80:	2d 85       	ldd	r18, Y+13	; 0x0d
     f82:	3e 85       	ldd	r19, Y+14	; 0x0e
     f84:	4f 85       	ldd	r20, Y+15	; 0x0f
     f86:	58 89       	ldd	r21, Y+16	; 0x10
     f88:	0e 94 1f 18 	call	0x303e	; 0x303e <__mulsf3>
     f8c:	9b 01       	movw	r18, r22
     f8e:	ac 01       	movw	r20, r24
     f90:	c5 01       	movw	r24, r10
     f92:	b4 01       	movw	r22, r8
     f94:	0e 94 d9 15 	call	0x2bb2	; 0x2bb2 <__subsf3>
     f98:	60 93 66 02 	sts	0x0266, r22	; 0x800266 <velocity+0x30>
     f9c:	70 93 67 02 	sts	0x0267, r23	; 0x800267 <velocity+0x31>
     fa0:	80 93 68 02 	sts	0x0268, r24	; 0x800268 <velocity+0x32>
     fa4:	90 93 69 02 	sts	0x0269, r25	; 0x800269 <velocity+0x33>
	
	// Constrain velocity PID output to PWM range
	velocity.output = velocity.direction * constrain(velocity.output, -max_angle_vel, max_angle_vel);
     fa8:	60 91 6a 02 	lds	r22, 0x026A	; 0x80026a <velocity+0x34>
     fac:	70 91 6b 02 	lds	r23, 0x026B	; 0x80026b <velocity+0x35>
     fb0:	07 2e       	mov	r0, r23
     fb2:	00 0c       	add	r0, r0
     fb4:	88 0b       	sbc	r24, r24
     fb6:	99 0b       	sbc	r25, r25
     fb8:	0e 94 3f 17 	call	0x2e7e	; 0x2e7e <__floatsisf>
     fbc:	4b 01       	movw	r8, r22
     fbe:	5c 01       	movw	r10, r24
     fc0:	60 91 66 02 	lds	r22, 0x0266	; 0x800266 <velocity+0x30>
     fc4:	70 91 67 02 	lds	r23, 0x0267	; 0x800267 <velocity+0x31>
     fc8:	80 91 68 02 	lds	r24, 0x0268	; 0x800268 <velocity+0x32>
     fcc:	90 91 69 02 	lds	r25, 0x0269	; 0x800269 <velocity+0x33>
     fd0:	a3 01       	movw	r20, r6
     fd2:	92 01       	movw	r18, r4
     fd4:	0e 94 a0 16 	call	0x2d40	; 0x2d40 <__cmpsf2>
     fd8:	87 fd       	sbrc	r24, 7
     fda:	17 c0       	rjmp	.+46     	; 0x100a <_Z20compute_velocity_PIDv+0x422>
     fdc:	60 91 66 02 	lds	r22, 0x0266	; 0x800266 <velocity+0x30>
     fe0:	70 91 67 02 	lds	r23, 0x0267	; 0x800267 <velocity+0x31>
     fe4:	80 91 68 02 	lds	r24, 0x0268	; 0x800268 <velocity+0x32>
     fe8:	90 91 69 02 	lds	r25, 0x0269	; 0x800269 <velocity+0x33>
     fec:	a7 01       	movw	r20, r14
     fee:	96 01       	movw	r18, r12
     ff0:	0e 94 14 18 	call	0x3028	; 0x3028 <__gesf2>
     ff4:	18 16       	cp	r1, r24
     ff6:	5c f0       	brlt	.+22     	; 0x100e <_Z20compute_velocity_PIDv+0x426>
     ff8:	c0 90 66 02 	lds	r12, 0x0266	; 0x800266 <velocity+0x30>
     ffc:	d0 90 67 02 	lds	r13, 0x0267	; 0x800267 <velocity+0x31>
    1000:	e0 90 68 02 	lds	r14, 0x0268	; 0x800268 <velocity+0x32>
    1004:	f0 90 69 02 	lds	r15, 0x0269	; 0x800269 <velocity+0x33>
    1008:	02 c0       	rjmp	.+4      	; 0x100e <_Z20compute_velocity_PIDv+0x426>
    100a:	73 01       	movw	r14, r6
    100c:	62 01       	movw	r12, r4
    100e:	a7 01       	movw	r20, r14
    1010:	96 01       	movw	r18, r12
    1012:	c5 01       	movw	r24, r10
    1014:	b4 01       	movw	r22, r8
    1016:	0e 94 1f 18 	call	0x303e	; 0x303e <__mulsf3>
    101a:	60 93 66 02 	sts	0x0266, r22	; 0x800266 <velocity+0x30>
    101e:	70 93 67 02 	sts	0x0267, r23	; 0x800267 <velocity+0x31>
    1022:	80 93 68 02 	sts	0x0268, r24	; 0x800268 <velocity+0x32>
    1026:	90 93 69 02 	sts	0x0269, r25	; 0x800269 <velocity+0x33>
	
	// Store current velocity for next iteration
	velocity.last_position = velocity.position;
    102a:	80 91 56 02 	lds	r24, 0x0256	; 0x800256 <velocity+0x20>
    102e:	90 91 57 02 	lds	r25, 0x0257	; 0x800257 <velocity+0x21>
    1032:	a0 91 58 02 	lds	r26, 0x0258	; 0x800258 <velocity+0x22>
    1036:	b0 91 59 02 	lds	r27, 0x0259	; 0x800259 <velocity+0x23>
    103a:	80 93 5a 02 	sts	0x025A, r24	; 0x80025a <velocity+0x24>
    103e:	90 93 5b 02 	sts	0x025B, r25	; 0x80025b <velocity+0x25>
    1042:	a0 93 5c 02 	sts	0x025C, r26	; 0x80025c <velocity+0x26>
    1046:	b0 93 5d 02 	sts	0x025D, r27	; 0x80025d <velocity+0x27>
}
    104a:	60 96       	adiw	r28, 0x10	; 16
    104c:	0f b6       	in	r0, 0x3f	; 63
    104e:	f8 94       	cli
    1050:	de bf       	out	0x3e, r29	; 62
    1052:	0f be       	out	0x3f, r0	; 63
    1054:	cd bf       	out	0x3d, r28	; 61
    1056:	df 91       	pop	r29
    1058:	cf 91       	pop	r28
    105a:	ff 90       	pop	r15
    105c:	ef 90       	pop	r14
    105e:	df 90       	pop	r13
    1060:	cf 90       	pop	r12
    1062:	bf 90       	pop	r11
    1064:	af 90       	pop	r10
    1066:	9f 90       	pop	r9
    1068:	8f 90       	pop	r8
    106a:	7f 90       	pop	r7
    106c:	6f 90       	pop	r6
    106e:	5f 90       	pop	r5
    1070:	4f 90       	pop	r4
    1072:	08 95       	ret

00001074 <_Z19compute_encoder_PIDv>:
Arguments		:	None
Return Value	:	None
Example Call	:	compute_encoder_PID()
***********************************/
void compute_encoder_PID()
{
    1074:	4f 92       	push	r4
    1076:	5f 92       	push	r5
    1078:	6f 92       	push	r6
    107a:	7f 92       	push	r7
    107c:	8f 92       	push	r8
    107e:	9f 92       	push	r9
    1080:	af 92       	push	r10
    1082:	bf 92       	push	r11
    1084:	cf 92       	push	r12
    1086:	df 92       	push	r13
    1088:	ef 92       	push	r14
    108a:	ff 92       	push	r15
	float encoder_KP = 0;
	
	// Get current encoder position
	encoder.position = encoder_count();
    108c:	89 da       	rcall	.-2798   	; 0x5a0 <_Z13encoder_countv>
    108e:	60 93 20 02 	sts	0x0220, r22	; 0x800220 <__data_start+0x20>
    1092:	70 93 21 02 	sts	0x0221, r23	; 0x800221 <__data_start+0x21>
    1096:	80 93 22 02 	sts	0x0222, r24	; 0x800222 <__data_start+0x22>
    109a:	90 93 23 02 	sts	0x0223, r25	; 0x800223 <__data_start+0x23>
	
	// Compute position error
	encoder.error = encoder.set_point - encoder.position;
    109e:	60 91 18 02 	lds	r22, 0x0218	; 0x800218 <__data_start+0x18>
    10a2:	70 91 19 02 	lds	r23, 0x0219	; 0x800219 <__data_start+0x19>
    10a6:	80 91 1a 02 	lds	r24, 0x021A	; 0x80021a <__data_start+0x1a>
    10aa:	90 91 1b 02 	lds	r25, 0x021B	; 0x80021b <__data_start+0x1b>
    10ae:	20 91 20 02 	lds	r18, 0x0220	; 0x800220 <__data_start+0x20>
    10b2:	30 91 21 02 	lds	r19, 0x0221	; 0x800221 <__data_start+0x21>
    10b6:	40 91 22 02 	lds	r20, 0x0222	; 0x800222 <__data_start+0x22>
    10ba:	50 91 23 02 	lds	r21, 0x0223	; 0x800223 <__data_start+0x23>
    10be:	0e 94 d9 15 	call	0x2bb2	; 0x2bb2 <__subsf3>
    10c2:	60 93 1c 02 	sts	0x021C, r22	; 0x80021c <__data_start+0x1c>
    10c6:	70 93 1d 02 	sts	0x021D, r23	; 0x80021d <__data_start+0x1d>
    10ca:	80 93 1e 02 	sts	0x021E, r24	; 0x80021e <__data_start+0x1e>
    10ce:	90 93 1f 02 	sts	0x021F, r25	; 0x80021f <__data_start+0x1f>
	
	// Normal motion
	if (!STOP_FLAG)
    10d2:	80 91 a2 02 	lds	r24, 0x02A2	; 0x8002a2 <STOP_FLAG>
    10d6:	81 11       	cpse	r24, r1
    10d8:	09 c0       	rjmp	.+18     	; 0x10ec <_Z19compute_encoder_PIDv+0x78>
	{
		encoder_KP = encoder.con_KP;
    10da:	60 91 00 02 	lds	r22, 0x0200	; 0x800200 <__data_start>
    10de:	70 91 01 02 	lds	r23, 0x0201	; 0x800201 <__data_start+0x1>
    10e2:	80 91 02 02 	lds	r24, 0x0202	; 0x800202 <__data_start+0x2>
    10e6:	90 91 03 02 	lds	r25, 0x0203	; 0x800203 <__data_start+0x3>
    10ea:	1b c0       	rjmp	.+54     	; 0x1122 <_Z19compute_encoder_PIDv+0xae>
		max_angle_enc = 2;
	}
	
	// Slope
	else if (SLOPE_FLAG)
    10ec:	80 91 22 05 	lds	r24, 0x0522	; 0x800522 <__data_end>
    10f0:	88 23       	and	r24, r24
    10f2:	79 f0       	breq	.+30     	; 0x1112 <_Z19compute_encoder_PIDv+0x9e>
	{
		encoder_KP = encoder.con_KP;
    10f4:	60 91 00 02 	lds	r22, 0x0200	; 0x800200 <__data_start>
    10f8:	70 91 01 02 	lds	r23, 0x0201	; 0x800201 <__data_start+0x1>
    10fc:	80 91 02 02 	lds	r24, 0x0202	; 0x800202 <__data_start+0x2>
    1100:	90 91 03 02 	lds	r25, 0x0203	; 0x800203 <__data_start+0x3>
		max_angle_enc = 4;
    1104:	c1 2c       	mov	r12, r1
    1106:	d1 2c       	mov	r13, r1
    1108:	30 e8       	ldi	r19, 0x80	; 128
    110a:	e3 2e       	mov	r14, r19
    110c:	30 e4       	ldi	r19, 0x40	; 64
    110e:	f3 2e       	mov	r15, r19
    1110:	0d c0       	rjmp	.+26     	; 0x112c <_Z19compute_encoder_PIDv+0xb8>
	}
	
	// Static balance
	else
	{
		encoder_KP = encoder.agr_KP;
    1112:	60 91 0c 02 	lds	r22, 0x020C	; 0x80020c <__data_start+0xc>
    1116:	70 91 0d 02 	lds	r23, 0x020D	; 0x80020d <__data_start+0xd>
    111a:	80 91 0e 02 	lds	r24, 0x020E	; 0x80020e <__data_start+0xe>
    111e:	90 91 0f 02 	lds	r25, 0x020F	; 0x80020f <__data_start+0xf>
		max_angle_enc = 2;
    1122:	c1 2c       	mov	r12, r1
    1124:	d1 2c       	mov	r13, r1
    1126:	e1 2c       	mov	r14, r1
    1128:	20 e4       	ldi	r18, 0x40	; 64
    112a:	f2 2e       	mov	r15, r18
    112c:	c0 92 a3 02 	sts	0x02A3, r12	; 0x8002a3 <max_angle_enc>
    1130:	d0 92 a4 02 	sts	0x02A4, r13	; 0x8002a4 <max_angle_enc+0x1>
    1134:	e0 92 a5 02 	sts	0x02A5, r14	; 0x8002a5 <max_angle_enc+0x2>
    1138:	f0 92 a6 02 	sts	0x02A6, r15	; 0x8002a6 <max_angle_enc+0x3>
	}

	// Compute encoder PID output
	encoder.output = (encoder_KP*encoder.error*0.0001);
    113c:	20 91 1c 02 	lds	r18, 0x021C	; 0x80021c <__data_start+0x1c>
    1140:	30 91 1d 02 	lds	r19, 0x021D	; 0x80021d <__data_start+0x1d>
    1144:	40 91 1e 02 	lds	r20, 0x021E	; 0x80021e <__data_start+0x1e>
    1148:	50 91 1f 02 	lds	r21, 0x021F	; 0x80021f <__data_start+0x1f>
    114c:	0e 94 1f 18 	call	0x303e	; 0x303e <__mulsf3>
    1150:	27 e1       	ldi	r18, 0x17	; 23
    1152:	37 eb       	ldi	r19, 0xB7	; 183
    1154:	41 ed       	ldi	r20, 0xD1	; 209
    1156:	58 e3       	ldi	r21, 0x38	; 56
    1158:	0e 94 1f 18 	call	0x303e	; 0x303e <__mulsf3>
    115c:	60 93 30 02 	sts	0x0230, r22	; 0x800230 <__data_start+0x30>
    1160:	70 93 31 02 	sts	0x0231, r23	; 0x800231 <__data_start+0x31>
    1164:	80 93 32 02 	sts	0x0232, r24	; 0x800232 <__data_start+0x32>
    1168:	90 93 33 02 	sts	0x0233, r25	; 0x800233 <__data_start+0x33>
	
	// Constrain the encoder PID output
	encoder.output = encoder.direction * constrain(encoder.output, -max_angle_enc, max_angle_enc);
    116c:	60 91 34 02 	lds	r22, 0x0234	; 0x800234 <__data_start+0x34>
    1170:	70 91 35 02 	lds	r23, 0x0235	; 0x800235 <__data_start+0x35>
    1174:	07 2e       	mov	r0, r23
    1176:	00 0c       	add	r0, r0
    1178:	88 0b       	sbc	r24, r24
    117a:	99 0b       	sbc	r25, r25
    117c:	0e 94 3f 17 	call	0x2e7e	; 0x2e7e <__floatsisf>
    1180:	2b 01       	movw	r4, r22
    1182:	3c 01       	movw	r6, r24
    1184:	60 91 30 02 	lds	r22, 0x0230	; 0x800230 <__data_start+0x30>
    1188:	70 91 31 02 	lds	r23, 0x0231	; 0x800231 <__data_start+0x31>
    118c:	80 91 32 02 	lds	r24, 0x0232	; 0x800232 <__data_start+0x32>
    1190:	90 91 33 02 	lds	r25, 0x0233	; 0x800233 <__data_start+0x33>
    1194:	c0 90 a3 02 	lds	r12, 0x02A3	; 0x8002a3 <max_angle_enc>
    1198:	d0 90 a4 02 	lds	r13, 0x02A4	; 0x8002a4 <max_angle_enc+0x1>
    119c:	e0 90 a5 02 	lds	r14, 0x02A5	; 0x8002a5 <max_angle_enc+0x2>
    11a0:	f0 90 a6 02 	lds	r15, 0x02A6	; 0x8002a6 <max_angle_enc+0x3>
    11a4:	46 01       	movw	r8, r12
    11a6:	57 01       	movw	r10, r14
    11a8:	b7 fa       	bst	r11, 7
    11aa:	b0 94       	com	r11
    11ac:	b7 f8       	bld	r11, 7
    11ae:	b0 94       	com	r11
    11b0:	a5 01       	movw	r20, r10
    11b2:	94 01       	movw	r18, r8
    11b4:	0e 94 a0 16 	call	0x2d40	; 0x2d40 <__cmpsf2>
    11b8:	87 fd       	sbrc	r24, 7
    11ba:	17 c0       	rjmp	.+46     	; 0x11ea <_Z19compute_encoder_PIDv+0x176>
    11bc:	60 91 30 02 	lds	r22, 0x0230	; 0x800230 <__data_start+0x30>
    11c0:	70 91 31 02 	lds	r23, 0x0231	; 0x800231 <__data_start+0x31>
    11c4:	80 91 32 02 	lds	r24, 0x0232	; 0x800232 <__data_start+0x32>
    11c8:	90 91 33 02 	lds	r25, 0x0233	; 0x800233 <__data_start+0x33>
    11cc:	a7 01       	movw	r20, r14
    11ce:	96 01       	movw	r18, r12
    11d0:	0e 94 14 18 	call	0x3028	; 0x3028 <__gesf2>
    11d4:	18 16       	cp	r1, r24
    11d6:	5c f0       	brlt	.+22     	; 0x11ee <_Z19compute_encoder_PIDv+0x17a>
    11d8:	c0 90 30 02 	lds	r12, 0x0230	; 0x800230 <__data_start+0x30>
    11dc:	d0 90 31 02 	lds	r13, 0x0231	; 0x800231 <__data_start+0x31>
    11e0:	e0 90 32 02 	lds	r14, 0x0232	; 0x800232 <__data_start+0x32>
    11e4:	f0 90 33 02 	lds	r15, 0x0233	; 0x800233 <__data_start+0x33>
    11e8:	02 c0       	rjmp	.+4      	; 0x11ee <_Z19compute_encoder_PIDv+0x17a>
    11ea:	75 01       	movw	r14, r10
    11ec:	64 01       	movw	r12, r8
    11ee:	a7 01       	movw	r20, r14
    11f0:	96 01       	movw	r18, r12
    11f2:	c3 01       	movw	r24, r6
    11f4:	b2 01       	movw	r22, r4
    11f6:	0e 94 1f 18 	call	0x303e	; 0x303e <__mulsf3>
    11fa:	60 93 30 02 	sts	0x0230, r22	; 0x800230 <__data_start+0x30>
    11fe:	70 93 31 02 	sts	0x0231, r23	; 0x800231 <__data_start+0x31>
    1202:	80 93 32 02 	sts	0x0232, r24	; 0x800232 <__data_start+0x32>
    1206:	90 93 33 02 	sts	0x0233, r25	; 0x800233 <__data_start+0x33>
	
	//if (abs(encoder.error) < 50) encoder.output = 0;	// For smoothing output
}
    120a:	ff 90       	pop	r15
    120c:	ef 90       	pop	r14
    120e:	df 90       	pop	r13
    1210:	cf 90       	pop	r12
    1212:	bf 90       	pop	r11
    1214:	af 90       	pop	r10
    1216:	9f 90       	pop	r9
    1218:	8f 90       	pop	r8
    121a:	7f 90       	pop	r7
    121c:	6f 90       	pop	r6
    121e:	5f 90       	pop	r5
    1220:	4f 90       	pop	r4
    1222:	08 95       	ret

00001224 <_Z17compute_angle_PIDv>:
Arguments		:	None
Return Value	:	None
Example Call	:	compute_angle_PID()
***********************************/
void compute_angle_PID()
{
    1224:	4f 92       	push	r4
    1226:	5f 92       	push	r5
    1228:	6f 92       	push	r6
    122a:	7f 92       	push	r7
    122c:	8f 92       	push	r8
    122e:	9f 92       	push	r9
    1230:	af 92       	push	r10
    1232:	bf 92       	push	r11
    1234:	cf 92       	push	r12
    1236:	df 92       	push	r13
    1238:	ef 92       	push	r14
    123a:	ff 92       	push	r15
    123c:	cf 93       	push	r28
    123e:	df 93       	push	r29
    1240:	cd b7       	in	r28, 0x3d	; 61
    1242:	de b7       	in	r29, 0x3e	; 62
    1244:	28 97       	sbiw	r28, 0x08	; 8
    1246:	0f b6       	in	r0, 0x3f	; 63
    1248:	f8 94       	cli
    124a:	de bf       	out	0x3e, r29	; 62
    124c:	0f be       	out	0x3f, r0	; 63
    124e:	cd bf       	out	0x3d, r28	; 61
	float angle_KP=0, angle_KI=0, angle_KD=0;
	float angle_position;
	
	// Obtain the current tilt angle and make a copy to avoid
	// abrupt changes during current PID computation loop
	angle_position = angle.position;
    1250:	80 91 8c 02 	lds	r24, 0x028C	; 0x80028c <angle+0x20>
    1254:	90 91 8d 02 	lds	r25, 0x028D	; 0x80028d <angle+0x21>
    1258:	a0 91 8e 02 	lds	r26, 0x028E	; 0x80028e <angle+0x22>
    125c:	b0 91 8f 02 	lds	r27, 0x028F	; 0x80028f <angle+0x23>
    1260:	89 83       	std	Y+1, r24	; 0x01
    1262:	9a 83       	std	Y+2, r25	; 0x02
    1264:	ab 83       	std	Y+3, r26	; 0x03
    1266:	bc 83       	std	Y+4, r27	; 0x04
	
	// Add all the offsets to the angle set-point
	angle.set_point = TILT_ANGLE_OFFSET + move_offset + slope_offset + encoder.output + velocity.output;
    1268:	80 90 30 02 	lds	r8, 0x0230	; 0x800230 <__data_start+0x30>
    126c:	90 90 31 02 	lds	r9, 0x0231	; 0x800231 <__data_start+0x31>
    1270:	a0 90 32 02 	lds	r10, 0x0232	; 0x800232 <__data_start+0x32>
    1274:	b0 90 33 02 	lds	r11, 0x0233	; 0x800233 <__data_start+0x33>
    1278:	c0 90 66 02 	lds	r12, 0x0266	; 0x800266 <velocity+0x30>
    127c:	d0 90 67 02 	lds	r13, 0x0267	; 0x800267 <velocity+0x31>
    1280:	e0 90 68 02 	lds	r14, 0x0268	; 0x800268 <velocity+0x32>
    1284:	f0 90 69 02 	lds	r15, 0x0269	; 0x800269 <velocity+0x33>
    1288:	23 ec       	ldi	r18, 0xC3	; 195
    128a:	35 ef       	ldi	r19, 0xF5	; 245
    128c:	48 ea       	ldi	r20, 0xA8	; 168
    128e:	5e e3       	ldi	r21, 0x3E	; 62
    1290:	60 91 48 05 	lds	r22, 0x0548	; 0x800548 <move_offset>
    1294:	70 91 49 05 	lds	r23, 0x0549	; 0x800549 <move_offset+0x1>
    1298:	80 91 4a 05 	lds	r24, 0x054A	; 0x80054a <move_offset+0x2>
    129c:	90 91 4b 05 	lds	r25, 0x054B	; 0x80054b <move_offset+0x3>
    12a0:	0e 94 d9 15 	call	0x2bb2	; 0x2bb2 <__subsf3>
    12a4:	20 91 4c 05 	lds	r18, 0x054C	; 0x80054c <slope_offset>
    12a8:	30 91 4d 05 	lds	r19, 0x054D	; 0x80054d <slope_offset+0x1>
    12ac:	40 91 4e 05 	lds	r20, 0x054E	; 0x80054e <slope_offset+0x2>
    12b0:	50 91 4f 05 	lds	r21, 0x054F	; 0x80054f <slope_offset+0x3>
    12b4:	0e 94 da 15 	call	0x2bb4	; 0x2bb4 <__addsf3>
    12b8:	a5 01       	movw	r20, r10
    12ba:	94 01       	movw	r18, r8
    12bc:	0e 94 da 15 	call	0x2bb4	; 0x2bb4 <__addsf3>
    12c0:	a7 01       	movw	r20, r14
    12c2:	96 01       	movw	r18, r12
    12c4:	0e 94 da 15 	call	0x2bb4	; 0x2bb4 <__addsf3>
    12c8:	60 93 84 02 	sts	0x0284, r22	; 0x800284 <angle+0x18>
    12cc:	70 93 85 02 	sts	0x0285, r23	; 0x800285 <angle+0x19>
    12d0:	80 93 86 02 	sts	0x0286, r24	; 0x800286 <angle+0x1a>
    12d4:	90 93 87 02 	sts	0x0287, r25	; 0x800287 <angle+0x1b>
	
	// Compute tilt angle error
	angle.error = angle.set_point - angle_position;
    12d8:	60 91 84 02 	lds	r22, 0x0284	; 0x800284 <angle+0x18>
    12dc:	70 91 85 02 	lds	r23, 0x0285	; 0x800285 <angle+0x19>
    12e0:	80 91 86 02 	lds	r24, 0x0286	; 0x800286 <angle+0x1a>
    12e4:	90 91 87 02 	lds	r25, 0x0287	; 0x800287 <angle+0x1b>
    12e8:	29 81       	ldd	r18, Y+1	; 0x01
    12ea:	3a 81       	ldd	r19, Y+2	; 0x02
    12ec:	4b 81       	ldd	r20, Y+3	; 0x03
    12ee:	5c 81       	ldd	r21, Y+4	; 0x04
    12f0:	0e 94 d9 15 	call	0x2bb2	; 0x2bb2 <__subsf3>
    12f4:	60 93 88 02 	sts	0x0288, r22	; 0x800288 <angle+0x1c>
    12f8:	70 93 89 02 	sts	0x0289, r23	; 0x800289 <angle+0x1d>
    12fc:	80 93 8a 02 	sts	0x028A, r24	; 0x80028a <angle+0x1e>
    1300:	90 93 8b 02 	sts	0x028B, r25	; 0x80028b <angle+0x1f>
	
	// Turn motors off if robot falls beyond recoverable angle and await human rescue
	if (abs(angle.error) >= 75)
    1304:	60 91 88 02 	lds	r22, 0x0288	; 0x800288 <angle+0x1c>
    1308:	70 91 89 02 	lds	r23, 0x0289	; 0x800289 <angle+0x1d>
    130c:	80 91 8a 02 	lds	r24, 0x028A	; 0x80028a <angle+0x1e>
    1310:	90 91 8b 02 	lds	r25, 0x028B	; 0x80028b <angle+0x1f>
    1314:	20 e0       	ldi	r18, 0x00	; 0
    1316:	30 e0       	ldi	r19, 0x00	; 0
    1318:	a9 01       	movw	r20, r18
    131a:	0e 94 14 18 	call	0x3028	; 0x3028 <__gesf2>
    131e:	18 16       	cp	r1, r24
    1320:	8c f4       	brge	.+34     	; 0x1344 <_Z17compute_angle_PIDv+0x120>
    1322:	60 91 88 02 	lds	r22, 0x0288	; 0x800288 <angle+0x1c>
    1326:	70 91 89 02 	lds	r23, 0x0289	; 0x800289 <angle+0x1d>
    132a:	80 91 8a 02 	lds	r24, 0x028A	; 0x80028a <angle+0x1e>
    132e:	90 91 8b 02 	lds	r25, 0x028B	; 0x80028b <angle+0x1f>
    1332:	20 e0       	ldi	r18, 0x00	; 0
    1334:	30 e0       	ldi	r19, 0x00	; 0
    1336:	46 e9       	ldi	r20, 0x96	; 150
    1338:	52 e4       	ldi	r21, 0x42	; 66
    133a:	0e 94 14 18 	call	0x3028	; 0x3028 <__gesf2>
    133e:	87 ff       	sbrs	r24, 7
    1340:	11 c0       	rjmp	.+34     	; 0x1364 <_Z17compute_angle_PIDv+0x140>
    1342:	19 c0       	rjmp	.+50     	; 0x1376 <_Z17compute_angle_PIDv+0x152>
    1344:	60 91 88 02 	lds	r22, 0x0288	; 0x800288 <angle+0x1c>
    1348:	70 91 89 02 	lds	r23, 0x0289	; 0x800289 <angle+0x1d>
    134c:	80 91 8a 02 	lds	r24, 0x028A	; 0x80028a <angle+0x1e>
    1350:	90 91 8b 02 	lds	r25, 0x028B	; 0x80028b <angle+0x1f>
    1354:	20 e0       	ldi	r18, 0x00	; 0
    1356:	30 e0       	ldi	r19, 0x00	; 0
    1358:	46 e9       	ldi	r20, 0x96	; 150
    135a:	52 ec       	ldi	r21, 0xC2	; 194
    135c:	0e 94 a0 16 	call	0x2d40	; 0x2d40 <__cmpsf2>
    1360:	18 16       	cp	r1, r24
    1362:	4c f0       	brlt	.+18     	; 0x1376 <_Z17compute_angle_PIDv+0x152>
	{
		angle.output = 0;
    1364:	10 92 9c 02 	sts	0x029C, r1	; 0x80029c <angle+0x30>
    1368:	10 92 9d 02 	sts	0x029D, r1	; 0x80029d <angle+0x31>
    136c:	10 92 9e 02 	sts	0x029E, r1	; 0x80029e <angle+0x32>
    1370:	10 92 9f 02 	sts	0x029F, r1	; 0x80029f <angle+0x33>
		return;
    1374:	5b c1       	rjmp	.+694    	; 0x162c <_Z17compute_angle_PIDv+0x408>
	}

	// Conservative PID gains for |errors| < 3 degress
	if (abs(angle.error) < 3.0)
    1376:	60 91 88 02 	lds	r22, 0x0288	; 0x800288 <angle+0x1c>
    137a:	70 91 89 02 	lds	r23, 0x0289	; 0x800289 <angle+0x1d>
    137e:	80 91 8a 02 	lds	r24, 0x028A	; 0x80028a <angle+0x1e>
    1382:	90 91 8b 02 	lds	r25, 0x028B	; 0x80028b <angle+0x1f>
    1386:	20 e0       	ldi	r18, 0x00	; 0
    1388:	30 e0       	ldi	r19, 0x00	; 0
    138a:	a9 01       	movw	r20, r18
    138c:	0e 94 14 18 	call	0x3028	; 0x3028 <__gesf2>
    1390:	18 16       	cp	r1, r24
    1392:	8c f4       	brge	.+34     	; 0x13b6 <_Z17compute_angle_PIDv+0x192>
    1394:	60 91 88 02 	lds	r22, 0x0288	; 0x800288 <angle+0x1c>
    1398:	70 91 89 02 	lds	r23, 0x0289	; 0x800289 <angle+0x1d>
    139c:	80 91 8a 02 	lds	r24, 0x028A	; 0x80028a <angle+0x1e>
    13a0:	90 91 8b 02 	lds	r25, 0x028B	; 0x80028b <angle+0x1f>
    13a4:	20 e0       	ldi	r18, 0x00	; 0
    13a6:	30 e0       	ldi	r19, 0x00	; 0
    13a8:	40 e4       	ldi	r20, 0x40	; 64
    13aa:	50 e4       	ldi	r21, 0x40	; 64
    13ac:	0e 94 a0 16 	call	0x2d40	; 0x2d40 <__cmpsf2>
    13b0:	87 ff       	sbrs	r24, 7
    13b2:	2a c0       	rjmp	.+84     	; 0x1408 <_Z17compute_angle_PIDv+0x1e4>
    13b4:	10 c0       	rjmp	.+32     	; 0x13d6 <_Z17compute_angle_PIDv+0x1b2>
    13b6:	60 91 88 02 	lds	r22, 0x0288	; 0x800288 <angle+0x1c>
    13ba:	70 91 89 02 	lds	r23, 0x0289	; 0x800289 <angle+0x1d>
    13be:	80 91 8a 02 	lds	r24, 0x028A	; 0x80028a <angle+0x1e>
    13c2:	90 91 8b 02 	lds	r25, 0x028B	; 0x80028b <angle+0x1f>
    13c6:	20 e0       	ldi	r18, 0x00	; 0
    13c8:	30 e0       	ldi	r19, 0x00	; 0
    13ca:	40 e4       	ldi	r20, 0x40	; 64
    13cc:	50 ec       	ldi	r21, 0xC0	; 192
    13ce:	0e 94 14 18 	call	0x3028	; 0x3028 <__gesf2>
    13d2:	18 16       	cp	r1, r24
    13d4:	cc f4       	brge	.+50     	; 0x1408 <_Z17compute_angle_PIDv+0x1e4>
	{
		angle_KP = angle.con_KP;
    13d6:	80 90 6c 02 	lds	r8, 0x026C	; 0x80026c <angle>
    13da:	90 90 6d 02 	lds	r9, 0x026D	; 0x80026d <angle+0x1>
    13de:	a0 90 6e 02 	lds	r10, 0x026E	; 0x80026e <angle+0x2>
    13e2:	b0 90 6f 02 	lds	r11, 0x026F	; 0x80026f <angle+0x3>
		angle_KI = angle.con_KI;
    13e6:	40 90 70 02 	lds	r4, 0x0270	; 0x800270 <angle+0x4>
    13ea:	50 90 71 02 	lds	r5, 0x0271	; 0x800271 <angle+0x5>
    13ee:	60 90 72 02 	lds	r6, 0x0272	; 0x800272 <angle+0x6>
    13f2:	70 90 73 02 	lds	r7, 0x0273	; 0x800273 <angle+0x7>
		angle_KD = angle.con_KD;
    13f6:	c0 90 74 02 	lds	r12, 0x0274	; 0x800274 <angle+0x8>
    13fa:	d0 90 75 02 	lds	r13, 0x0275	; 0x800275 <angle+0x9>
    13fe:	e0 90 76 02 	lds	r14, 0x0276	; 0x800276 <angle+0xa>
    1402:	f0 90 77 02 	lds	r15, 0x0277	; 0x800277 <angle+0xb>
    1406:	18 c0       	rjmp	.+48     	; 0x1438 <_Z17compute_angle_PIDv+0x214>
	}
	
	// Aggressive PID gains for |errors| >= 3 degress
	else
	{
		angle_KP = angle.agr_KP;
    1408:	80 90 78 02 	lds	r8, 0x0278	; 0x800278 <angle+0xc>
    140c:	90 90 79 02 	lds	r9, 0x0279	; 0x800279 <angle+0xd>
    1410:	a0 90 7a 02 	lds	r10, 0x027A	; 0x80027a <angle+0xe>
    1414:	b0 90 7b 02 	lds	r11, 0x027B	; 0x80027b <angle+0xf>
		angle_KI = angle.agr_KI;
    1418:	40 90 7c 02 	lds	r4, 0x027C	; 0x80027c <angle+0x10>
    141c:	50 90 7d 02 	lds	r5, 0x027D	; 0x80027d <angle+0x11>
    1420:	60 90 7e 02 	lds	r6, 0x027E	; 0x80027e <angle+0x12>
    1424:	70 90 7f 02 	lds	r7, 0x027F	; 0x80027f <angle+0x13>
		angle_KD = angle.agr_KD;
    1428:	c0 90 80 02 	lds	r12, 0x0280	; 0x800280 <angle+0x14>
    142c:	d0 90 81 02 	lds	r13, 0x0281	; 0x800281 <angle+0x15>
    1430:	e0 90 82 02 	lds	r14, 0x0282	; 0x800282 <angle+0x16>
    1434:	f0 90 83 02 	lds	r15, 0x0283	; 0x800283 <angle+0x17>
	}
	
	// Compute derivative term
	angle.derivative = angle_position - angle.last_position;
    1438:	20 91 90 02 	lds	r18, 0x0290	; 0x800290 <angle+0x24>
    143c:	30 91 91 02 	lds	r19, 0x0291	; 0x800291 <angle+0x25>
    1440:	40 91 92 02 	lds	r20, 0x0292	; 0x800292 <angle+0x26>
    1444:	50 91 93 02 	lds	r21, 0x0293	; 0x800293 <angle+0x27>
    1448:	69 81       	ldd	r22, Y+1	; 0x01
    144a:	7a 81       	ldd	r23, Y+2	; 0x02
    144c:	8b 81       	ldd	r24, Y+3	; 0x03
    144e:	9c 81       	ldd	r25, Y+4	; 0x04
    1450:	0e 94 d9 15 	call	0x2bb2	; 0x2bb2 <__subsf3>
    1454:	60 93 98 02 	sts	0x0298, r22	; 0x800298 <angle+0x2c>
    1458:	70 93 99 02 	sts	0x0299, r23	; 0x800299 <angle+0x2d>
    145c:	80 93 9a 02 	sts	0x029A, r24	; 0x80029a <angle+0x2e>
    1460:	90 93 9b 02 	sts	0x029B, r25	; 0x80029b <angle+0x2f>
	
	// Compute integral sum
	angle.integral += angle_KI*angle.error;
    1464:	20 91 88 02 	lds	r18, 0x0288	; 0x800288 <angle+0x1c>
    1468:	30 91 89 02 	lds	r19, 0x0289	; 0x800289 <angle+0x1d>
    146c:	40 91 8a 02 	lds	r20, 0x028A	; 0x80028a <angle+0x1e>
    1470:	50 91 8b 02 	lds	r21, 0x028B	; 0x80028b <angle+0x1f>
    1474:	80 91 94 02 	lds	r24, 0x0294	; 0x800294 <angle+0x28>
    1478:	90 91 95 02 	lds	r25, 0x0295	; 0x800295 <angle+0x29>
    147c:	a0 91 96 02 	lds	r26, 0x0296	; 0x800296 <angle+0x2a>
    1480:	b0 91 97 02 	lds	r27, 0x0297	; 0x800297 <angle+0x2b>
    1484:	8d 83       	std	Y+5, r24	; 0x05
    1486:	9e 83       	std	Y+6, r25	; 0x06
    1488:	af 83       	std	Y+7, r26	; 0x07
    148a:	b8 87       	std	Y+8, r27	; 0x08
    148c:	c3 01       	movw	r24, r6
    148e:	b2 01       	movw	r22, r4
    1490:	0e 94 1f 18 	call	0x303e	; 0x303e <__mulsf3>
    1494:	9b 01       	movw	r18, r22
    1496:	ac 01       	movw	r20, r24
    1498:	6d 81       	ldd	r22, Y+5	; 0x05
    149a:	7e 81       	ldd	r23, Y+6	; 0x06
    149c:	8f 81       	ldd	r24, Y+7	; 0x07
    149e:	98 85       	ldd	r25, Y+8	; 0x08
    14a0:	0e 94 da 15 	call	0x2bb4	; 0x2bb4 <__addsf3>
    14a4:	60 93 94 02 	sts	0x0294, r22	; 0x800294 <angle+0x28>
    14a8:	70 93 95 02 	sts	0x0295, r23	; 0x800295 <angle+0x29>
    14ac:	80 93 96 02 	sts	0x0296, r24	; 0x800296 <angle+0x2a>
    14b0:	90 93 97 02 	sts	0x0297, r25	; 0x800297 <angle+0x2b>
	
	// Constrain integral term to prevent wind-up
	angle.integral = constrain(angle.integral, -255, 255);
    14b4:	60 91 94 02 	lds	r22, 0x0294	; 0x800294 <angle+0x28>
    14b8:	70 91 95 02 	lds	r23, 0x0295	; 0x800295 <angle+0x29>
    14bc:	80 91 96 02 	lds	r24, 0x0296	; 0x800296 <angle+0x2a>
    14c0:	90 91 97 02 	lds	r25, 0x0297	; 0x800297 <angle+0x2b>
    14c4:	20 e0       	ldi	r18, 0x00	; 0
    14c6:	30 e0       	ldi	r19, 0x00	; 0
    14c8:	4f e7       	ldi	r20, 0x7F	; 127
    14ca:	53 ec       	ldi	r21, 0xC3	; 195
    14cc:	0e 94 a0 16 	call	0x2d40	; 0x2d40 <__cmpsf2>
    14d0:	87 fd       	sbrc	r24, 7
    14d2:	19 c0       	rjmp	.+50     	; 0x1506 <_Z17compute_angle_PIDv+0x2e2>
    14d4:	60 91 94 02 	lds	r22, 0x0294	; 0x800294 <angle+0x28>
    14d8:	70 91 95 02 	lds	r23, 0x0295	; 0x800295 <angle+0x29>
    14dc:	80 91 96 02 	lds	r24, 0x0296	; 0x800296 <angle+0x2a>
    14e0:	90 91 97 02 	lds	r25, 0x0297	; 0x800297 <angle+0x2b>
    14e4:	20 e0       	ldi	r18, 0x00	; 0
    14e6:	30 e0       	ldi	r19, 0x00	; 0
    14e8:	4f e7       	ldi	r20, 0x7F	; 127
    14ea:	53 e4       	ldi	r21, 0x43	; 67
    14ec:	0e 94 14 18 	call	0x3028	; 0x3028 <__gesf2>
    14f0:	18 16       	cp	r1, r24
    14f2:	74 f0       	brlt	.+28     	; 0x1510 <_Z17compute_angle_PIDv+0x2ec>
    14f4:	80 91 94 02 	lds	r24, 0x0294	; 0x800294 <angle+0x28>
    14f8:	90 91 95 02 	lds	r25, 0x0295	; 0x800295 <angle+0x29>
    14fc:	a0 91 96 02 	lds	r26, 0x0296	; 0x800296 <angle+0x2a>
    1500:	b0 91 97 02 	lds	r27, 0x0297	; 0x800297 <angle+0x2b>
    1504:	09 c0       	rjmp	.+18     	; 0x1518 <_Z17compute_angle_PIDv+0x2f4>
    1506:	80 e0       	ldi	r24, 0x00	; 0
    1508:	90 e0       	ldi	r25, 0x00	; 0
    150a:	af e7       	ldi	r26, 0x7F	; 127
    150c:	b3 ec       	ldi	r27, 0xC3	; 195
    150e:	04 c0       	rjmp	.+8      	; 0x1518 <_Z17compute_angle_PIDv+0x2f4>
    1510:	80 e0       	ldi	r24, 0x00	; 0
    1512:	90 e0       	ldi	r25, 0x00	; 0
    1514:	af e7       	ldi	r26, 0x7F	; 127
    1516:	b3 e4       	ldi	r27, 0x43	; 67
    1518:	80 93 94 02 	sts	0x0294, r24	; 0x800294 <angle+0x28>
    151c:	90 93 95 02 	sts	0x0295, r25	; 0x800295 <angle+0x29>
    1520:	a0 93 96 02 	sts	0x0296, r26	; 0x800296 <angle+0x2a>
    1524:	b0 93 97 02 	sts	0x0297, r27	; 0x800297 <angle+0x2b>
	
	// Compute angle PID output
	angle.output = (angle_KP*angle.error) + (angle.integral) - (angle_KD*angle.derivative);
    1528:	20 91 88 02 	lds	r18, 0x0288	; 0x800288 <angle+0x1c>
    152c:	30 91 89 02 	lds	r19, 0x0289	; 0x800289 <angle+0x1d>
    1530:	40 91 8a 02 	lds	r20, 0x028A	; 0x80028a <angle+0x1e>
    1534:	50 91 8b 02 	lds	r21, 0x028B	; 0x80028b <angle+0x1f>
    1538:	40 90 94 02 	lds	r4, 0x0294	; 0x800294 <angle+0x28>
    153c:	50 90 95 02 	lds	r5, 0x0295	; 0x800295 <angle+0x29>
    1540:	60 90 96 02 	lds	r6, 0x0296	; 0x800296 <angle+0x2a>
    1544:	70 90 97 02 	lds	r7, 0x0297	; 0x800297 <angle+0x2b>
    1548:	80 91 98 02 	lds	r24, 0x0298	; 0x800298 <angle+0x2c>
    154c:	90 91 99 02 	lds	r25, 0x0299	; 0x800299 <angle+0x2d>
    1550:	a0 91 9a 02 	lds	r26, 0x029A	; 0x80029a <angle+0x2e>
    1554:	b0 91 9b 02 	lds	r27, 0x029B	; 0x80029b <angle+0x2f>
    1558:	8d 83       	std	Y+5, r24	; 0x05
    155a:	9e 83       	std	Y+6, r25	; 0x06
    155c:	af 83       	std	Y+7, r26	; 0x07
    155e:	b8 87       	std	Y+8, r27	; 0x08
    1560:	c5 01       	movw	r24, r10
    1562:	b4 01       	movw	r22, r8
    1564:	0e 94 1f 18 	call	0x303e	; 0x303e <__mulsf3>
    1568:	a3 01       	movw	r20, r6
    156a:	92 01       	movw	r18, r4
    156c:	0e 94 da 15 	call	0x2bb4	; 0x2bb4 <__addsf3>
    1570:	4b 01       	movw	r8, r22
    1572:	5c 01       	movw	r10, r24
    1574:	2d 81       	ldd	r18, Y+5	; 0x05
    1576:	3e 81       	ldd	r19, Y+6	; 0x06
    1578:	4f 81       	ldd	r20, Y+7	; 0x07
    157a:	58 85       	ldd	r21, Y+8	; 0x08
    157c:	c7 01       	movw	r24, r14
    157e:	b6 01       	movw	r22, r12
    1580:	0e 94 1f 18 	call	0x303e	; 0x303e <__mulsf3>
    1584:	9b 01       	movw	r18, r22
    1586:	ac 01       	movw	r20, r24
    1588:	c5 01       	movw	r24, r10
    158a:	b4 01       	movw	r22, r8
    158c:	0e 94 d9 15 	call	0x2bb2	; 0x2bb2 <__subsf3>
    1590:	60 93 9c 02 	sts	0x029C, r22	; 0x80029c <angle+0x30>
    1594:	70 93 9d 02 	sts	0x029D, r23	; 0x80029d <angle+0x31>
    1598:	80 93 9e 02 	sts	0x029E, r24	; 0x80029e <angle+0x32>
    159c:	90 93 9f 02 	sts	0x029F, r25	; 0x80029f <angle+0x33>
	
	// Constrain angle PID output to PWM range
	angle.output = constrain(angle.output, -255, 255);
    15a0:	60 91 9c 02 	lds	r22, 0x029C	; 0x80029c <angle+0x30>
    15a4:	70 91 9d 02 	lds	r23, 0x029D	; 0x80029d <angle+0x31>
    15a8:	80 91 9e 02 	lds	r24, 0x029E	; 0x80029e <angle+0x32>
    15ac:	90 91 9f 02 	lds	r25, 0x029F	; 0x80029f <angle+0x33>
    15b0:	20 e0       	ldi	r18, 0x00	; 0
    15b2:	30 e0       	ldi	r19, 0x00	; 0
    15b4:	4f e7       	ldi	r20, 0x7F	; 127
    15b6:	53 ec       	ldi	r21, 0xC3	; 195
    15b8:	0e 94 a0 16 	call	0x2d40	; 0x2d40 <__cmpsf2>
    15bc:	87 fd       	sbrc	r24, 7
    15be:	19 c0       	rjmp	.+50     	; 0x15f2 <_Z17compute_angle_PIDv+0x3ce>
    15c0:	60 91 9c 02 	lds	r22, 0x029C	; 0x80029c <angle+0x30>
    15c4:	70 91 9d 02 	lds	r23, 0x029D	; 0x80029d <angle+0x31>
    15c8:	80 91 9e 02 	lds	r24, 0x029E	; 0x80029e <angle+0x32>
    15cc:	90 91 9f 02 	lds	r25, 0x029F	; 0x80029f <angle+0x33>
    15d0:	20 e0       	ldi	r18, 0x00	; 0
    15d2:	30 e0       	ldi	r19, 0x00	; 0
    15d4:	4f e7       	ldi	r20, 0x7F	; 127
    15d6:	53 e4       	ldi	r21, 0x43	; 67
    15d8:	0e 94 14 18 	call	0x3028	; 0x3028 <__gesf2>
    15dc:	18 16       	cp	r1, r24
    15de:	74 f0       	brlt	.+28     	; 0x15fc <_Z17compute_angle_PIDv+0x3d8>
    15e0:	80 91 9c 02 	lds	r24, 0x029C	; 0x80029c <angle+0x30>
    15e4:	90 91 9d 02 	lds	r25, 0x029D	; 0x80029d <angle+0x31>
    15e8:	a0 91 9e 02 	lds	r26, 0x029E	; 0x80029e <angle+0x32>
    15ec:	b0 91 9f 02 	lds	r27, 0x029F	; 0x80029f <angle+0x33>
    15f0:	09 c0       	rjmp	.+18     	; 0x1604 <_Z17compute_angle_PIDv+0x3e0>
    15f2:	80 e0       	ldi	r24, 0x00	; 0
    15f4:	90 e0       	ldi	r25, 0x00	; 0
    15f6:	af e7       	ldi	r26, 0x7F	; 127
    15f8:	b3 ec       	ldi	r27, 0xC3	; 195
    15fa:	04 c0       	rjmp	.+8      	; 0x1604 <_Z17compute_angle_PIDv+0x3e0>
    15fc:	80 e0       	ldi	r24, 0x00	; 0
    15fe:	90 e0       	ldi	r25, 0x00	; 0
    1600:	af e7       	ldi	r26, 0x7F	; 127
    1602:	b3 e4       	ldi	r27, 0x43	; 67
    1604:	80 93 9c 02 	sts	0x029C, r24	; 0x80029c <angle+0x30>
    1608:	90 93 9d 02 	sts	0x029D, r25	; 0x80029d <angle+0x31>
    160c:	a0 93 9e 02 	sts	0x029E, r26	; 0x80029e <angle+0x32>
    1610:	b0 93 9f 02 	sts	0x029F, r27	; 0x80029f <angle+0x33>
	
	//if (abs(angle.error) < 0.2) angle.output = 0;		// For smoothing output
	
	// Store variable for next iteration
	angle.last_position = angle_position;
    1614:	89 81       	ldd	r24, Y+1	; 0x01
    1616:	9a 81       	ldd	r25, Y+2	; 0x02
    1618:	ab 81       	ldd	r26, Y+3	; 0x03
    161a:	bc 81       	ldd	r27, Y+4	; 0x04
    161c:	80 93 90 02 	sts	0x0290, r24	; 0x800290 <angle+0x24>
    1620:	90 93 91 02 	sts	0x0291, r25	; 0x800291 <angle+0x25>
    1624:	a0 93 92 02 	sts	0x0292, r26	; 0x800292 <angle+0x26>
    1628:	b0 93 93 02 	sts	0x0293, r27	; 0x800293 <angle+0x27>
}
    162c:	28 96       	adiw	r28, 0x08	; 8
    162e:	0f b6       	in	r0, 0x3f	; 63
    1630:	f8 94       	cli
    1632:	de bf       	out	0x3e, r29	; 62
    1634:	0f be       	out	0x3f, r0	; 63
    1636:	cd bf       	out	0x3d, r28	; 61
    1638:	df 91       	pop	r29
    163a:	cf 91       	pop	r28
    163c:	ff 90       	pop	r15
    163e:	ef 90       	pop	r14
    1640:	df 90       	pop	r13
    1642:	cf 90       	pop	r12
    1644:	bf 90       	pop	r11
    1646:	af 90       	pop	r10
    1648:	9f 90       	pop	r9
    164a:	8f 90       	pop	r8
    164c:	7f 90       	pop	r7
    164e:	6f 90       	pop	r6
    1650:	5f 90       	pop	r5
    1652:	4f 90       	pop	r4
    1654:	08 95       	ret

00001656 <_Z11compute_PIDv>:
Return Value	:	None
Example Call	:	compute_PID()
***********************************/
void compute_PID()
{
	compute_encoder_PID();
    1656:	0e dd       	rcall	.-1508   	; 0x1074 <_Z19compute_encoder_PIDv>
	compute_velocity_PID();
    1658:	c7 da       	rcall	.-2674   	; 0xbe8 <_Z20compute_velocity_PIDv>
	compute_angle_PID();
    165a:	e4 dd       	rcall	.-1080   	; 0x1224 <_Z17compute_angle_PIDv>
	compute_rotation_PID();
    165c:	63 ca       	rjmp	.-2874   	; 0xb24 <_Z20compute_rotation_PIDv>

0000165e <_Z14task_schedulerv>:
Arguments		:	None
Return Value	:	None
Example Call	:	task_scheduler()
***********************************/
void task_scheduler()
{
    165e:	ef 92       	push	r14
    1660:	ff 92       	push	r15
    1662:	0f 93       	push	r16
    1664:	1f 93       	push	r17
	read_joystick();	// Read the raw data from Joystick Controller
    1666:	db d0       	rcall	.+438    	; 0x181e <_Z13read_joystickv>
	led_scheduler();	// Run the LED scheduler for status/beacon indicator
    1668:	30 d4       	rcall	.+2144   	; 0x1eca <_Z13led_schedulerv>
	buzz_scheduler();	// Run the buzzer scheduler and play non-blocking RTTTL tones
    166a:	d4 d5       	rcall	.+2984   	; 0x2214 <_Z14buzz_schedulerv>
	
	// PID task scheduling every 20ms
	if ((epoch() - last_task_time_PID) >= 20)
    166c:	0e 94 f0 13 	call	0x27e0	; 0x27e0 <_Z5epochv>
    1670:	00 91 24 05 	lds	r16, 0x0524	; 0x800524 <last_task_time_PID>
    1674:	10 91 25 05 	lds	r17, 0x0525	; 0x800525 <last_task_time_PID+0x1>
    1678:	20 91 26 05 	lds	r18, 0x0526	; 0x800526 <last_task_time_PID+0x2>
    167c:	30 91 27 05 	lds	r19, 0x0527	; 0x800527 <last_task_time_PID+0x3>
    1680:	dc 01       	movw	r26, r24
    1682:	cb 01       	movw	r24, r22
    1684:	80 1b       	sub	r24, r16
    1686:	91 0b       	sbc	r25, r17
    1688:	a2 0b       	sbc	r26, r18
    168a:	b3 0b       	sbc	r27, r19
    168c:	44 97       	sbiw	r24, 0x14	; 20
    168e:	a1 05       	cpc	r26, r1
    1690:	b1 05       	cpc	r27, r1
    1692:	28 f1       	brcs	.+74     	; 0x16de <_Z14task_schedulerv+0x80>
	{
		last_task_time_PID = epoch();
    1694:	0e 94 f0 13 	call	0x27e0	; 0x27e0 <_Z5epochv>
    1698:	60 93 24 05 	sts	0x0524, r22	; 0x800524 <last_task_time_PID>
    169c:	70 93 25 05 	sts	0x0525, r23	; 0x800525 <last_task_time_PID+0x1>
    16a0:	80 93 26 05 	sts	0x0526, r24	; 0x800526 <last_task_time_PID+0x2>
    16a4:	90 93 27 05 	sts	0x0527, r25	; 0x800527 <last_task_time_PID+0x3>
		
		steer_robot();	// Update the set-points for the various PID loop
    16a8:	ce d9       	rcall	.-3172   	; 0xa46 <_Z11steer_robotv>
		compute_PID();	// Compute PID values
    16aa:	d5 df       	rcall	.-86     	; 0x1656 <_Z11compute_PIDv>
		
		// Update the motor speed and direction
		update_motors(angle.output, rotation_left, rotation_right);
    16ac:	e0 90 38 05 	lds	r14, 0x0538	; 0x800538 <rotation_right>
    16b0:	f0 90 39 05 	lds	r15, 0x0539	; 0x800539 <rotation_right+0x1>
    16b4:	00 91 3a 05 	lds	r16, 0x053A	; 0x80053a <rotation_right+0x2>
    16b8:	10 91 3b 05 	lds	r17, 0x053B	; 0x80053b <rotation_right+0x3>
    16bc:	20 91 3c 05 	lds	r18, 0x053C	; 0x80053c <rotation_left>
    16c0:	30 91 3d 05 	lds	r19, 0x053D	; 0x80053d <rotation_left+0x1>
    16c4:	40 91 3e 05 	lds	r20, 0x053E	; 0x80053e <rotation_left+0x2>
    16c8:	50 91 3f 05 	lds	r21, 0x053F	; 0x80053f <rotation_left+0x3>
    16cc:	60 91 9c 02 	lds	r22, 0x029C	; 0x80029c <angle+0x30>
    16d0:	70 91 9d 02 	lds	r23, 0x029D	; 0x80029d <angle+0x31>
    16d4:	80 91 9e 02 	lds	r24, 0x029E	; 0x80029e <angle+0x32>
    16d8:	90 91 9f 02 	lds	r25, 0x029F	; 0x80029f <angle+0x33>
    16dc:	19 d7       	rcall	.+3634   	; 0x2510 <_Z13update_motorsfff>
	}
}
    16de:	1f 91       	pop	r17
    16e0:	0f 91       	pop	r16
    16e2:	ff 90       	pop	r15
    16e4:	ef 90       	pop	r14
    16e6:	08 95       	ret

000016e8 <_Z12init_devicesv>:
Return Value	:	void
Example Call	:	init_devices()
***********************************/
void init_devices()
{
	cli();					// Clear global interrupts
    16e8:	f8 94       	cli
  public:
    inline HardwareSerial(
      volatile uint8_t *ubrrh, volatile uint8_t *ubrrl,
      volatile uint8_t *ucsra, volatile uint8_t *ucsrb,
      volatile uint8_t *ucsrc, volatile uint8_t *udr);
    void begin(unsigned long baud) { begin(baud, SERIAL_8N1); }
    16ea:	26 e0       	ldi	r18, 0x06	; 6
    16ec:	40 e8       	ldi	r20, 0x80	; 128
    16ee:	55 e2       	ldi	r21, 0x25	; 37
    16f0:	60 e0       	ldi	r22, 0x00	; 0
    16f2:	70 e0       	ldi	r23, 0x00	; 0
    16f4:	89 e9       	ldi	r24, 0x99	; 153
    16f6:	95 e0       	ldi	r25, 0x05	; 5
    16f8:	0e 94 77 19 	call	0x32ee	; 0x32ee <_ZN14HardwareSerial5beginEmh>
	
	Serial.begin(9600);		// Setup serial communication
	
	timer1_init();			// Timer 1 for RPM measurement
    16fc:	b1 d7       	rcall	.+3938   	; 0x2660 <_Z11timer1_initv>
	timer3_init();			// Timer 3 for reading GY80 sensor
    16fe:	d4 d7       	rcall	.+4008   	; 0x26a8 <_Z11timer3_initv>
	timer4_init();			// Timer 4 for calculating program time in ms
    1700:	f7 d7       	rcall	.+4078   	; 0x26f0 <_Z11timer4_initv>
	
	i2c_init();				// Initialize I2C
    1702:	c6 d1       	rcall	.+908    	; 0x1a90 <_Z8i2c_initv>
	accel_init();			// Initialize ADXL345
    1704:	0e 94 86 01 	call	0x30c	; 0x30c <_Z10accel_initv>
	gyro_init();			// Initialize L3G4200D
    1708:	2a d1       	rcall	.+596    	; 0x195e <_Z9gyro_initv>
	motors_init();			// Initialize motors and encoders
    170a:	79 d7       	rcall	.+3826   	; 0x25fe <_Z11motors_initv>
	
	buzzer_pin_config();	// Initialize buzzer
    170c:	bf d4       	rcall	.+2430   	; 0x208c <_Z17buzzer_pin_configv>
	led_pin_config();		// Initialize LEDs
    170e:	8f d3       	rcall	.+1822   	; 0x1e2e <_Z14led_pin_configv>
	
	sei();					// Enable global interrupts
    1710:	78 94       	sei
    1712:	08 95       	ret

00001714 <setup>:
Return Value	:	None
Example Call	:	setup() - Called internally by main()
***********************************/
void setup()
{
	init_devices();			// Initiate all devices
    1714:	e9 df       	rcall	.-46     	; 0x16e8 <_Z12init_devicesv>
	start_timer4();			// Timer for epoch()
    1716:	0e 94 95 13 	call	0x272a	; 0x272a <_Z12start_timer4v>
	start_timer3();			// Timer for reading GY80 sensor
    171a:	e3 d7       	rcall	.+4038   	; 0x26e2 <_Z12start_timer3v>
	start_timer1();			// Timer for calculating RPM of motors
    171c:	be d7       	rcall	.+3964   	; 0x269a <_Z12start_timer1v>
	
	// Set PID controller directions
	angle.direction = 1;
    171e:	81 e0       	ldi	r24, 0x01	; 1
    1720:	90 e0       	ldi	r25, 0x00	; 0
    1722:	90 93 a1 02 	sts	0x02A1, r25	; 0x8002a1 <angle+0x35>
    1726:	80 93 a0 02 	sts	0x02A0, r24	; 0x8002a0 <angle+0x34>
	velocity.direction = -1;
    172a:	8f ef       	ldi	r24, 0xFF	; 255
    172c:	9f ef       	ldi	r25, 0xFF	; 255
    172e:	90 93 6b 02 	sts	0x026B, r25	; 0x80026b <velocity+0x35>
    1732:	80 93 6a 02 	sts	0x026A, r24	; 0x80026a <velocity+0x34>
	encoder.direction = -1;
    1736:	90 93 35 02 	sts	0x0235, r25	; 0x800235 <__data_start+0x35>
    173a:	80 93 34 02 	sts	0x0234, r24	; 0x800234 <__data_start+0x34>
    173e:	08 95       	ret

00001740 <loop>:
Return Value	:	None
Example Call	:	loop() - Called internally by main()
***********************************/
void loop()
{
	task_scheduler();	// Schedule tasks
    1740:	8e cf       	rjmp	.-228    	; 0x165e <_Z14task_schedulerv>

00001742 <_Z17get_joystick_zonehhi>:
Arguments		:	Low and High ADC bytes, Offset ADC value
Return Value	:	Zone value
Example Call	:	get_joystick_zone(255, 10, 22)
***********************************/
int get_joystick_zone(unsigned char low_byte, unsigned char high_byte, int offset=0)
{
    1742:	af 92       	push	r10
    1744:	bf 92       	push	r11
    1746:	cf 92       	push	r12
    1748:	df 92       	push	r13
    174a:	ef 92       	push	r14
    174c:	ff 92       	push	r15
    174e:	0f 93       	push	r16
    1750:	1f 93       	push	r17
    1752:	96 2f       	mov	r25, r22
	int output=0, zone=0;
	
	// Combine bytes and constrain input
	output = constrain((high_byte*255 + low_byte - offset), 0, 1023);
    1754:	68 2f       	mov	r22, r24
    1756:	70 e0       	ldi	r23, 0x00	; 0
    1758:	8f ef       	ldi	r24, 0xFF	; 255
    175a:	98 9f       	mul	r25, r24
    175c:	60 0d       	add	r22, r0
    175e:	71 1d       	adc	r23, r1
    1760:	11 24       	eor	r1, r1
    1762:	64 1b       	sub	r22, r20
    1764:	75 0b       	sbc	r23, r21
    1766:	61 15       	cp	r22, r1
    1768:	84 e0       	ldi	r24, 0x04	; 4
    176a:	78 07       	cpc	r23, r24
    176c:	14 f0       	brlt	.+4      	; 0x1772 <_Z17get_joystick_zonehhi+0x30>
    176e:	6f ef       	ldi	r22, 0xFF	; 255
    1770:	73 e0       	ldi	r23, 0x03	; 3
    1772:	77 ff       	sbrs	r23, 7
    1774:	02 c0       	rjmp	.+4      	; 0x177a <_Z17get_joystick_zonehhi+0x38>
    1776:	60 e0       	ldi	r22, 0x00	; 0
    1778:	70 e0       	ldi	r23, 0x00	; 0
	
	// Map values to -100 and 100 range
	output = map(output, 0, 1023, -100, 100);
    177a:	07 2e       	mov	r0, r23
    177c:	00 0c       	add	r0, r0
    177e:	88 0b       	sbc	r24, r24
    1780:	99 0b       	sbc	r25, r25
    1782:	1f 92       	push	r1
    1784:	1f 92       	push	r1
    1786:	1f 92       	push	r1
    1788:	24 e6       	ldi	r18, 0x64	; 100
    178a:	2f 93       	push	r18
    178c:	2c e9       	ldi	r18, 0x9C	; 156
    178e:	a2 2e       	mov	r10, r18
    1790:	bb 24       	eor	r11, r11
    1792:	ba 94       	dec	r11
    1794:	cb 2c       	mov	r12, r11
    1796:	db 2c       	mov	r13, r11
    1798:	ee 24       	eor	r14, r14
    179a:	ea 94       	dec	r14
    179c:	13 e0       	ldi	r17, 0x03	; 3
    179e:	f1 2e       	mov	r15, r17
    17a0:	00 e0       	ldi	r16, 0x00	; 0
    17a2:	10 e0       	ldi	r17, 0x00	; 0
    17a4:	20 e0       	ldi	r18, 0x00	; 0
    17a6:	30 e0       	ldi	r19, 0x00	; 0
    17a8:	a9 01       	movw	r20, r18
    17aa:	0e 94 b9 22 	call	0x4572	; 0x4572 <_Z3maplllll>
    17ae:	ab 01       	movw	r20, r22
	
	// Assign different zone based on the magnitude of the joystick position
	// 2 -> Extreme ends, 0 -> Neutral position
	if (abs(output)<=20) zone = 0;
    17b0:	9b 01       	movw	r18, r22
    17b2:	2c 5e       	subi	r18, 0xEC	; 236
    17b4:	3f 4f       	sbci	r19, 0xFF	; 255
    17b6:	0f 90       	pop	r0
    17b8:	0f 90       	pop	r0
    17ba:	0f 90       	pop	r0
    17bc:	0f 90       	pop	r0
    17be:	29 32       	cpi	r18, 0x29	; 41
    17c0:	31 05       	cpc	r19, r1
    17c2:	e8 f0       	brcs	.+58     	; 0x17fe <_Z17get_joystick_zonehhi+0xbc>
	else if ((abs(output)>20) && (abs(output)<=60)) zone = 1;
    17c4:	9b 01       	movw	r18, r22
    17c6:	77 ff       	sbrs	r23, 7
    17c8:	04 c0       	rjmp	.+8      	; 0x17d2 <_Z17get_joystick_zonehhi+0x90>
    17ca:	22 27       	eor	r18, r18
    17cc:	33 27       	eor	r19, r19
    17ce:	26 1b       	sub	r18, r22
    17d0:	37 0b       	sbc	r19, r23
    17d2:	25 31       	cpi	r18, 0x15	; 21
    17d4:	31 05       	cpc	r19, r1
    17d6:	9c f0       	brlt	.+38     	; 0x17fe <_Z17get_joystick_zonehhi+0xbc>
    17d8:	fb 01       	movw	r30, r22
    17da:	fc 96       	adiw	r30, 0x3c	; 60
    17dc:	e9 37       	cpi	r30, 0x79	; 121
    17de:	f1 05       	cpc	r31, r1
    17e0:	58 f0       	brcs	.+22     	; 0x17f8 <_Z17get_joystick_zonehhi+0xb6>
	else if ((abs(output)>60) && (abs(output)<=100)) zone = 2;
    17e2:	2d 33       	cpi	r18, 0x3D	; 61
    17e4:	31 05       	cpc	r19, r1
    17e6:	5c f0       	brlt	.+22     	; 0x17fe <_Z17get_joystick_zonehhi+0xbc>
    17e8:	6c 59       	subi	r22, 0x9C	; 156
    17ea:	7f 4f       	sbci	r23, 0xFF	; 255
    17ec:	69 3c       	cpi	r22, 0xC9	; 201
    17ee:	71 05       	cpc	r23, r1
    17f0:	30 f4       	brcc	.+12     	; 0x17fe <_Z17get_joystick_zonehhi+0xbc>
    17f2:	82 e0       	ldi	r24, 0x02	; 2
    17f4:	90 e0       	ldi	r25, 0x00	; 0
    17f6:	05 c0       	rjmp	.+10     	; 0x1802 <_Z17get_joystick_zonehhi+0xc0>
	output = map(output, 0, 1023, -100, 100);
	
	// Assign different zone based on the magnitude of the joystick position
	// 2 -> Extreme ends, 0 -> Neutral position
	if (abs(output)<=20) zone = 0;
	else if ((abs(output)>20) && (abs(output)<=60)) zone = 1;
    17f8:	81 e0       	ldi	r24, 0x01	; 1
    17fa:	90 e0       	ldi	r25, 0x00	; 0
    17fc:	02 c0       	rjmp	.+4      	; 0x1802 <_Z17get_joystick_zonehhi+0xc0>
	// Map values to -100 and 100 range
	output = map(output, 0, 1023, -100, 100);
	
	// Assign different zone based on the magnitude of the joystick position
	// 2 -> Extreme ends, 0 -> Neutral position
	if (abs(output)<=20) zone = 0;
    17fe:	80 e0       	ldi	r24, 0x00	; 0
    1800:	90 e0       	ldi	r25, 0x00	; 0
	else if ((abs(output)>20) && (abs(output)<=60)) zone = 1;
	else if ((abs(output)>60) && (abs(output)<=100)) zone = 2;
	
	if (output<0) zone *= -1;
    1802:	57 ff       	sbrs	r21, 7
    1804:	03 c0       	rjmp	.+6      	; 0x180c <_Z17get_joystick_zonehhi+0xca>
    1806:	91 95       	neg	r25
    1808:	81 95       	neg	r24
    180a:	91 09       	sbc	r25, r1
	return zone;
}
    180c:	1f 91       	pop	r17
    180e:	0f 91       	pop	r16
    1810:	ff 90       	pop	r15
    1812:	ef 90       	pop	r14
    1814:	df 90       	pop	r13
    1816:	cf 90       	pop	r12
    1818:	bf 90       	pop	r11
    181a:	af 90       	pop	r10
    181c:	08 95       	ret

0000181e <_Z13read_joystickv>:
Arguments		:	None
Return Value	:	None
Example Call	:	read_joystick()
***********************************/
void read_joystick()
{
    181e:	cf 92       	push	r12
    1820:	df 92       	push	r13
    1822:	ef 92       	push	r14
    1824:	ff 92       	push	r15
    1826:	0f 93       	push	r16
    1828:	1f 93       	push	r17
    182a:	cf 93       	push	r28
    182c:	df 93       	push	r29
    182e:	1f 92       	push	r1
    1830:	cd b7       	in	r28, 0x3d	; 61
    1832:	de b7       	in	r29, 0x3e	; 62
	unsigned char byte_discard, checksum;
	unsigned char digital_data = 0;
	unsigned char AD0[2]={0, 0}, AD1[2]={0, 0};
	
	// Check frame length
	if (Serial.available() > 18)
    1834:	89 e9       	ldi	r24, 0x99	; 153
    1836:	95 e0       	ldi	r25, 0x05	; 5
    1838:	0e 94 85 18 	call	0x310a	; 0x310a <_ZN14HardwareSerial9availableEv>
    183c:	43 97       	sbiw	r24, 0x13	; 19
    183e:	0c f4       	brge	.+2      	; 0x1842 <_Z13read_joystickv+0x24>
    1840:	84 c0       	rjmp	.+264    	; 0x194a <_Z13read_joystickv+0x12c>
	{
		// Check Start Byte of the API Frame
		if (Serial.read() == 0x7E)
    1842:	89 e9       	ldi	r24, 0x99	; 153
    1844:	95 e0       	ldi	r25, 0x05	; 5
    1846:	0e 94 9f 18 	call	0x313e	; 0x313e <_ZN14HardwareSerial4readEv>
    184a:	8e 37       	cpi	r24, 0x7E	; 126
    184c:	91 05       	cpc	r25, r1
    184e:	09 f0       	breq	.+2      	; 0x1852 <_Z13read_joystickv+0x34>
    1850:	7c c0       	rjmp	.+248    	; 0x194a <_Z13read_joystickv+0x12c>
		{
			// Read and discard 2 bytes
			for (int i=0; i<2; i++)
			byte_discard = Serial.read();
    1852:	89 e9       	ldi	r24, 0x99	; 153
    1854:	95 e0       	ldi	r25, 0x05	; 5
    1856:	0e 94 9f 18 	call	0x313e	; 0x313e <_ZN14HardwareSerial4readEv>
    185a:	89 e9       	ldi	r24, 0x99	; 153
    185c:	95 e0       	ldi	r25, 0x05	; 5
    185e:	0e 94 9f 18 	call	0x313e	; 0x313e <_ZN14HardwareSerial4readEv>
			
			// Check Frame Type
			if(Serial.read() != 0x83) return;
    1862:	89 e9       	ldi	r24, 0x99	; 153
    1864:	95 e0       	ldi	r25, 0x05	; 5
    1866:	0e 94 9f 18 	call	0x313e	; 0x313e <_ZN14HardwareSerial4readEv>
    186a:	83 38       	cpi	r24, 0x83	; 131
    186c:	91 05       	cpc	r25, r1
    186e:	09 f0       	breq	.+2      	; 0x1872 <_Z13read_joystickv+0x54>
    1870:	6c c0       	rjmp	.+216    	; 0x194a <_Z13read_joystickv+0x12c>
    1872:	08 e0       	ldi	r16, 0x08	; 8
    1874:	10 e0       	ldi	r17, 0x00	; 0
    1876:	83 e8       	ldi	r24, 0x83	; 131
    1878:	e8 2e       	mov	r14, r24
    187a:	f1 2c       	mov	r15, r1
			
			// Read and discard 8 bytes
			for (int i=0; i<8; i++)
			sum += Serial.read();
    187c:	89 e9       	ldi	r24, 0x99	; 153
    187e:	95 e0       	ldi	r25, 0x05	; 5
    1880:	0e 94 9f 18 	call	0x313e	; 0x313e <_ZN14HardwareSerial4readEv>
    1884:	e8 0e       	add	r14, r24
    1886:	f9 1e       	adc	r15, r25
    1888:	01 50       	subi	r16, 0x01	; 1
    188a:	11 09       	sbc	r17, r1
			
			// Check Frame Type
			if(Serial.read() != 0x83) return;
			
			// Read and discard 8 bytes
			for (int i=0; i<8; i++)
    188c:	b9 f7       	brne	.-18     	; 0x187c <_Z13read_joystickv+0x5e>
			sum += Serial.read();
			
			// Read Digital Byte
			digital_data = Serial.read();
    188e:	89 e9       	ldi	r24, 0x99	; 153
    1890:	95 e0       	ldi	r25, 0x05	; 5
    1892:	0e 94 9f 18 	call	0x313e	; 0x313e <_ZN14HardwareSerial4readEv>
    1896:	18 2f       	mov	r17, r24
			sum += digital_data;
    1898:	67 01       	movw	r12, r14
    189a:	c8 0e       	add	r12, r24
    189c:	d1 1c       	adc	r13, r1
			
			// Read ADC Data
			AD0[1] = Serial.read();
    189e:	89 e9       	ldi	r24, 0x99	; 153
    18a0:	95 e0       	ldi	r25, 0x05	; 5
    18a2:	0e 94 9f 18 	call	0x313e	; 0x313e <_ZN14HardwareSerial4readEv>
    18a6:	f8 2e       	mov	r15, r24
			AD0[0] = Serial.read();
    18a8:	89 e9       	ldi	r24, 0x99	; 153
    18aa:	95 e0       	ldi	r25, 0x05	; 5
    18ac:	0e 94 9f 18 	call	0x313e	; 0x313e <_ZN14HardwareSerial4readEv>
    18b0:	08 2f       	mov	r16, r24
			AD1[1] = Serial.read();
    18b2:	89 e9       	ldi	r24, 0x99	; 153
    18b4:	95 e0       	ldi	r25, 0x05	; 5
    18b6:	0e 94 9f 18 	call	0x313e	; 0x313e <_ZN14HardwareSerial4readEv>
    18ba:	68 2f       	mov	r22, r24
			AD1[0] = Serial.read();
    18bc:	89 e9       	ldi	r24, 0x99	; 153
    18be:	95 e0       	ldi	r25, 0x05	; 5
    18c0:	69 83       	std	Y+1, r22	; 0x01
    18c2:	0e 94 9f 18 	call	0x313e	; 0x313e <_ZN14HardwareSerial4readEv>
    18c6:	e8 2e       	mov	r14, r24
			sum = sum + AD0[0] + AD0[1] + AD1[0] + AD1[1];
    18c8:	c0 0e       	add	r12, r16
    18ca:	d1 1c       	adc	r13, r1
    18cc:	cf 0c       	add	r12, r15
    18ce:	d1 1c       	adc	r13, r1
    18d0:	c8 0e       	add	r12, r24
    18d2:	d1 1c       	adc	r13, r1
			
			// Read Checksum
			checksum = 0xFF - (0xFF & (unsigned char)sum);
			byte_discard = Serial.read();
    18d4:	89 e9       	ldi	r24, 0x99	; 153
    18d6:	95 e0       	ldi	r25, 0x05	; 5
    18d8:	0e 94 9f 18 	call	0x313e	; 0x313e <_ZN14HardwareSerial4readEv>
			// Read ADC Data
			AD0[1] = Serial.read();
			AD0[0] = Serial.read();
			AD1[1] = Serial.read();
			AD1[0] = Serial.read();
			sum = sum + AD0[0] + AD0[1] + AD1[0] + AD1[1];
    18dc:	69 81       	ldd	r22, Y+1	; 0x01
    18de:	c6 0e       	add	r12, r22
    18e0:	d1 1c       	adc	r13, r1
			
			// Read Checksum
			checksum = 0xFF - (0xFF & (unsigned char)sum);
    18e2:	c0 94       	com	r12
			byte_discard = Serial.read();
			
			// Discard frame if checksum does not match
			if (byte_discard != checksum) return;
    18e4:	c8 12       	cpse	r12, r24
    18e6:	31 c0       	rjmp	.+98     	; 0x194a <_Z13read_joystickv+0x12c>
			
			// Update Controller Variables
			if ((digital_data & 0x40) == 0x40) joystick.button_1 = HIGH;
    18e8:	16 ff       	sbrs	r17, 6
    18ea:	04 c0       	rjmp	.+8      	; 0x18f4 <_Z13read_joystickv+0xd6>
    18ec:	81 e0       	ldi	r24, 0x01	; 1
    18ee:	80 93 54 05 	sts	0x0554, r24	; 0x800554 <joystick+0x4>
    18f2:	02 c0       	rjmp	.+4      	; 0x18f8 <_Z13read_joystickv+0xda>
			else joystick.button_1 = LOW;
    18f4:	10 92 54 05 	sts	0x0554, r1	; 0x800554 <joystick+0x4>
			
			if ((digital_data & 0x08) == 0x08) joystick.button_2 = HIGH;
    18f8:	13 ff       	sbrs	r17, 3
    18fa:	04 c0       	rjmp	.+8      	; 0x1904 <_Z13read_joystickv+0xe6>
    18fc:	81 e0       	ldi	r24, 0x01	; 1
    18fe:	80 93 55 05 	sts	0x0555, r24	; 0x800555 <joystick+0x5>
    1902:	02 c0       	rjmp	.+4      	; 0x1908 <_Z13read_joystickv+0xea>
			else joystick.button_2 = LOW;
    1904:	10 92 55 05 	sts	0x0555, r1	; 0x800555 <joystick+0x5>
			
			if ((digital_data & 0x10) == 0x10) joystick.button_3 = HIGH;
    1908:	14 ff       	sbrs	r17, 4
    190a:	04 c0       	rjmp	.+8      	; 0x1914 <_Z13read_joystickv+0xf6>
    190c:	81 e0       	ldi	r24, 0x01	; 1
    190e:	80 93 56 05 	sts	0x0556, r24	; 0x800556 <joystick+0x6>
    1912:	02 c0       	rjmp	.+4      	; 0x1918 <_Z13read_joystickv+0xfa>
			else joystick.button_3 = LOW;
    1914:	10 92 56 05 	sts	0x0556, r1	; 0x800556 <joystick+0x6>
			
			if ((digital_data & 0x04) == 0x04) joystick.button_4 = HIGH;
    1918:	12 ff       	sbrs	r17, 2
    191a:	04 c0       	rjmp	.+8      	; 0x1924 <_Z13read_joystickv+0x106>
    191c:	81 e0       	ldi	r24, 0x01	; 1
    191e:	80 93 57 05 	sts	0x0557, r24	; 0x800557 <joystick+0x7>
    1922:	02 c0       	rjmp	.+4      	; 0x1928 <_Z13read_joystickv+0x10a>
			else joystick.button_4 = LOW;
    1924:	10 92 57 05 	sts	0x0557, r1	; 0x800557 <joystick+0x7>
			
			// Map ADC values to Zones
			joystick.x_position = get_joystick_zone(AD1[0], AD1[1], 9);
    1928:	49 e0       	ldi	r20, 0x09	; 9
    192a:	50 e0       	ldi	r21, 0x00	; 0
    192c:	8e 2d       	mov	r24, r14
    192e:	09 df       	rcall	.-494    	; 0x1742 <_Z17get_joystick_zonehhi>
    1930:	90 93 51 05 	sts	0x0551, r25	; 0x800551 <joystick+0x1>
    1934:	80 93 50 05 	sts	0x0550, r24	; 0x800550 <joystick>
			joystick.y_position = get_joystick_zone(AD0[0], AD0[1], 20);
    1938:	44 e1       	ldi	r20, 0x14	; 20
    193a:	50 e0       	ldi	r21, 0x00	; 0
    193c:	6f 2d       	mov	r22, r15
    193e:	80 2f       	mov	r24, r16
    1940:	00 df       	rcall	.-512    	; 0x1742 <_Z17get_joystick_zonehhi>
    1942:	90 93 53 05 	sts	0x0553, r25	; 0x800553 <joystick+0x3>
    1946:	80 93 52 05 	sts	0x0552, r24	; 0x800552 <joystick+0x2>
		}
	}
    194a:	0f 90       	pop	r0
    194c:	df 91       	pop	r29
    194e:	cf 91       	pop	r28
    1950:	1f 91       	pop	r17
    1952:	0f 91       	pop	r16
    1954:	ff 90       	pop	r15
    1956:	ef 90       	pop	r14
    1958:	df 90       	pop	r13
    195a:	cf 90       	pop	r12
    195c:	08 95       	ret

0000195e <_Z9gyro_initv>:
Return Value	:	void
Example Call	:	gyro_init()
***********************************/
void gyro_init()
{
	check_device_ID(L3G4200D_ADDRESS, L3G4200D_WHO_AM_I, L3G4200D_KNOWN_ID);	// Verify Device ID
    195e:	43 ed       	ldi	r20, 0xD3	; 211
    1960:	6f e0       	ldi	r22, 0x0F	; 15
    1962:	82 ed       	ldi	r24, 0xD2	; 210
    1964:	66 d6       	rcall	.+3276   	; 0x2632 <_Z15check_device_IDhha>
	check_status(i2c_sendbyte(L3G4200D_ADDRESS, L3G4200D_CTRL_REG1, 0x1F));		// 100Hz, 25Hz, Normal Mode
    1966:	4f e1       	ldi	r20, 0x1F	; 31
    1968:	60 e2       	ldi	r22, 0x20	; 32
    196a:	82 ed       	ldi	r24, 0xD2	; 210
    196c:	b3 d0       	rcall	.+358    	; 0x1ad4 <_Z12i2c_sendbytehhh>
    196e:	49 d6       	rcall	.+3218   	; 0x2602 <_Z12check_status17status_check_cond>
	check_status(i2c_sendbyte(L3G4200D_ADDRESS, L3G4200D_CTRL_REG4, 0xB0));		// 2000dps
    1970:	40 eb       	ldi	r20, 0xB0	; 176
    1972:	63 e2       	ldi	r22, 0x23	; 35
    1974:	82 ed       	ldi	r24, 0xD2	; 210
    1976:	ae d0       	rcall	.+348    	; 0x1ad4 <_Z12i2c_sendbytehhh>
    1978:	44 c6       	rjmp	.+3208   	; 0x2602 <_Z12check_status17status_check_cond>

0000197a <_Z12convert_gyrotf>:
Arguments		:	Raw gyroscope reading, offset error value
Return Value	:	Angular velocity in DPS
Example Call	:	convert_gyro(X_DATA, X_OFFSET)
***********************************/
float convert_gyro(UINT16 value, float offset)
{
    197a:	cf 92       	push	r12
    197c:	df 92       	push	r13
    197e:	ef 92       	push	r14
    1980:	ff 92       	push	r15
    1982:	9c 01       	movw	r18, r24
    1984:	6a 01       	movw	r12, r20
    1986:	7b 01       	movw	r14, r22
    1988:	bc 01       	movw	r22, r24
    198a:	80 e0       	ldi	r24, 0x00	; 0
    198c:	90 e0       	ldi	r25, 0x00	; 0
	float angle_rate;
	
	// Convert 2's compliment to float value
	if (value>32767) angle_rate = (float)(value-65536);
    198e:	37 ff       	sbrs	r19, 7
    1990:	04 c0       	rjmp	.+8      	; 0x199a <_Z12convert_gyrotf+0x20>
    1992:	01 97       	sbiw	r24, 0x01	; 1
    1994:	0e 94 3f 17 	call	0x2e7e	; 0x2e7e <__floatsisf>
    1998:	02 c0       	rjmp	.+4      	; 0x199e <_Z12convert_gyrotf+0x24>
	else angle_rate = (float)value;
    199a:	0e 94 3d 17 	call	0x2e7a	; 0x2e7a <__floatunsisf>
	
	// Convert RPS to DPS and remove offsets
	angle_rate = 0.07*angle_rate - offset;
    199e:	29 e2       	ldi	r18, 0x29	; 41
    19a0:	3c e5       	ldi	r19, 0x5C	; 92
    19a2:	4f e8       	ldi	r20, 0x8F	; 143
    19a4:	5d e3       	ldi	r21, 0x3D	; 61
    19a6:	0e 94 1f 18 	call	0x303e	; 0x303e <__mulsf3>
    19aa:	a7 01       	movw	r20, r14
    19ac:	96 01       	movw	r18, r12
    19ae:	0e 94 d9 15 	call	0x2bb2	; 0x2bb2 <__subsf3>
	return angle_rate;
}
    19b2:	ff 90       	pop	r15
    19b4:	ef 90       	pop	r14
    19b6:	df 90       	pop	r13
    19b8:	cf 90       	pop	r12
    19ba:	08 95       	ret

000019bc <_Z9read_gyrov>:
Arguments		:	none
Return Value	:	Raw angular velocity
Example Call	:	read_gyro()
***********************************/
float read_gyro()
{
    19bc:	cf 93       	push	r28
    19be:	df 93       	push	r29
    19c0:	1f 92       	push	r1
    19c2:	1f 92       	push	r1
    19c4:	cd b7       	in	r28, 0x3d	; 61
    19c6:	de b7       	in	r29, 0x3e	; 62
	float yg_rate=0;
	INT8 gyro_data[2] = {0, 0};
    19c8:	19 82       	std	Y+1, r1	; 0x01
    19ca:	1a 82       	std	Y+2, r1	; 0x02
	
	// Read gyroscope data
	check_status(i2c_read_multi_byte(L3G4200D_ADDRESS, L3G4200D_OUT_Y_L, 2, gyro_data));
    19cc:	9e 01       	movw	r18, r28
    19ce:	2f 5f       	subi	r18, 0xFF	; 255
    19d0:	3f 4f       	sbci	r19, 0xFF	; 255
    19d2:	42 e0       	ldi	r20, 0x02	; 2
    19d4:	50 e0       	ldi	r21, 0x00	; 0
    19d6:	6a e2       	ldi	r22, 0x2A	; 42
    19d8:	82 ed       	ldi	r24, 0xD2	; 210
    19da:	1b d1       	rcall	.+566    	; 0x1c12 <_Z19i2c_read_multi_bytehhtPa>
    19dc:	12 d6       	rcall	.+3108   	; 0x2602 <_Z12check_status17status_check_cond>
	
	// Combine low and high bytes
	yg_rate = convert_gyro(((UINT8)gyro_data[0] | (UINT8)gyro_data[1]<<8), y_offset);
    19de:	8a 81       	ldd	r24, Y+2	; 0x02
    19e0:	90 e0       	ldi	r25, 0x00	; 0
    19e2:	98 2f       	mov	r25, r24
    19e4:	88 27       	eor	r24, r24
    19e6:	29 81       	ldd	r18, Y+1	; 0x01
    19e8:	44 ee       	ldi	r20, 0xE4	; 228
    19ea:	53 e8       	ldi	r21, 0x83	; 131
    19ec:	6e e6       	ldi	r22, 0x6E	; 110
    19ee:	7f e3       	ldi	r23, 0x3F	; 63
    19f0:	82 2b       	or	r24, r18
	
	return yg_rate;
}
    19f2:	0f 90       	pop	r0
    19f4:	0f 90       	pop	r0
    19f6:	df 91       	pop	r29
    19f8:	cf 91       	pop	r28
	
	// Read gyroscope data
	check_status(i2c_read_multi_byte(L3G4200D_ADDRESS, L3G4200D_OUT_Y_L, 2, gyro_data));
	
	// Combine low and high bytes
	yg_rate = convert_gyro(((UINT8)gyro_data[0] | (UINT8)gyro_data[1]<<8), y_offset);
    19fa:	bf cf       	rjmp	.-130    	; 0x197a <_Z12convert_gyrotf>

000019fc <_Z14get_gyro_anglemf>:
Arguments		:	Current program time, current combined pitch angle
Return Value	:	Gyroscope pitch angle
Example Call	:	get_gyro_angle(epoch(), tilt_angle)
***********************************/
float get_gyro_angle(unsigned long current_time, float pitch_angle)
{
    19fc:	4f 92       	push	r4
    19fe:	5f 92       	push	r5
    1a00:	6f 92       	push	r6
    1a02:	7f 92       	push	r7
    1a04:	8f 92       	push	r8
    1a06:	9f 92       	push	r9
    1a08:	af 92       	push	r10
    1a0a:	bf 92       	push	r11
    1a0c:	cf 92       	push	r12
    1a0e:	df 92       	push	r13
    1a10:	ef 92       	push	r14
    1a12:	ff 92       	push	r15
    1a14:	6b 01       	movw	r12, r22
    1a16:	7c 01       	movw	r14, r24
    1a18:	49 01       	movw	r8, r18
    1a1a:	5a 01       	movw	r10, r20
	float gyro_angle=0, delta=0, rate=0;
	
	rate = read_gyro();									// Read from gyroscope
    1a1c:	cf df       	rcall	.-98     	; 0x19bc <_Z9read_gyrov>
    1a1e:	2b 01       	movw	r4, r22
    1a20:	3c 01       	movw	r6, r24
	delta = (float)(current_time - last_time)*0.001;	// Time elapsed in seconds
    1a22:	80 91 68 05 	lds	r24, 0x0568	; 0x800568 <last_time>
    1a26:	90 91 69 05 	lds	r25, 0x0569	; 0x800569 <last_time+0x1>
    1a2a:	a0 91 6a 05 	lds	r26, 0x056A	; 0x80056a <last_time+0x2>
    1a2e:	b0 91 6b 05 	lds	r27, 0x056B	; 0x80056b <last_time+0x3>
	gyro_angle = (rate*delta) + pitch_angle;			// Integrating angular velocity
	last_time = current_time;							// Save current time for next iteration
    1a32:	c0 92 68 05 	sts	0x0568, r12	; 0x800568 <last_time>
    1a36:	d0 92 69 05 	sts	0x0569, r13	; 0x800569 <last_time+0x1>
    1a3a:	e0 92 6a 05 	sts	0x056A, r14	; 0x80056a <last_time+0x2>
    1a3e:	f0 92 6b 05 	sts	0x056B, r15	; 0x80056b <last_time+0x3>
float get_gyro_angle(unsigned long current_time, float pitch_angle)
{
	float gyro_angle=0, delta=0, rate=0;
	
	rate = read_gyro();									// Read from gyroscope
	delta = (float)(current_time - last_time)*0.001;	// Time elapsed in seconds
    1a42:	a7 01       	movw	r20, r14
    1a44:	96 01       	movw	r18, r12
    1a46:	28 1b       	sub	r18, r24
    1a48:	39 0b       	sbc	r19, r25
    1a4a:	4a 0b       	sbc	r20, r26
    1a4c:	5b 0b       	sbc	r21, r27
    1a4e:	ca 01       	movw	r24, r20
    1a50:	b9 01       	movw	r22, r18
    1a52:	0e 94 3d 17 	call	0x2e7a	; 0x2e7a <__floatunsisf>
    1a56:	2f e6       	ldi	r18, 0x6F	; 111
    1a58:	32 e1       	ldi	r19, 0x12	; 18
    1a5a:	43 e8       	ldi	r20, 0x83	; 131
    1a5c:	5a e3       	ldi	r21, 0x3A	; 58
    1a5e:	0e 94 1f 18 	call	0x303e	; 0x303e <__mulsf3>
    1a62:	9b 01       	movw	r18, r22
    1a64:	ac 01       	movw	r20, r24
	gyro_angle = (rate*delta) + pitch_angle;			// Integrating angular velocity
    1a66:	c3 01       	movw	r24, r6
    1a68:	b2 01       	movw	r22, r4
    1a6a:	0e 94 1f 18 	call	0x303e	; 0x303e <__mulsf3>
    1a6e:	a5 01       	movw	r20, r10
    1a70:	94 01       	movw	r18, r8
    1a72:	0e 94 da 15 	call	0x2bb4	; 0x2bb4 <__addsf3>
	last_time = current_time;							// Save current time for next iteration

	return gyro_angle;
    1a76:	ff 90       	pop	r15
    1a78:	ef 90       	pop	r14
    1a7a:	df 90       	pop	r13
    1a7c:	cf 90       	pop	r12
    1a7e:	bf 90       	pop	r11
    1a80:	af 90       	pop	r10
    1a82:	9f 90       	pop	r9
    1a84:	8f 90       	pop	r8
    1a86:	7f 90       	pop	r7
    1a88:	6f 90       	pop	r6
    1a8a:	5f 90       	pop	r5
    1a8c:	4f 90       	pop	r4
    1a8e:	08 95       	ret

00001a90 <_Z8i2c_initv>:
arguments		:	INT8 *data (points to the byte to which the data needs to be copied)
return value	:	void
*********************************/
void i2c_get(INT8 *data)
{
	*data = TWDR;					//copying data from TWDR register
    1a90:	10 92 b9 00 	sts	0x00B9, r1	; 0x8000b9 <__TEXT_REGION_LENGTH__+0x7000b9>
    1a94:	ec eb       	ldi	r30, 0xBC	; 188
    1a96:	f0 e0       	ldi	r31, 0x00	; 0
    1a98:	10 82       	st	Z, r1
    1a9a:	84 ec       	ldi	r24, 0xC4	; 196
    1a9c:	80 83       	st	Z, r24
    1a9e:	8a e0       	ldi	r24, 0x0A	; 10
    1aa0:	80 93 b8 00 	sts	0x00B8, r24	; 0x8000b8 <__TEXT_REGION_LENGTH__+0x7000b8>
    1aa4:	08 95       	ret

00001aa6 <_Z9i2c_startv>:
    1aa6:	ec eb       	ldi	r30, 0xBC	; 188
    1aa8:	f0 e0       	ldi	r31, 0x00	; 0
    1aaa:	80 81       	ld	r24, Z
    1aac:	80 66       	ori	r24, 0x60	; 96
    1aae:	80 83       	st	Z, r24
    1ab0:	08 95       	ret

00001ab2 <_Z11clear_twintv>:
    1ab2:	ec eb       	ldi	r30, 0xBC	; 188
    1ab4:	f0 e0       	ldi	r31, 0x00	; 0
    1ab6:	80 81       	ld	r24, Z
    1ab8:	80 68       	ori	r24, 0x80	; 128
    1aba:	80 83       	st	Z, r24
    1abc:	08 95       	ret

00001abe <_Z4waitv>:
    1abe:	80 91 bc 00 	lds	r24, 0x00BC	; 0x8000bc <__TEXT_REGION_LENGTH__+0x7000bc>
    1ac2:	87 ff       	sbrs	r24, 7
    1ac4:	fc cf       	rjmp	.-8      	; 0x1abe <_Z4waitv>
    1ac6:	08 95       	ret

00001ac8 <_Z8i2c_stopv>:
    1ac8:	ec eb       	ldi	r30, 0xBC	; 188
    1aca:	f0 e0       	ldi	r31, 0x00	; 0
    1acc:	80 81       	ld	r24, Z
    1ace:	80 61       	ori	r24, 0x10	; 16
    1ad0:	80 83       	st	Z, r24
    1ad2:	08 95       	ret

00001ad4 <_Z12i2c_sendbytehhh>:
UINT8 int_add (address of the internal register of the slave),
UINT8 data(byte of data which needs to be sent)
return value	:	enum (value which tells if the transmission was succesfull or not)
********************************/
STAT i2c_sendbyte(UINT8 dev_add, UINT8 int_add,UINT8 data)
{
    1ad4:	0f 93       	push	r16
    1ad6:	1f 93       	push	r17
    1ad8:	cf 93       	push	r28
    1ada:	df 93       	push	r29
    1adc:	1f 92       	push	r1
    1ade:	cd b7       	in	r28, 0x3d	; 61
    1ae0:	de b7       	in	r29, 0x3e	; 62
    1ae2:	16 2f       	mov	r17, r22
    1ae4:	04 2f       	mov	r16, r20
	i2c_start();					//starting transmission
    1ae6:	89 83       	std	Y+1, r24	; 0x01
    1ae8:	de df       	rcall	.-68     	; 0x1aa6 <_Z9i2c_startv>
	wait();							//then wait for succesfull transmission
    1aea:	e9 df       	rcall	.-46     	; 0x1abe <_Z4waitv>
return value	:	UINT8 (returns the status)
********************************/
UINT8 i2c_getstatus()
{
	UINT8 status;
	status = TWSR & 0xF8;			//5 bits of TWSR register gives the status
    1aec:	90 91 b9 00 	lds	r25, 0x00B9	; 0x8000b9 <__TEXT_REGION_LENGTH__+0x7000b9>
    1af0:	98 7f       	andi	r25, 0xF8	; 248
********************************/
STAT i2c_sendbyte(UINT8 dev_add, UINT8 int_add,UINT8 data)
{
	i2c_start();					//starting transmission
	wait();							//then wait for succesfull transmission
	if(i2c_getstatus() != 0x08)		//check status
    1af2:	89 81       	ldd	r24, Y+1	; 0x01
    1af4:	98 30       	cpi	r25, 0x08	; 8
    1af6:	29 f5       	brne	.+74     	; 0x1b42 <_Z12i2c_sendbytehhh+0x6e>
arguments		:	UINT8 data(the byte which is to be written)
return value	:	void
*********************************/
void i2c_write(UINT8 data)
{
	TWDR = data;					//writing data or add to TWDR register
    1af8:	80 93 bb 00 	sts	0x00BB, r24	; 0x8000bb <__TEXT_REGION_LENGTH__+0x7000bb>
	wait();							//then wait for succesfull transmission
	if(i2c_getstatus() != 0x08)		//check status
	return START_ERR;

	i2c_write(dev_add | i2write);		//writing slave + write to TWDR
	TWCR &= ~start;
    1afc:	80 91 bc 00 	lds	r24, 0x00BC	; 0x8000bc <__TEXT_REGION_LENGTH__+0x7000bc>
    1b00:	8f 7d       	andi	r24, 0xDF	; 223
    1b02:	80 93 bc 00 	sts	0x00BC, r24	; 0x8000bc <__TEXT_REGION_LENGTH__+0x7000bc>
	clear_twint();					//clear TWINT bit starts transmission
    1b06:	d5 df       	rcall	.-86     	; 0x1ab2 <_Z11clear_twintv>
	wait();
    1b08:	da df       	rcall	.-76     	; 0x1abe <_Z4waitv>
return value	:	UINT8 (returns the status)
********************************/
UINT8 i2c_getstatus()
{
	UINT8 status;
	status = TWSR & 0xF8;			//5 bits of TWSR register gives the status
    1b0a:	80 91 b9 00 	lds	r24, 0x00B9	; 0x8000b9 <__TEXT_REGION_LENGTH__+0x7000b9>
    1b0e:	88 7f       	andi	r24, 0xF8	; 248

	i2c_write(dev_add | i2write);		//writing slave + write to TWDR
	TWCR &= ~start;
	clear_twint();					//clear TWINT bit starts transmission
	wait();
	if(i2c_getstatus()!=0x18)
    1b10:	88 31       	cpi	r24, 0x18	; 24
    1b12:	c9 f4       	brne	.+50     	; 0x1b46 <_Z12i2c_sendbytehhh+0x72>
arguments		:	UINT8 data(the byte which is to be written)
return value	:	void
*********************************/
void i2c_write(UINT8 data)
{
	TWDR = data;					//writing data or add to TWDR register
    1b14:	10 93 bb 00 	sts	0x00BB, r17	; 0x8000bb <__TEXT_REGION_LENGTH__+0x7000bb>
	wait();
	if(i2c_getstatus()!=0x18)
	return SLAVEW_ERR;

	i2c_write(int_add);				//writing int_add to TWDR
	clear_twint();
    1b18:	cc df       	rcall	.-104    	; 0x1ab2 <_Z11clear_twintv>
	wait();
    1b1a:	d1 df       	rcall	.-94     	; 0x1abe <_Z4waitv>
return value	:	UINT8 (returns the status)
********************************/
UINT8 i2c_getstatus()
{
	UINT8 status;
	status = TWSR & 0xF8;			//5 bits of TWSR register gives the status
    1b1c:	80 91 b9 00 	lds	r24, 0x00B9	; 0x8000b9 <__TEXT_REGION_LENGTH__+0x7000b9>
    1b20:	88 7f       	andi	r24, 0xF8	; 248
	return SLAVEW_ERR;

	i2c_write(int_add);				//writing int_add to TWDR
	clear_twint();
	wait();
	if(i2c_getstatus()!=0x28)
    1b22:	88 32       	cpi	r24, 0x28	; 40
    1b24:	11 f0       	breq	.+4      	; 0x1b2a <_Z12i2c_sendbytehhh+0x56>
	{	return WRITE_ERR;	}
    1b26:	8b ef       	ldi	r24, 0xFB	; 251
    1b28:	0f c0       	rjmp	.+30     	; 0x1b48 <_Z12i2c_sendbytehhh+0x74>
arguments		:	UINT8 data(the byte which is to be written)
return value	:	void
*********************************/
void i2c_write(UINT8 data)
{
	TWDR = data;					//writing data or add to TWDR register
    1b2a:	00 93 bb 00 	sts	0x00BB, r16	; 0x8000bb <__TEXT_REGION_LENGTH__+0x7000bb>
	wait();
	if(i2c_getstatus()!=0x28)
	{	return WRITE_ERR;	}

	i2c_write(data);				//writing one byte of data...to write multi byte | with 0x80
	clear_twint();
    1b2e:	c1 df       	rcall	.-126    	; 0x1ab2 <_Z11clear_twintv>
	wait();
    1b30:	c6 df       	rcall	.-116    	; 0x1abe <_Z4waitv>
return value	:	UINT8 (returns the status)
********************************/
UINT8 i2c_getstatus()
{
	UINT8 status;
	status = TWSR & 0xF8;			//5 bits of TWSR register gives the status
    1b32:	80 91 b9 00 	lds	r24, 0x00B9	; 0x8000b9 <__TEXT_REGION_LENGTH__+0x7000b9>
    1b36:	88 7f       	andi	r24, 0xF8	; 248
	{	return WRITE_ERR;	}

	i2c_write(data);				//writing one byte of data...to write multi byte | with 0x80
	clear_twint();
	wait();
	if(i2c_getstatus()!=0x28)
    1b38:	88 32       	cpi	r24, 0x28	; 40
    1b3a:	a9 f7       	brne	.-22     	; 0x1b26 <_Z12i2c_sendbytehhh+0x52>
	return WRITE_ERR;

	i2c_stop();
    1b3c:	c5 df       	rcall	.-118    	; 0x1ac8 <_Z8i2c_stopv>

	return OK;
    1b3e:	80 e0       	ldi	r24, 0x00	; 0
    1b40:	03 c0       	rjmp	.+6      	; 0x1b48 <_Z12i2c_sendbytehhh+0x74>
STAT i2c_sendbyte(UINT8 dev_add, UINT8 int_add,UINT8 data)
{
	i2c_start();					//starting transmission
	wait();							//then wait for succesfull transmission
	if(i2c_getstatus() != 0x08)		//check status
	return START_ERR;
    1b42:	88 ef       	ldi	r24, 0xF8	; 248
    1b44:	01 c0       	rjmp	.+2      	; 0x1b48 <_Z12i2c_sendbytehhh+0x74>
	i2c_write(dev_add | i2write);		//writing slave + write to TWDR
	TWCR &= ~start;
	clear_twint();					//clear TWINT bit starts transmission
	wait();
	if(i2c_getstatus()!=0x18)
	return SLAVEW_ERR;
    1b46:	89 ef       	ldi	r24, 0xF9	; 249
	return WRITE_ERR;

	i2c_stop();

	return OK;
}
    1b48:	0f 90       	pop	r0
    1b4a:	df 91       	pop	r29
    1b4c:	cf 91       	pop	r28
    1b4e:	1f 91       	pop	r17
    1b50:	0f 91       	pop	r16
    1b52:	08 95       	ret

00001b54 <_Z11i2c_getbytehhPa>:
UINT8 int_add (address of the internal register of the slave),
INT8 *data(points to the byte to which the data needs to be copied)
return value	:	enum (value which tells if the transmission was succesfull or not)
********************************/
STAT i2c_getbyte(UINT8 dev_add,UINT8 int_add,INT8 *data)
{
    1b54:	0f 93       	push	r16
    1b56:	1f 93       	push	r17
    1b58:	cf 93       	push	r28
    1b5a:	df 93       	push	r29
    1b5c:	c8 2f       	mov	r28, r24
    1b5e:	d6 2f       	mov	r29, r22
    1b60:	8a 01       	movw	r16, r20
	i2c_start();					//starting transmission
    1b62:	a1 df       	rcall	.-190    	; 0x1aa6 <_Z9i2c_startv>
	wait();							//then wait for succesfull transmission
    1b64:	ac df       	rcall	.-168    	; 0x1abe <_Z4waitv>
return value	:	UINT8 (returns the status)
********************************/
UINT8 i2c_getstatus()
{
	UINT8 status;
	status = TWSR & 0xF8;			//5 bits of TWSR register gives the status
    1b66:	80 91 b9 00 	lds	r24, 0x00B9	; 0x8000b9 <__TEXT_REGION_LENGTH__+0x7000b9>
    1b6a:	88 7f       	andi	r24, 0xF8	; 248
********************************/
STAT i2c_getbyte(UINT8 dev_add,UINT8 int_add,INT8 *data)
{
	i2c_start();					//starting transmission
	wait();							//then wait for succesfull transmission
	if(i2c_getstatus() != 0x08)		//checking status
    1b6c:	88 30       	cpi	r24, 0x08	; 8
    1b6e:	09 f0       	breq	.+2      	; 0x1b72 <_Z11i2c_getbytehhPa+0x1e>
    1b70:	40 c0       	rjmp	.+128    	; 0x1bf2 <_Z11i2c_getbytehhPa+0x9e>
arguments		:	UINT8 data(the byte which is to be written)
return value	:	void
*********************************/
void i2c_write(UINT8 data)
{
	TWDR = data;					//writing data or add to TWDR register
    1b72:	c0 93 bb 00 	sts	0x00BB, r28	; 0x8000bb <__TEXT_REGION_LENGTH__+0x7000bb>
	wait();							//then wait for succesfull transmission
	if(i2c_getstatus() != 0x08)		//checking status
	return START_ERR;

	i2c_write(dev_add | i2write);		//writing slave + write to TWDR
	TWCR &= ~start;
    1b76:	80 91 bc 00 	lds	r24, 0x00BC	; 0x8000bc <__TEXT_REGION_LENGTH__+0x7000bc>
    1b7a:	8f 7d       	andi	r24, 0xDF	; 223
    1b7c:	80 93 bc 00 	sts	0x00BC, r24	; 0x8000bc <__TEXT_REGION_LENGTH__+0x7000bc>
	clear_twint();					//clear TWINT bit and starts transmission
    1b80:	98 df       	rcall	.-208    	; 0x1ab2 <_Z11clear_twintv>
	wait();
    1b82:	9d df       	rcall	.-198    	; 0x1abe <_Z4waitv>
return value	:	UINT8 (returns the status)
********************************/
UINT8 i2c_getstatus()
{
	UINT8 status;
	status = TWSR & 0xF8;			//5 bits of TWSR register gives the status
    1b84:	80 91 b9 00 	lds	r24, 0x00B9	; 0x8000b9 <__TEXT_REGION_LENGTH__+0x7000b9>
    1b88:	88 7f       	andi	r24, 0xF8	; 248

	i2c_write(dev_add | i2write);		//writing slave + write to TWDR
	TWCR &= ~start;
	clear_twint();					//clear TWINT bit and starts transmission
	wait();
	if(i2c_getstatus()!=0x18)
    1b8a:	88 31       	cpi	r24, 0x18	; 24
    1b8c:	a1 f5       	brne	.+104    	; 0x1bf6 <_Z11i2c_getbytehhPa+0xa2>
arguments		:	UINT8 data(the byte which is to be written)
return value	:	void
*********************************/
void i2c_write(UINT8 data)
{
	TWDR = data;					//writing data or add to TWDR register
    1b8e:	d0 93 bb 00 	sts	0x00BB, r29	; 0x8000bb <__TEXT_REGION_LENGTH__+0x7000bb>
	wait();
	if(i2c_getstatus()!=0x18)
	return SLAVEW_ERR;

	i2c_write(int_add);				//writing int_add to TWDR
	clear_twint();
    1b92:	8f df       	rcall	.-226    	; 0x1ab2 <_Z11clear_twintv>
	wait();
    1b94:	94 df       	rcall	.-216    	; 0x1abe <_Z4waitv>
return value	:	UINT8 (returns the status)
********************************/
UINT8 i2c_getstatus()
{
	UINT8 status;
	status = TWSR & 0xF8;			//5 bits of TWSR register gives the status
    1b96:	80 91 b9 00 	lds	r24, 0x00B9	; 0x8000b9 <__TEXT_REGION_LENGTH__+0x7000b9>
    1b9a:	88 7f       	andi	r24, 0xF8	; 248
	return SLAVEW_ERR;

	i2c_write(int_add);				//writing int_add to TWDR
	clear_twint();
	wait();
	if(i2c_getstatus()!=0x28)
    1b9c:	88 32       	cpi	r24, 0x28	; 40
    1b9e:	69 f5       	brne	.+90     	; 0x1bfa <_Z11i2c_getbytehhPa+0xa6>
	return WRITE_ERR;

	i2c_start();					//repeated start
    1ba0:	82 df       	rcall	.-252    	; 0x1aa6 <_Z9i2c_startv>
	wait();
    1ba2:	8d df       	rcall	.-230    	; 0x1abe <_Z4waitv>
return value	:	UINT8 (returns the status)
********************************/
UINT8 i2c_getstatus()
{
	UINT8 status;
	status = TWSR & 0xF8;			//5 bits of TWSR register gives the status
    1ba4:	80 91 b9 00 	lds	r24, 0x00B9	; 0x8000b9 <__TEXT_REGION_LENGTH__+0x7000b9>
    1ba8:	88 7f       	andi	r24, 0xF8	; 248
	if(i2c_getstatus()!=0x28)
	return WRITE_ERR;

	i2c_start();					//repeated start
	wait();
	if(i2c_getstatus() != 0x10)
    1baa:	80 31       	cpi	r24, 0x10	; 16
    1bac:	41 f5       	brne	.+80     	; 0x1bfe <_Z11i2c_getbytehhPa+0xaa>
	return REPSTART_ERR;

	i2c_write(dev_add | i2read);		//writing slave + read to TWDR register
    1bae:	c1 60       	ori	r28, 0x01	; 1
arguments		:	UINT8 data(the byte which is to be written)
return value	:	void
*********************************/
void i2c_write(UINT8 data)
{
	TWDR = data;					//writing data or add to TWDR register
    1bb0:	c0 93 bb 00 	sts	0x00BB, r28	; 0x8000bb <__TEXT_REGION_LENGTH__+0x7000bb>
	wait();
	if(i2c_getstatus() != 0x10)
	return REPSTART_ERR;

	i2c_write(dev_add | i2read);		//writing slave + read to TWDR register
	TWCR &= ~start;
    1bb4:	80 91 bc 00 	lds	r24, 0x00BC	; 0x8000bc <__TEXT_REGION_LENGTH__+0x7000bc>
    1bb8:	8f 7d       	andi	r24, 0xDF	; 223
    1bba:	80 93 bc 00 	sts	0x00BC, r24	; 0x8000bc <__TEXT_REGION_LENGTH__+0x7000bc>
	clear_twint();
    1bbe:	79 df       	rcall	.-270    	; 0x1ab2 <_Z11clear_twintv>
	wait();
    1bc0:	7e df       	rcall	.-260    	; 0x1abe <_Z4waitv>
return value	:	UINT8 (returns the status)
********************************/
UINT8 i2c_getstatus()
{
	UINT8 status;
	status = TWSR & 0xF8;			//5 bits of TWSR register gives the status
    1bc2:	80 91 b9 00 	lds	r24, 0x00B9	; 0x8000b9 <__TEXT_REGION_LENGTH__+0x7000b9>
    1bc6:	88 7f       	andi	r24, 0xF8	; 248

	i2c_write(dev_add | i2read);		//writing slave + read to TWDR register
	TWCR &= ~start;
	clear_twint();
	wait();
	if(i2c_getstatus()!=0x40)
    1bc8:	80 34       	cpi	r24, 0x40	; 64
    1bca:	d9 f4       	brne	.+54     	; 0x1c02 <_Z11i2c_getbytehhPa+0xae>
	return SLAVER_ERR;

	TWCR &= ~eack;
    1bcc:	80 91 bc 00 	lds	r24, 0x00BC	; 0x8000bc <__TEXT_REGION_LENGTH__+0x7000bc>
    1bd0:	8f 7b       	andi	r24, 0xBF	; 191
    1bd2:	80 93 bc 00 	sts	0x00BC, r24	; 0x8000bc <__TEXT_REGION_LENGTH__+0x7000bc>
	clear_twint();
    1bd6:	6d df       	rcall	.-294    	; 0x1ab2 <_Z11clear_twintv>
	wait();
    1bd8:	72 df       	rcall	.-284    	; 0x1abe <_Z4waitv>
return value	:	UINT8 (returns the status)
********************************/
UINT8 i2c_getstatus()
{
	UINT8 status;
	status = TWSR & 0xF8;			//5 bits of TWSR register gives the status
    1bda:	80 91 b9 00 	lds	r24, 0x00B9	; 0x8000b9 <__TEXT_REGION_LENGTH__+0x7000b9>
    1bde:	88 7f       	andi	r24, 0xF8	; 248
	return SLAVER_ERR;

	TWCR &= ~eack;
	clear_twint();
	wait();
	if(i2c_getstatus()!=0x58)
    1be0:	88 35       	cpi	r24, 0x58	; 88
    1be2:	89 f4       	brne	.+34     	; 0x1c06 <_Z11i2c_getbytehhPa+0xb2>
arguments		:	INT8 *data (points to the byte to which the data needs to be copied)
return value	:	void
*********************************/
void i2c_get(INT8 *data)
{
	*data = TWDR;					//copying data from TWDR register
    1be4:	80 91 bb 00 	lds	r24, 0x00BB	; 0x8000bb <__TEXT_REGION_LENGTH__+0x7000bb>
    1be8:	f8 01       	movw	r30, r16
    1bea:	80 83       	st	Z, r24
	if(i2c_getstatus()!=0x58)
	return READ_ERR;

	i2c_get(data);					//getting data to the char pointer

	i2c_stop();						//stopping the transmission
    1bec:	6d df       	rcall	.-294    	; 0x1ac8 <_Z8i2c_stopv>

	return OK;
    1bee:	80 e0       	ldi	r24, 0x00	; 0
    1bf0:	0b c0       	rjmp	.+22     	; 0x1c08 <_Z11i2c_getbytehhPa+0xb4>
STAT i2c_getbyte(UINT8 dev_add,UINT8 int_add,INT8 *data)
{
	i2c_start();					//starting transmission
	wait();							//then wait for succesfull transmission
	if(i2c_getstatus() != 0x08)		//checking status
	return START_ERR;
    1bf2:	88 ef       	ldi	r24, 0xF8	; 248
    1bf4:	09 c0       	rjmp	.+18     	; 0x1c08 <_Z11i2c_getbytehhPa+0xb4>
	i2c_write(dev_add | i2write);		//writing slave + write to TWDR
	TWCR &= ~start;
	clear_twint();					//clear TWINT bit and starts transmission
	wait();
	if(i2c_getstatus()!=0x18)
	return SLAVEW_ERR;
    1bf6:	89 ef       	ldi	r24, 0xF9	; 249
    1bf8:	07 c0       	rjmp	.+14     	; 0x1c08 <_Z11i2c_getbytehhPa+0xb4>

	i2c_write(int_add);				//writing int_add to TWDR
	clear_twint();
	wait();
	if(i2c_getstatus()!=0x28)
	return WRITE_ERR;
    1bfa:	8b ef       	ldi	r24, 0xFB	; 251
    1bfc:	05 c0       	rjmp	.+10     	; 0x1c08 <_Z11i2c_getbytehhPa+0xb4>

	i2c_start();					//repeated start
	wait();
	if(i2c_getstatus() != 0x10)
	return REPSTART_ERR;
    1bfe:	8d ef       	ldi	r24, 0xFD	; 253
    1c00:	03 c0       	rjmp	.+6      	; 0x1c08 <_Z11i2c_getbytehhPa+0xb4>
	i2c_write(dev_add | i2read);		//writing slave + read to TWDR register
	TWCR &= ~start;
	clear_twint();
	wait();
	if(i2c_getstatus()!=0x40)
	return SLAVER_ERR;
    1c02:	8a ef       	ldi	r24, 0xFA	; 250
    1c04:	01 c0       	rjmp	.+2      	; 0x1c08 <_Z11i2c_getbytehhPa+0xb4>

	TWCR &= ~eack;
	clear_twint();
	wait();
	if(i2c_getstatus()!=0x58)
	return READ_ERR;
    1c06:	8c ef       	ldi	r24, 0xFC	; 252
	i2c_get(data);					//getting data to the char pointer

	i2c_stop();						//stopping the transmission

	return OK;
}
    1c08:	df 91       	pop	r29
    1c0a:	cf 91       	pop	r28
    1c0c:	1f 91       	pop	r17
    1c0e:	0f 91       	pop	r16
    1c10:	08 95       	ret

00001c12 <_Z19i2c_read_multi_bytehhtPa>:
UINT16 n(no of bytes which needs to be read)
INT8 *data(points to the byte to which the data needs to be copied)
return value	:	enum (value which tells if the transmission was successful or not)
*********************************/
STAT i2c_read_multi_byte(UINT8 dev_add,UINT8 int_add,UINT16 n,INT8 *data)
{
    1c12:	cf 92       	push	r12
    1c14:	df 92       	push	r13
    1c16:	ef 92       	push	r14
    1c18:	ff 92       	push	r15
    1c1a:	0f 93       	push	r16
    1c1c:	1f 93       	push	r17
    1c1e:	cf 93       	push	r28
    1c20:	df 93       	push	r29
    1c22:	c8 2f       	mov	r28, r24
    1c24:	d6 2f       	mov	r29, r22
    1c26:	7a 01       	movw	r14, r20
    1c28:	89 01       	movw	r16, r18
	UINT16 i;
	i2c_start();					//starting transmission
    1c2a:	3d df       	rcall	.-390    	; 0x1aa6 <_Z9i2c_startv>
	wait();							//then wait for successful transmission
    1c2c:	48 df       	rcall	.-368    	; 0x1abe <_Z4waitv>
return value	:	UINT8 (returns the status)
********************************/
UINT8 i2c_getstatus()
{
	UINT8 status;
	status = TWSR & 0xF8;			//5 bits of TWSR register gives the status
    1c2e:	80 91 b9 00 	lds	r24, 0x00B9	; 0x8000b9 <__TEXT_REGION_LENGTH__+0x7000b9>
    1c32:	88 7f       	andi	r24, 0xF8	; 248
STAT i2c_read_multi_byte(UINT8 dev_add,UINT8 int_add,UINT16 n,INT8 *data)
{
	UINT16 i;
	i2c_start();					//starting transmission
	wait();							//then wait for successful transmission
	if(i2c_getstatus() != 0x08)		//check status
    1c34:	88 30       	cpi	r24, 0x08	; 8
    1c36:	09 f0       	breq	.+2      	; 0x1c3a <_Z19i2c_read_multi_bytehhtPa+0x28>
    1c38:	5f c0       	rjmp	.+190    	; 0x1cf8 <_Z19i2c_read_multi_bytehhtPa+0xe6>
arguments		:	UINT8 data(the byte which is to be written)
return value	:	void
*********************************/
void i2c_write(UINT8 data)
{
	TWDR = data;					//writing data or add to TWDR register
    1c3a:	c0 93 bb 00 	sts	0x00BB, r28	; 0x8000bb <__TEXT_REGION_LENGTH__+0x7000bb>
	wait();							//then wait for successful transmission
	if(i2c_getstatus() != 0x08)		//check status
	return START_ERR;

	i2c_write(dev_add | i2write);		//writing slave + write to TWDR
	TWCR &=~start;					//to avoid transmitting start bit again
    1c3e:	80 91 bc 00 	lds	r24, 0x00BC	; 0x8000bc <__TEXT_REGION_LENGTH__+0x7000bc>
    1c42:	8f 7d       	andi	r24, 0xDF	; 223
    1c44:	80 93 bc 00 	sts	0x00BC, r24	; 0x8000bc <__TEXT_REGION_LENGTH__+0x7000bc>
	clear_twint();					//clear TWINT bit and starts transmission
    1c48:	34 df       	rcall	.-408    	; 0x1ab2 <_Z11clear_twintv>
	wait();
    1c4a:	39 df       	rcall	.-398    	; 0x1abe <_Z4waitv>
return value	:	UINT8 (returns the status)
********************************/
UINT8 i2c_getstatus()
{
	UINT8 status;
	status = TWSR & 0xF8;			//5 bits of TWSR register gives the status
    1c4c:	80 91 b9 00 	lds	r24, 0x00B9	; 0x8000b9 <__TEXT_REGION_LENGTH__+0x7000b9>
    1c50:	88 7f       	andi	r24, 0xF8	; 248

	i2c_write(dev_add | i2write);		//writing slave + write to TWDR
	TWCR &=~start;					//to avoid transmitting start bit again
	clear_twint();					//clear TWINT bit and starts transmission
	wait();
	if(i2c_getstatus()!=0x18)
    1c52:	88 31       	cpi	r24, 0x18	; 24
    1c54:	09 f0       	breq	.+2      	; 0x1c58 <_Z19i2c_read_multi_bytehhtPa+0x46>
    1c56:	52 c0       	rjmp	.+164    	; 0x1cfc <_Z19i2c_read_multi_bytehhtPa+0xea>
	return SLAVEW_ERR;

	i2c_write(int_add | 0x80);		//to read multi-byte logical or(|) the register with 0x80
    1c58:	d0 68       	ori	r29, 0x80	; 128
arguments		:	UINT8 data(the byte which is to be written)
return value	:	void
*********************************/
void i2c_write(UINT8 data)
{
	TWDR = data;					//writing data or add to TWDR register
    1c5a:	d0 93 bb 00 	sts	0x00BB, r29	; 0x8000bb <__TEXT_REGION_LENGTH__+0x7000bb>
	wait();
	if(i2c_getstatus()!=0x18)
	return SLAVEW_ERR;

	i2c_write(int_add | 0x80);		//to read multi-byte logical or(|) the register with 0x80
	clear_twint();
    1c5e:	29 df       	rcall	.-430    	; 0x1ab2 <_Z11clear_twintv>
	wait();
    1c60:	2e df       	rcall	.-420    	; 0x1abe <_Z4waitv>
return value	:	UINT8 (returns the status)
********************************/
UINT8 i2c_getstatus()
{
	UINT8 status;
	status = TWSR & 0xF8;			//5 bits of TWSR register gives the status
    1c62:	80 91 b9 00 	lds	r24, 0x00B9	; 0x8000b9 <__TEXT_REGION_LENGTH__+0x7000b9>
    1c66:	88 7f       	andi	r24, 0xF8	; 248
	return SLAVEW_ERR;

	i2c_write(int_add | 0x80);		//to read multi-byte logical or(|) the register with 0x80
	clear_twint();
	wait();
	if(i2c_getstatus()!=0x28)
    1c68:	88 32       	cpi	r24, 0x28	; 40
    1c6a:	09 f0       	breq	.+2      	; 0x1c6e <_Z19i2c_read_multi_bytehhtPa+0x5c>
    1c6c:	49 c0       	rjmp	.+146    	; 0x1d00 <_Z19i2c_read_multi_bytehhtPa+0xee>
	return WRITE_ERR;

	i2c_start();					//repeated start
    1c6e:	1b df       	rcall	.-458    	; 0x1aa6 <_Z9i2c_startv>
	wait();
    1c70:	26 df       	rcall	.-436    	; 0x1abe <_Z4waitv>
return value	:	UINT8 (returns the status)
********************************/
UINT8 i2c_getstatus()
{
	UINT8 status;
	status = TWSR & 0xF8;			//5 bits of TWSR register gives the status
    1c72:	80 91 b9 00 	lds	r24, 0x00B9	; 0x8000b9 <__TEXT_REGION_LENGTH__+0x7000b9>
    1c76:	88 7f       	andi	r24, 0xF8	; 248
	if(i2c_getstatus()!=0x28)
	return WRITE_ERR;

	i2c_start();					//repeated start
	wait();
	if(i2c_getstatus() != 0x10)
    1c78:	80 31       	cpi	r24, 0x10	; 16
    1c7a:	09 f0       	breq	.+2      	; 0x1c7e <_Z19i2c_read_multi_bytehhtPa+0x6c>
    1c7c:	43 c0       	rjmp	.+134    	; 0x1d04 <_Z19i2c_read_multi_bytehhtPa+0xf2>
	return REPSTART_ERR;

	i2c_write(dev_add | i2read);		//writing slave + read to TWDR register
    1c7e:	c1 60       	ori	r28, 0x01	; 1
arguments		:	UINT8 data(the byte which is to be written)
return value	:	void
*********************************/
void i2c_write(UINT8 data)
{
	TWDR = data;					//writing data or add to TWDR register
    1c80:	c0 93 bb 00 	sts	0x00BB, r28	; 0x8000bb <__TEXT_REGION_LENGTH__+0x7000bb>
	wait();
	if(i2c_getstatus() != 0x10)
	return REPSTART_ERR;

	i2c_write(dev_add | i2read);		//writing slave + read to TWDR register
	TWCR &= ~start;
    1c84:	80 91 bc 00 	lds	r24, 0x00BC	; 0x8000bc <__TEXT_REGION_LENGTH__+0x7000bc>
    1c88:	8f 7d       	andi	r24, 0xDF	; 223
    1c8a:	80 93 bc 00 	sts	0x00BC, r24	; 0x8000bc <__TEXT_REGION_LENGTH__+0x7000bc>
	clear_twint();
    1c8e:	11 df       	rcall	.-478    	; 0x1ab2 <_Z11clear_twintv>
	wait();
    1c90:	16 df       	rcall	.-468    	; 0x1abe <_Z4waitv>
return value	:	UINT8 (returns the status)
********************************/
UINT8 i2c_getstatus()
{
	UINT8 status;
	status = TWSR & 0xF8;			//5 bits of TWSR register gives the status
    1c92:	80 91 b9 00 	lds	r24, 0x00B9	; 0x8000b9 <__TEXT_REGION_LENGTH__+0x7000b9>
    1c96:	88 7f       	andi	r24, 0xF8	; 248

	i2c_write(dev_add | i2read);		//writing slave + read to TWDR register
	TWCR &= ~start;
	clear_twint();
	wait();
	if(i2c_getstatus()!=0x40)
    1c98:	80 34       	cpi	r24, 0x40	; 64
    1c9a:	b1 f5       	brne	.+108    	; 0x1d08 <_Z19i2c_read_multi_bytehhtPa+0xf6>
    1c9c:	e8 01       	movw	r28, r16
    1c9e:	00 e0       	ldi	r16, 0x00	; 0
    1ca0:	10 e0       	ldi	r17, 0x00	; 0
	return SLAVER_ERR;

	for(i=0;i<n;i++)
	{
		if(i==(n-1))				//if last byte send nack
    1ca2:	67 01       	movw	r12, r14
    1ca4:	81 e0       	ldi	r24, 0x01	; 1
    1ca6:	c8 1a       	sub	r12, r24
    1ca8:	d1 08       	sbc	r13, r1
	clear_twint();
	wait();
	if(i2c_getstatus()!=0x40)
	return SLAVER_ERR;

	for(i=0;i<n;i++)
    1caa:	0e 15       	cp	r16, r14
    1cac:	1f 05       	cpc	r17, r15
    1cae:	09 f1       	breq	.+66     	; 0x1cf2 <_Z19i2c_read_multi_bytehhtPa+0xe0>
	{
		if(i==(n-1))				//if last byte send nack
		{
			TWCR &= ~eack;			//sending NACK since it is the last bit
    1cb0:	80 91 bc 00 	lds	r24, 0x00BC	; 0x8000bc <__TEXT_REGION_LENGTH__+0x7000bc>
	if(i2c_getstatus()!=0x40)
	return SLAVER_ERR;

	for(i=0;i<n;i++)
	{
		if(i==(n-1))				//if last byte send nack
    1cb4:	0c 15       	cp	r16, r12
    1cb6:	1d 05       	cpc	r17, r13
    1cb8:	59 f4       	brne	.+22     	; 0x1cd0 <_Z19i2c_read_multi_bytehhtPa+0xbe>
		{
			TWCR &= ~eack;			//sending NACK since it is the last bit
    1cba:	8f 7b       	andi	r24, 0xBF	; 191
    1cbc:	80 93 bc 00 	sts	0x00BC, r24	; 0x8000bc <__TEXT_REGION_LENGTH__+0x7000bc>
			clear_twint();
    1cc0:	f8 de       	rcall	.-528    	; 0x1ab2 <_Z11clear_twintv>
			wait();
    1cc2:	fd de       	rcall	.-518    	; 0x1abe <_Z4waitv>
return value	:	UINT8 (returns the status)
********************************/
UINT8 i2c_getstatus()
{
	UINT8 status;
	status = TWSR & 0xF8;			//5 bits of TWSR register gives the status
    1cc4:	80 91 b9 00 	lds	r24, 0x00B9	; 0x8000b9 <__TEXT_REGION_LENGTH__+0x7000b9>
    1cc8:	88 7f       	andi	r24, 0xF8	; 248
		if(i==(n-1))				//if last byte send nack
		{
			TWCR &= ~eack;			//sending NACK since it is the last bit
			clear_twint();
			wait();
			if(i2c_getstatus()!=0x58)
    1cca:	88 35       	cpi	r24, 0x58	; 88
    1ccc:	59 f0       	breq	.+22     	; 0x1ce4 <_Z19i2c_read_multi_bytehhtPa+0xd2>
    1cce:	1e c0       	rjmp	.+60     	; 0x1d0c <_Z19i2c_read_multi_bytehhtPa+0xfa>
			return NACK_ERR;
			i2c_get(&data[i]);
		}
		else
		{
			TWCR |= eack;			//sending ACK
    1cd0:	80 64       	ori	r24, 0x40	; 64
    1cd2:	80 93 bc 00 	sts	0x00BC, r24	; 0x8000bc <__TEXT_REGION_LENGTH__+0x7000bc>
			clear_twint();
    1cd6:	ed de       	rcall	.-550    	; 0x1ab2 <_Z11clear_twintv>
			wait();
    1cd8:	f2 de       	rcall	.-540    	; 0x1abe <_Z4waitv>
return value	:	UINT8 (returns the status)
********************************/
UINT8 i2c_getstatus()
{
	UINT8 status;
	status = TWSR & 0xF8;			//5 bits of TWSR register gives the status
    1cda:	80 91 b9 00 	lds	r24, 0x00B9	; 0x8000b9 <__TEXT_REGION_LENGTH__+0x7000b9>
    1cde:	88 7f       	andi	r24, 0xF8	; 248
		else
		{
			TWCR |= eack;			//sending ACK
			clear_twint();
			wait();
			if(i2c_getstatus()!=0x50)
    1ce0:	80 35       	cpi	r24, 0x50	; 80
    1ce2:	b1 f4       	brne	.+44     	; 0x1d10 <_Z19i2c_read_multi_bytehhtPa+0xfe>
arguments		:	INT8 *data (points to the byte to which the data needs to be copied)
return value	:	void
*********************************/
void i2c_get(INT8 *data)
{
	*data = TWDR;					//copying data from TWDR register
    1ce4:	80 91 bb 00 	lds	r24, 0x00BB	; 0x8000bb <__TEXT_REGION_LENGTH__+0x7000bb>
    1ce8:	88 83       	st	Y, r24
	clear_twint();
	wait();
	if(i2c_getstatus()!=0x40)
	return SLAVER_ERR;

	for(i=0;i<n;i++)
    1cea:	0f 5f       	subi	r16, 0xFF	; 255
    1cec:	1f 4f       	sbci	r17, 0xFF	; 255
    1cee:	21 96       	adiw	r28, 0x01	; 1
    1cf0:	dc cf       	rjmp	.-72     	; 0x1caa <_Z19i2c_read_multi_bytehhtPa+0x98>

			i2c_get(&data[i]);		//getting required data
		}
	}

	i2c_stop();						//stopping the transmission
    1cf2:	ea de       	rcall	.-556    	; 0x1ac8 <_Z8i2c_stopv>

	return OK;
    1cf4:	80 e0       	ldi	r24, 0x00	; 0
    1cf6:	0d c0       	rjmp	.+26     	; 0x1d12 <_Z19i2c_read_multi_bytehhtPa+0x100>
{
	UINT16 i;
	i2c_start();					//starting transmission
	wait();							//then wait for successful transmission
	if(i2c_getstatus() != 0x08)		//check status
	return START_ERR;
    1cf8:	88 ef       	ldi	r24, 0xF8	; 248
    1cfa:	0b c0       	rjmp	.+22     	; 0x1d12 <_Z19i2c_read_multi_bytehhtPa+0x100>
	i2c_write(dev_add | i2write);		//writing slave + write to TWDR
	TWCR &=~start;					//to avoid transmitting start bit again
	clear_twint();					//clear TWINT bit and starts transmission
	wait();
	if(i2c_getstatus()!=0x18)
	return SLAVEW_ERR;
    1cfc:	89 ef       	ldi	r24, 0xF9	; 249
    1cfe:	09 c0       	rjmp	.+18     	; 0x1d12 <_Z19i2c_read_multi_bytehhtPa+0x100>

	i2c_write(int_add | 0x80);		//to read multi-byte logical or(|) the register with 0x80
	clear_twint();
	wait();
	if(i2c_getstatus()!=0x28)
	return WRITE_ERR;
    1d00:	8b ef       	ldi	r24, 0xFB	; 251
    1d02:	07 c0       	rjmp	.+14     	; 0x1d12 <_Z19i2c_read_multi_bytehhtPa+0x100>

	i2c_start();					//repeated start
	wait();
	if(i2c_getstatus() != 0x10)
	return REPSTART_ERR;
    1d04:	8d ef       	ldi	r24, 0xFD	; 253
    1d06:	05 c0       	rjmp	.+10     	; 0x1d12 <_Z19i2c_read_multi_bytehhtPa+0x100>
	i2c_write(dev_add | i2read);		//writing slave + read to TWDR register
	TWCR &= ~start;
	clear_twint();
	wait();
	if(i2c_getstatus()!=0x40)
	return SLAVER_ERR;
    1d08:	8a ef       	ldi	r24, 0xFA	; 250
    1d0a:	03 c0       	rjmp	.+6      	; 0x1d12 <_Z19i2c_read_multi_bytehhtPa+0x100>
		{
			TWCR &= ~eack;			//sending NACK since it is the last bit
			clear_twint();
			wait();
			if(i2c_getstatus()!=0x58)
			return NACK_ERR;
    1d0c:	8f ef       	ldi	r24, 0xFF	; 255
    1d0e:	01 c0       	rjmp	.+2      	; 0x1d12 <_Z19i2c_read_multi_bytehhtPa+0x100>
		{
			TWCR |= eack;			//sending ACK
			clear_twint();
			wait();
			if(i2c_getstatus()!=0x50)
			return ACK_ERR;
    1d10:	8e ef       	ldi	r24, 0xFE	; 254
	}

	i2c_stop();						//stopping the transmission

	return OK;
}
    1d12:	df 91       	pop	r29
    1d14:	cf 91       	pop	r28
    1d16:	1f 91       	pop	r17
    1d18:	0f 91       	pop	r16
    1d1a:	ff 90       	pop	r15
    1d1c:	ef 90       	pop	r14
    1d1e:	df 90       	pop	r13
    1d20:	cf 90       	pop	r12
    1d22:	08 95       	ret

00001d24 <_Z7blinkerhiiibb.part.0>:
Arguments		:	LED pin number, On time instant, Off time instant, Time period, 
					Power hardware control, Power software control
Return Value	:	None
Example Call	:	blinker
***********************************/
void blinker(uint8_t pin, int on_time, int off_time, int period, bool dir, bool power)
    1d24:	8f 92       	push	r8
    1d26:	9f 92       	push	r9
    1d28:	af 92       	push	r10
    1d2a:	bf 92       	push	r11
    1d2c:	cf 92       	push	r12
    1d2e:	df 92       	push	r13
    1d30:	ef 92       	push	r14
    1d32:	ff 92       	push	r15
    1d34:	0f 93       	push	r16
    1d36:	1f 93       	push	r17
    1d38:	cf 93       	push	r28
    1d3a:	df 93       	push	r29
    1d3c:	18 2f       	mov	r17, r24
    1d3e:	7b 01       	movw	r14, r22
    1d40:	ea 01       	movw	r28, r20
    1d42:	69 01       	movw	r12, r18
{
	// Software power control
	if (!power) return;
	unsigned long time_now = epoch();
    1d44:	4d d5       	rcall	.+2714   	; 0x27e0 <_Z5epochv>
	
	// Non-blocking blinker [Beacon Lights]
	if (((time_now % period)>=on_time) && ((time_now % period)<=(on_time+6))) digitalWriteFast(pin, dir);
    1d46:	96 01       	movw	r18, r12
    1d48:	dd 0c       	add	r13, r13
    1d4a:	44 0b       	sbc	r20, r20
    1d4c:	55 0b       	sbc	r21, r21
    1d4e:	0e 94 1b 23 	call	0x4636	; 0x4636 <__udivmodsi4>
    1d52:	4b 01       	movw	r8, r22
    1d54:	5c 01       	movw	r10, r24
    1d56:	c7 01       	movw	r24, r14
    1d58:	0f 2c       	mov	r0, r15
    1d5a:	00 0c       	add	r0, r0
    1d5c:	aa 0b       	sbc	r26, r26
    1d5e:	bb 0b       	sbc	r27, r27
    1d60:	88 16       	cp	r8, r24
    1d62:	99 06       	cpc	r9, r25
    1d64:	aa 06       	cpc	r10, r26
    1d66:	bb 06       	cpc	r11, r27
    1d68:	80 f0       	brcs	.+32     	; 0x1d8a <_Z7blinkerhiiibb.part.0+0x66>
    1d6a:	a7 01       	movw	r20, r14
    1d6c:	4a 5f       	subi	r20, 0xFA	; 250
    1d6e:	5f 4f       	sbci	r21, 0xFF	; 255
    1d70:	05 2e       	mov	r0, r21
    1d72:	00 0c       	add	r0, r0
    1d74:	66 0b       	sbc	r22, r22
    1d76:	77 0b       	sbc	r23, r23
    1d78:	48 15       	cp	r20, r8
    1d7a:	59 05       	cpc	r21, r9
    1d7c:	6a 05       	cpc	r22, r10
    1d7e:	7b 05       	cpc	r23, r11
    1d80:	20 f0       	brcs	.+8      	; 0x1d8a <_Z7blinkerhiiibb.part.0+0x66>
    1d82:	60 2f       	mov	r22, r16
    1d84:	81 2f       	mov	r24, r17
    1d86:	0e 94 8a 22 	call	0x4514	; 0x4514 <digitalWrite>
	if (((time_now % period)>=off_time) && ((time_now % period)<=(off_time+6))) digitalWriteFast(pin, !dir);
    1d8a:	ce 01       	movw	r24, r28
    1d8c:	0d 2e       	mov	r0, r29
    1d8e:	00 0c       	add	r0, r0
    1d90:	aa 0b       	sbc	r26, r26
    1d92:	bb 0b       	sbc	r27, r27
    1d94:	88 16       	cp	r8, r24
    1d96:	99 06       	cpc	r9, r25
    1d98:	aa 06       	cpc	r10, r26
    1d9a:	bb 06       	cpc	r11, r27
    1d9c:	e8 f0       	brcs	.+58     	; 0x1dd8 <_Z7blinkerhiiibb.part.0+0xb4>
    1d9e:	ae 01       	movw	r20, r28
    1da0:	4a 5f       	subi	r20, 0xFA	; 250
    1da2:	5f 4f       	sbci	r21, 0xFF	; 255
    1da4:	05 2e       	mov	r0, r21
    1da6:	00 0c       	add	r0, r0
    1da8:	66 0b       	sbc	r22, r22
    1daa:	77 0b       	sbc	r23, r23
    1dac:	48 15       	cp	r20, r8
    1dae:	59 05       	cpc	r21, r9
    1db0:	6a 05       	cpc	r22, r10
    1db2:	7b 05       	cpc	r23, r11
    1db4:	88 f0       	brcs	.+34     	; 0x1dd8 <_Z7blinkerhiiibb.part.0+0xb4>
    1db6:	61 e0       	ldi	r22, 0x01	; 1
    1db8:	60 27       	eor	r22, r16
    1dba:	81 2f       	mov	r24, r17
}
    1dbc:	df 91       	pop	r29
    1dbe:	cf 91       	pop	r28
    1dc0:	1f 91       	pop	r17
    1dc2:	0f 91       	pop	r16
    1dc4:	ff 90       	pop	r15
    1dc6:	ef 90       	pop	r14
    1dc8:	df 90       	pop	r13
    1dca:	cf 90       	pop	r12
    1dcc:	bf 90       	pop	r11
    1dce:	af 90       	pop	r10
    1dd0:	9f 90       	pop	r9
    1dd2:	8f 90       	pop	r8
	if (!power) return;
	unsigned long time_now = epoch();
	
	// Non-blocking blinker [Beacon Lights]
	if (((time_now % period)>=on_time) && ((time_now % period)<=(on_time+6))) digitalWriteFast(pin, dir);
	if (((time_now % period)>=off_time) && ((time_now % period)<=(off_time+6))) digitalWriteFast(pin, !dir);
    1dd4:	0c 94 8a 22 	jmp	0x4514	; 0x4514 <digitalWrite>
}
    1dd8:	df 91       	pop	r29
    1dda:	cf 91       	pop	r28
    1ddc:	1f 91       	pop	r17
    1dde:	0f 91       	pop	r16
    1de0:	ff 90       	pop	r15
    1de2:	ef 90       	pop	r14
    1de4:	df 90       	pop	r13
    1de6:	cf 90       	pop	r12
    1de8:	bf 90       	pop	r11
    1dea:	af 90       	pop	r10
    1dec:	9f 90       	pop	r9
    1dee:	8f 90       	pop	r8
    1df0:	08 95       	ret

00001df2 <_Z9alpha_redb>:
	beta_green(LOW);
	beta_blue(LOW);
}

// RGB LED 1
void alpha_red(bool state)		{digitalWriteFast(LED1_RED, !state);}
    1df2:	61 e0       	ldi	r22, 0x01	; 1
    1df4:	68 27       	eor	r22, r24
    1df6:	84 e4       	ldi	r24, 0x44	; 68
    1df8:	0c 94 8a 22 	jmp	0x4514	; 0x4514 <digitalWrite>

00001dfc <_Z11alpha_greenb>:
void alpha_green(bool state)	{digitalWriteFast(LED1_GRN, !state);}
    1dfc:	61 e0       	ldi	r22, 0x01	; 1
    1dfe:	68 27       	eor	r22, r24
    1e00:	80 e4       	ldi	r24, 0x40	; 64
    1e02:	0c 94 8a 22 	jmp	0x4514	; 0x4514 <digitalWrite>

00001e06 <_Z10alpha_blueb>:
void alpha_blue(bool state)		{digitalWriteFast(LED1_BLU, !state);}
    1e06:	61 e0       	ldi	r22, 0x01	; 1
    1e08:	68 27       	eor	r22, r24
    1e0a:	82 e4       	ldi	r24, 0x42	; 66
    1e0c:	0c 94 8a 22 	jmp	0x4514	; 0x4514 <digitalWrite>

00001e10 <_Z8beta_redb>:

// RGB LED 2
void beta_red(bool state)		{digitalWriteFast(LED2_RED, !state);}
    1e10:	61 e0       	ldi	r22, 0x01	; 1
    1e12:	68 27       	eor	r22, r24
    1e14:	8f e1       	ldi	r24, 0x1F	; 31
    1e16:	0c 94 8a 22 	jmp	0x4514	; 0x4514 <digitalWrite>

00001e1a <_Z10beta_greenb>:
void beta_green(bool state)		{digitalWriteFast(LED2_GRN, !state);}
    1e1a:	61 e0       	ldi	r22, 0x01	; 1
    1e1c:	68 27       	eor	r22, r24
    1e1e:	81 e2       	ldi	r24, 0x21	; 33
    1e20:	0c 94 8a 22 	jmp	0x4514	; 0x4514 <digitalWrite>

00001e24 <_Z9beta_blueb>:
void beta_blue(bool state)		{digitalWriteFast(LED2_BLU, !state);}
    1e24:	61 e0       	ldi	r22, 0x01	; 1
    1e26:	68 27       	eor	r22, r24
    1e28:	83 e2       	ldi	r24, 0x23	; 35
    1e2a:	0c 94 8a 22 	jmp	0x4514	; 0x4514 <digitalWrite>

00001e2e <_Z14led_pin_configv>:
Example Call	:	led_pin_config()
***********************************/
void led_pin_config()
{
	// LED Bottom
	pinMode(A7, OUTPUT);
    1e2e:	61 e0       	ldi	r22, 0x01	; 1
    1e30:	8d e3       	ldi	r24, 0x3D	; 61
    1e32:	0e 94 4e 22 	call	0x449c	; 0x449c <pinMode>
	
	// RGB LED 1 (Alpha)
	pinMode(LED1_RED, OUTPUT);
    1e36:	61 e0       	ldi	r22, 0x01	; 1
    1e38:	84 e4       	ldi	r24, 0x44	; 68
    1e3a:	0e 94 4e 22 	call	0x449c	; 0x449c <pinMode>
	pinMode(LED1_GRN, OUTPUT);
    1e3e:	61 e0       	ldi	r22, 0x01	; 1
    1e40:	80 e4       	ldi	r24, 0x40	; 64
    1e42:	0e 94 4e 22 	call	0x449c	; 0x449c <pinMode>
	pinMode(LED1_BLU, OUTPUT);
    1e46:	61 e0       	ldi	r22, 0x01	; 1
    1e48:	82 e4       	ldi	r24, 0x42	; 66
    1e4a:	0e 94 4e 22 	call	0x449c	; 0x449c <pinMode>
	
	// RGB LED 2 (Beta)
	pinMode(LED2_RED, OUTPUT);
    1e4e:	61 e0       	ldi	r22, 0x01	; 1
    1e50:	8f e1       	ldi	r24, 0x1F	; 31
    1e52:	0e 94 4e 22 	call	0x449c	; 0x449c <pinMode>
	pinMode(LED2_GRN, OUTPUT);
    1e56:	61 e0       	ldi	r22, 0x01	; 1
    1e58:	81 e2       	ldi	r24, 0x21	; 33
    1e5a:	0e 94 4e 22 	call	0x449c	; 0x449c <pinMode>
	pinMode(LED2_BLU, OUTPUT);
    1e5e:	61 e0       	ldi	r22, 0x01	; 1
    1e60:	83 e2       	ldi	r24, 0x23	; 35
    1e62:	0e 94 4e 22 	call	0x449c	; 0x449c <pinMode>
	
	alpha_red(LOW);
    1e66:	80 e0       	ldi	r24, 0x00	; 0
    1e68:	c4 df       	rcall	.-120    	; 0x1df2 <_Z9alpha_redb>
	alpha_green(LOW);
    1e6a:	80 e0       	ldi	r24, 0x00	; 0
    1e6c:	c7 df       	rcall	.-114    	; 0x1dfc <_Z11alpha_greenb>
	alpha_blue(LOW);
    1e6e:	80 e0       	ldi	r24, 0x00	; 0
    1e70:	ca df       	rcall	.-108    	; 0x1e06 <_Z10alpha_blueb>
	
	beta_red(LOW);
    1e72:	80 e0       	ldi	r24, 0x00	; 0
    1e74:	cd df       	rcall	.-102    	; 0x1e10 <_Z8beta_redb>
	beta_green(LOW);
    1e76:	80 e0       	ldi	r24, 0x00	; 0
    1e78:	d0 df       	rcall	.-96     	; 0x1e1a <_Z10beta_greenb>
	beta_blue(LOW);
    1e7a:	80 e0       	ldi	r24, 0x00	; 0
    1e7c:	d3 cf       	rjmp	.-90     	; 0x1e24 <_Z9beta_blueb>

00001e7e <_Z18set_led_indicatorsbbbbbb>:
Arguments		:	LED flags
Return Value	:	None
Example Call	:	set_led_indicators(false, true, false, false, false, false)
***********************************/
void set_led_indicators(bool stopped, bool front, bool reverse, bool left, bool right, bool slope)
{
    1e7e:	ef 92       	push	r14
    1e80:	0f 93       	push	r16
	STOP_INDICATOR = stopped;
    1e82:	80 93 b5 02 	sts	0x02B5, r24	; 0x8002b5 <STOP_INDICATOR>
	FRONT_INDICATOR = front;
    1e86:	60 93 76 05 	sts	0x0576, r22	; 0x800576 <FRONT_INDICATOR>
	BACK_INDICATOR = reverse;
    1e8a:	40 93 75 05 	sts	0x0575, r20	; 0x800575 <BACK_INDICATOR>
	LEFT_INDICATOR = left;
    1e8e:	20 93 78 05 	sts	0x0578, r18	; 0x800578 <LEFT_INDICATOR>
	RIGHT_INDICATOR = right;
    1e92:	00 93 77 05 	sts	0x0577, r16	; 0x800577 <RIGHT_INDICATOR>
	SLOPE_INDICATOR = slope;
    1e96:	e0 92 74 05 	sts	0x0574, r14	; 0x800574 <SLOPE_INDICATOR>
}
    1e9a:	0f 91       	pop	r16
    1e9c:	ef 90       	pop	r14
    1e9e:	08 95       	ret

00001ea0 <_Z20led_indicator_masterb>:
Arguments		:	Power state
Return Value	:	None
Example Call	:	led_indicator_master(true)
***********************************/
void led_indicator_master(bool state)
{
    1ea0:	cf 93       	push	r28
    1ea2:	c8 2f       	mov	r28, r24
	alpha_red(state);  alpha_green(state);	alpha_blue(state);
    1ea4:	a6 df       	rcall	.-180    	; 0x1df2 <_Z9alpha_redb>
    1ea6:	8c 2f       	mov	r24, r28
    1ea8:	a9 df       	rcall	.-174    	; 0x1dfc <_Z11alpha_greenb>
    1eaa:	8c 2f       	mov	r24, r28
    1eac:	ac df       	rcall	.-168    	; 0x1e06 <_Z10alpha_blueb>
	beta_red(state);   beta_green(state);	beta_blue(state);
    1eae:	8c 2f       	mov	r24, r28
    1eb0:	af df       	rcall	.-162    	; 0x1e10 <_Z8beta_redb>
    1eb2:	8c 2f       	mov	r24, r28
    1eb4:	b2 df       	rcall	.-156    	; 0x1e1a <_Z10beta_greenb>
    1eb6:	8c 2f       	mov	r24, r28
}
    1eb8:	cf 91       	pop	r28
Example Call	:	led_indicator_master(true)
***********************************/
void led_indicator_master(bool state)
{
	alpha_red(state);  alpha_green(state);	alpha_blue(state);
	beta_red(state);   beta_green(state);	beta_blue(state);
    1eba:	b4 cf       	rjmp	.-152    	; 0x1e24 <_Z9beta_blueb>

00001ebc <_Z7blinkerhiiibb>:
					Power hardware control, Power software control
Return Value	:	None
Example Call	:	blinker
***********************************/
void blinker(uint8_t pin, int on_time, int off_time, int period, bool dir, bool power)
{
    1ebc:	ef 92       	push	r14
    1ebe:	0f 93       	push	r16
	// Software power control
	if (!power) return;
    1ec0:	e1 10       	cpse	r14, r1
    1ec2:	30 df       	rcall	.-416    	; 0x1d24 <_Z7blinkerhiiibb.part.0>
	unsigned long time_now = epoch();
	
	// Non-blocking blinker [Beacon Lights]
	if (((time_now % period)>=on_time) && ((time_now % period)<=(on_time+6))) digitalWriteFast(pin, dir);
	if (((time_now % period)>=off_time) && ((time_now % period)<=(off_time+6))) digitalWriteFast(pin, !dir);
}
    1ec4:	0f 91       	pop	r16
    1ec6:	ef 90       	pop	r14
    1ec8:	08 95       	ret

00001eca <_Z13led_schedulerv>:
Arguments		:	None
Return Value	:	None
Example Call	:	led_scheduler()
***********************************/
void led_scheduler()
{
    1eca:	ef 92       	push	r14
    1ecc:	0f 93       	push	r16
    1ece:	01 e0       	ldi	r16, 0x01	; 1
    1ed0:	28 ee       	ldi	r18, 0xE8	; 232
    1ed2:	33 e0       	ldi	r19, 0x03	; 3
    1ed4:	44 e0       	ldi	r20, 0x04	; 4
    1ed6:	51 e0       	ldi	r21, 0x01	; 1
    1ed8:	68 ec       	ldi	r22, 0xC8	; 200
    1eda:	70 e0       	ldi	r23, 0x00	; 0
    1edc:	8d e3       	ldi	r24, 0x3D	; 61
    1ede:	22 df       	rcall	.-444    	; 0x1d24 <_Z7blinkerhiiibb.part.0>
	// Bottom LED - Robot setup time
	blinker(LED_BOTTOM, 200, 260, 1000, true, true);
	
	// Initial LED status
	if (epoch() < 3000)
    1ee0:	7f d4       	rcall	.+2302   	; 0x27e0 <_Z5epochv>
    1ee2:	68 3b       	cpi	r22, 0xB8	; 184
    1ee4:	7b 40       	sbci	r23, 0x0B	; 11
    1ee6:	81 05       	cpc	r24, r1
    1ee8:	91 05       	cpc	r25, r1
    1eea:	e0 f0       	brcs	.+56     	; 0x1f24 <_Z13led_schedulerv+0x5a>
		beta_red(true);
		return;
	}
	
	// Initial LED - Robot ready
	if ((epoch()>=3000) && (epoch()<3500))
    1eec:	79 d4       	rcall	.+2290   	; 0x27e0 <_Z5epochv>
    1eee:	68 3b       	cpi	r22, 0xB8	; 184
    1ef0:	7b 40       	sbci	r23, 0x0B	; 11
    1ef2:	81 05       	cpc	r24, r1
    1ef4:	91 05       	cpc	r25, r1
    1ef6:	e0 f0       	brcs	.+56     	; 0x1f30 <_Z13led_schedulerv+0x66>
    1ef8:	73 d4       	rcall	.+2278   	; 0x27e0 <_Z5epochv>
    1efa:	6c 3a       	cpi	r22, 0xAC	; 172
    1efc:	7d 40       	sbci	r23, 0x0D	; 13
    1efe:	81 05       	cpc	r24, r1
    1f00:	91 05       	cpc	r25, r1
    1f02:	b0 f4       	brcc	.+44     	; 0x1f30 <_Z13led_schedulerv+0x66>
	{
		alpha_red(false);	beta_red(false);
    1f04:	80 e0       	ldi	r24, 0x00	; 0
    1f06:	75 df       	rcall	.-278    	; 0x1df2 <_Z9alpha_redb>
    1f08:	80 e0       	ldi	r24, 0x00	; 0
    1f0a:	82 df       	rcall	.-252    	; 0x1e10 <_Z8beta_redb>
		alpha_green(true);	beta_green(true);
    1f0c:	81 e0       	ldi	r24, 0x01	; 1
    1f0e:	76 df       	rcall	.-276    	; 0x1dfc <_Z11alpha_greenb>
    1f10:	81 e0       	ldi	r24, 0x01	; 1
	blinker(LED2_GRN, 0, 100, 200, false, RIGHT_INDICATOR);
	
	// Slope Mode - Blue
	blinker(LED1_BLU, 0, 150, 300, false, SLOPE_INDICATOR);
	blinker(LED2_BLU, 0, 150, 300, false, SLOPE_INDICATOR);
}
    1f12:	0f 91       	pop	r16
    1f14:	ef 90       	pop	r14
	
	// Initial LED - Robot ready
	if ((epoch()>=3000) && (epoch()<3500))
	{
		alpha_red(false);	beta_red(false);
		alpha_green(true);	beta_green(true);
    1f16:	81 cf       	rjmp	.-254    	; 0x1e1a <_Z10beta_greenb>
		led_indicator_master(true);
		return;
	}
	
	// Error Indicator - Red
	if (ERROR_STATE)
    1f18:	80 91 79 05 	lds	r24, 0x0579	; 0x800579 <ERROR_STATE>
    1f1c:	88 23       	and	r24, r24
    1f1e:	81 f0       	breq	.+32     	; 0x1f40 <_Z13led_schedulerv+0x76>
	{
		led_indicator_master(false);
    1f20:	80 e0       	ldi	r24, 0x00	; 0
    1f22:	be df       	rcall	.-132    	; 0x1ea0 <_Z20led_indicator_masterb>
		alpha_red(true);
    1f24:	81 e0       	ldi	r24, 0x01	; 1
    1f26:	65 df       	rcall	.-310    	; 0x1df2 <_Z9alpha_redb>
		beta_red(true);
    1f28:	81 e0       	ldi	r24, 0x01	; 1
	blinker(LED2_GRN, 0, 100, 200, false, RIGHT_INDICATOR);
	
	// Slope Mode - Blue
	blinker(LED1_BLU, 0, 150, 300, false, SLOPE_INDICATOR);
	blinker(LED2_BLU, 0, 150, 300, false, SLOPE_INDICATOR);
}
    1f2a:	0f 91       	pop	r16
    1f2c:	ef 90       	pop	r14
	// Error Indicator - Red
	if (ERROR_STATE)
	{
		led_indicator_master(false);
		alpha_red(true);
		beta_red(true);
    1f2e:	70 cf       	rjmp	.-288    	; 0x1e10 <_Z8beta_redb>
		alpha_green(true);	beta_green(true);
		return;
	}
	
	// Buzzer - White
	if (BUZZER_STATE)
    1f30:	80 91 7b 05 	lds	r24, 0x057B	; 0x80057b <BUZZER_STATE>
    1f34:	88 23       	and	r24, r24
    1f36:	81 f3       	breq	.-32     	; 0x1f18 <_Z13led_schedulerv+0x4e>
	{
		led_indicator_master(true);
    1f38:	81 e0       	ldi	r24, 0x01	; 1
	blinker(LED2_GRN, 0, 100, 200, false, RIGHT_INDICATOR);
	
	// Slope Mode - Blue
	blinker(LED1_BLU, 0, 150, 300, false, SLOPE_INDICATOR);
	blinker(LED2_BLU, 0, 150, 300, false, SLOPE_INDICATOR);
}
    1f3a:	0f 91       	pop	r16
    1f3c:	ef 90       	pop	r14
	}
	
	// Buzzer - White
	if (BUZZER_STATE)
	{
		led_indicator_master(true);
    1f3e:	b0 cf       	rjmp	.-160    	; 0x1ea0 <_Z20led_indicator_masterb>
		beta_red(true);
		return;
	}
	
	// Turn off all LEDs
	led_indicator_master(false);
    1f40:	80 e0       	ldi	r24, 0x00	; 0
    1f42:	ae df       	rcall	.-164    	; 0x1ea0 <_Z20led_indicator_masterb>
	
	// Blinker Logic
	
	// Stop - Red
	blinker(LED1_RED, 0, 50, 1000, false, STOP_INDICATOR);
    1f44:	e0 90 b5 02 	lds	r14, 0x02B5	; 0x8002b5 <STOP_INDICATOR>
    1f48:	00 e0       	ldi	r16, 0x00	; 0
    1f4a:	28 ee       	ldi	r18, 0xE8	; 232
    1f4c:	33 e0       	ldi	r19, 0x03	; 3
    1f4e:	42 e3       	ldi	r20, 0x32	; 50
    1f50:	50 e0       	ldi	r21, 0x00	; 0
    1f52:	60 e0       	ldi	r22, 0x00	; 0
    1f54:	70 e0       	ldi	r23, 0x00	; 0
    1f56:	84 e4       	ldi	r24, 0x44	; 68
    1f58:	b1 df       	rcall	.-158    	; 0x1ebc <_Z7blinkerhiiibb>
	blinker(LED2_RED, 0, 50, 1000, false, STOP_INDICATOR);
    1f5a:	e0 90 b5 02 	lds	r14, 0x02B5	; 0x8002b5 <STOP_INDICATOR>
    1f5e:	28 ee       	ldi	r18, 0xE8	; 232
    1f60:	33 e0       	ldi	r19, 0x03	; 3
    1f62:	42 e3       	ldi	r20, 0x32	; 50
    1f64:	50 e0       	ldi	r21, 0x00	; 0
    1f66:	60 e0       	ldi	r22, 0x00	; 0
    1f68:	70 e0       	ldi	r23, 0x00	; 0
    1f6a:	8f e1       	ldi	r24, 0x1F	; 31
    1f6c:	a7 df       	rcall	.-178    	; 0x1ebc <_Z7blinkerhiiibb>
	blinker(LED1_RED, 100, 150, 1000, false, STOP_INDICATOR);
    1f6e:	e0 90 b5 02 	lds	r14, 0x02B5	; 0x8002b5 <STOP_INDICATOR>
    1f72:	28 ee       	ldi	r18, 0xE8	; 232
    1f74:	33 e0       	ldi	r19, 0x03	; 3
    1f76:	46 e9       	ldi	r20, 0x96	; 150
    1f78:	50 e0       	ldi	r21, 0x00	; 0
    1f7a:	64 e6       	ldi	r22, 0x64	; 100
    1f7c:	70 e0       	ldi	r23, 0x00	; 0
    1f7e:	84 e4       	ldi	r24, 0x44	; 68
    1f80:	9d df       	rcall	.-198    	; 0x1ebc <_Z7blinkerhiiibb>
	blinker(LED2_RED, 100, 150, 1000, false, STOP_INDICATOR);
    1f82:	e0 90 b5 02 	lds	r14, 0x02B5	; 0x8002b5 <STOP_INDICATOR>
    1f86:	28 ee       	ldi	r18, 0xE8	; 232
    1f88:	33 e0       	ldi	r19, 0x03	; 3
    1f8a:	46 e9       	ldi	r20, 0x96	; 150
    1f8c:	50 e0       	ldi	r21, 0x00	; 0
    1f8e:	64 e6       	ldi	r22, 0x64	; 100
    1f90:	70 e0       	ldi	r23, 0x00	; 0
    1f92:	8f e1       	ldi	r24, 0x1F	; 31
    1f94:	93 df       	rcall	.-218    	; 0x1ebc <_Z7blinkerhiiibb>
	
	// Forward - Green
	blinker(LED1_GRN, 0, 100, 250, false, FRONT_INDICATOR);
    1f96:	e0 90 76 05 	lds	r14, 0x0576	; 0x800576 <FRONT_INDICATOR>
    1f9a:	2a ef       	ldi	r18, 0xFA	; 250
    1f9c:	30 e0       	ldi	r19, 0x00	; 0
    1f9e:	44 e6       	ldi	r20, 0x64	; 100
    1fa0:	50 e0       	ldi	r21, 0x00	; 0
    1fa2:	60 e0       	ldi	r22, 0x00	; 0
    1fa4:	70 e0       	ldi	r23, 0x00	; 0
    1fa6:	80 e4       	ldi	r24, 0x40	; 64
    1fa8:	89 df       	rcall	.-238    	; 0x1ebc <_Z7blinkerhiiibb>
	blinker(LED2_GRN, 0, 100, 250, false, FRONT_INDICATOR);
    1faa:	e0 90 76 05 	lds	r14, 0x0576	; 0x800576 <FRONT_INDICATOR>
    1fae:	2a ef       	ldi	r18, 0xFA	; 250
    1fb0:	30 e0       	ldi	r19, 0x00	; 0
    1fb2:	44 e6       	ldi	r20, 0x64	; 100
    1fb4:	50 e0       	ldi	r21, 0x00	; 0
    1fb6:	60 e0       	ldi	r22, 0x00	; 0
    1fb8:	70 e0       	ldi	r23, 0x00	; 0
    1fba:	81 e2       	ldi	r24, 0x21	; 33
    1fbc:	7f df       	rcall	.-258    	; 0x1ebc <_Z7blinkerhiiibb>
	
	// Back - Cyan
	blinker(LED1_GRN, 0, 100, 250, false, BACK_INDICATOR);
    1fbe:	e0 90 75 05 	lds	r14, 0x0575	; 0x800575 <BACK_INDICATOR>
    1fc2:	2a ef       	ldi	r18, 0xFA	; 250
    1fc4:	30 e0       	ldi	r19, 0x00	; 0
    1fc6:	44 e6       	ldi	r20, 0x64	; 100
    1fc8:	50 e0       	ldi	r21, 0x00	; 0
    1fca:	60 e0       	ldi	r22, 0x00	; 0
    1fcc:	70 e0       	ldi	r23, 0x00	; 0
    1fce:	80 e4       	ldi	r24, 0x40	; 64
    1fd0:	75 df       	rcall	.-278    	; 0x1ebc <_Z7blinkerhiiibb>
	blinker(LED1_BLU, 0, 100, 250, false, BACK_INDICATOR);
    1fd2:	e0 90 75 05 	lds	r14, 0x0575	; 0x800575 <BACK_INDICATOR>
    1fd6:	2a ef       	ldi	r18, 0xFA	; 250
    1fd8:	30 e0       	ldi	r19, 0x00	; 0
    1fda:	44 e6       	ldi	r20, 0x64	; 100
    1fdc:	50 e0       	ldi	r21, 0x00	; 0
    1fde:	60 e0       	ldi	r22, 0x00	; 0
    1fe0:	70 e0       	ldi	r23, 0x00	; 0
    1fe2:	82 e4       	ldi	r24, 0x42	; 66
    1fe4:	6b df       	rcall	.-298    	; 0x1ebc <_Z7blinkerhiiibb>
	blinker(LED2_GRN, 0, 100, 250, false, BACK_INDICATOR);
    1fe6:	e0 90 75 05 	lds	r14, 0x0575	; 0x800575 <BACK_INDICATOR>
    1fea:	2a ef       	ldi	r18, 0xFA	; 250
    1fec:	30 e0       	ldi	r19, 0x00	; 0
    1fee:	44 e6       	ldi	r20, 0x64	; 100
    1ff0:	50 e0       	ldi	r21, 0x00	; 0
    1ff2:	60 e0       	ldi	r22, 0x00	; 0
    1ff4:	70 e0       	ldi	r23, 0x00	; 0
    1ff6:	81 e2       	ldi	r24, 0x21	; 33
    1ff8:	61 df       	rcall	.-318    	; 0x1ebc <_Z7blinkerhiiibb>
	blinker(LED2_BLU, 0, 100, 250, false, BACK_INDICATOR);
    1ffa:	e0 90 75 05 	lds	r14, 0x0575	; 0x800575 <BACK_INDICATOR>
    1ffe:	2a ef       	ldi	r18, 0xFA	; 250
    2000:	30 e0       	ldi	r19, 0x00	; 0
    2002:	44 e6       	ldi	r20, 0x64	; 100
    2004:	50 e0       	ldi	r21, 0x00	; 0
    2006:	60 e0       	ldi	r22, 0x00	; 0
    2008:	70 e0       	ldi	r23, 0x00	; 0
    200a:	83 e2       	ldi	r24, 0x23	; 35
    200c:	57 df       	rcall	.-338    	; 0x1ebc <_Z7blinkerhiiibb>
	
	// Left - Yellow
	blinker(LED1_RED, 0, 100, 200, false, LEFT_INDICATOR);
    200e:	e0 90 78 05 	lds	r14, 0x0578	; 0x800578 <LEFT_INDICATOR>
    2012:	28 ec       	ldi	r18, 0xC8	; 200
    2014:	30 e0       	ldi	r19, 0x00	; 0
    2016:	44 e6       	ldi	r20, 0x64	; 100
    2018:	50 e0       	ldi	r21, 0x00	; 0
    201a:	60 e0       	ldi	r22, 0x00	; 0
    201c:	70 e0       	ldi	r23, 0x00	; 0
    201e:	84 e4       	ldi	r24, 0x44	; 68
    2020:	4d df       	rcall	.-358    	; 0x1ebc <_Z7blinkerhiiibb>
	blinker(LED1_GRN, 0, 100, 200, false, LEFT_INDICATOR);
    2022:	e0 90 78 05 	lds	r14, 0x0578	; 0x800578 <LEFT_INDICATOR>
    2026:	28 ec       	ldi	r18, 0xC8	; 200
    2028:	30 e0       	ldi	r19, 0x00	; 0
    202a:	44 e6       	ldi	r20, 0x64	; 100
    202c:	50 e0       	ldi	r21, 0x00	; 0
    202e:	60 e0       	ldi	r22, 0x00	; 0
    2030:	70 e0       	ldi	r23, 0x00	; 0
    2032:	80 e4       	ldi	r24, 0x40	; 64
    2034:	43 df       	rcall	.-378    	; 0x1ebc <_Z7blinkerhiiibb>
	
	// Right - Yellow
	blinker(LED2_RED, 0, 100, 200, false, RIGHT_INDICATOR);
    2036:	e0 90 77 05 	lds	r14, 0x0577	; 0x800577 <RIGHT_INDICATOR>
    203a:	28 ec       	ldi	r18, 0xC8	; 200
    203c:	30 e0       	ldi	r19, 0x00	; 0
    203e:	44 e6       	ldi	r20, 0x64	; 100
    2040:	50 e0       	ldi	r21, 0x00	; 0
    2042:	60 e0       	ldi	r22, 0x00	; 0
    2044:	70 e0       	ldi	r23, 0x00	; 0
    2046:	8f e1       	ldi	r24, 0x1F	; 31
    2048:	39 df       	rcall	.-398    	; 0x1ebc <_Z7blinkerhiiibb>
	blinker(LED2_GRN, 0, 100, 200, false, RIGHT_INDICATOR);
    204a:	e0 90 77 05 	lds	r14, 0x0577	; 0x800577 <RIGHT_INDICATOR>
    204e:	28 ec       	ldi	r18, 0xC8	; 200
    2050:	30 e0       	ldi	r19, 0x00	; 0
    2052:	44 e6       	ldi	r20, 0x64	; 100
    2054:	50 e0       	ldi	r21, 0x00	; 0
    2056:	60 e0       	ldi	r22, 0x00	; 0
    2058:	70 e0       	ldi	r23, 0x00	; 0
    205a:	81 e2       	ldi	r24, 0x21	; 33
    205c:	2f df       	rcall	.-418    	; 0x1ebc <_Z7blinkerhiiibb>
	
	// Slope Mode - Blue
	blinker(LED1_BLU, 0, 150, 300, false, SLOPE_INDICATOR);
    205e:	e0 90 74 05 	lds	r14, 0x0574	; 0x800574 <SLOPE_INDICATOR>
    2062:	2c e2       	ldi	r18, 0x2C	; 44
    2064:	31 e0       	ldi	r19, 0x01	; 1
    2066:	46 e9       	ldi	r20, 0x96	; 150
    2068:	50 e0       	ldi	r21, 0x00	; 0
    206a:	60 e0       	ldi	r22, 0x00	; 0
    206c:	70 e0       	ldi	r23, 0x00	; 0
    206e:	82 e4       	ldi	r24, 0x42	; 66
    2070:	25 df       	rcall	.-438    	; 0x1ebc <_Z7blinkerhiiibb>
	blinker(LED2_BLU, 0, 150, 300, false, SLOPE_INDICATOR);
    2072:	e0 90 74 05 	lds	r14, 0x0574	; 0x800574 <SLOPE_INDICATOR>
    2076:	2c e2       	ldi	r18, 0x2C	; 44
    2078:	31 e0       	ldi	r19, 0x01	; 1
    207a:	46 e9       	ldi	r20, 0x96	; 150
    207c:	50 e0       	ldi	r21, 0x00	; 0
    207e:	60 e0       	ldi	r22, 0x00	; 0
    2080:	70 e0       	ldi	r23, 0x00	; 0
    2082:	83 e2       	ldi	r24, 0x23	; 35
    2084:	1b df       	rcall	.-458    	; 0x1ebc <_Z7blinkerhiiibb>
}
    2086:	0f 91       	pop	r16
    2088:	ef 90       	pop	r14
    208a:	08 95       	ret

0000208c <_Z17buzzer_pin_configv>:
Return Value	:	None
Example Call	:	buzzer_pin_config()
***********************************/
void buzzer_pin_config()
{
	pinMode(BUZZER_PIN, OUTPUT);
    208c:	61 e0       	ldi	r22, 0x01	; 1
    208e:	89 e0       	ldi	r24, 0x09	; 9
    2090:	0e 94 4e 22 	call	0x449c	; 0x449c <pinMode>
	digitalWriteFast(BUZZER_PIN, LOW);
    2094:	9f b7       	in	r25, 0x3f	; 63
    2096:	f8 94       	cli
    2098:	e2 e0       	ldi	r30, 0x02	; 2
    209a:	f1 e0       	ldi	r31, 0x01	; 1
    209c:	80 81       	ld	r24, Z
    209e:	8f 7b       	andi	r24, 0xBF	; 191
    20a0:	80 83       	st	Z, r24
    20a2:	9f bf       	out	0x3f, r25	; 63
    20a4:	08 95       	ret

000020a6 <_Z9buzzer_onv>:
}

void buzzer_on() {digitalWriteFast(BUZZER_PIN, HIGH);}
    20a6:	9f b7       	in	r25, 0x3f	; 63
    20a8:	f8 94       	cli
    20aa:	e2 e0       	ldi	r30, 0x02	; 2
    20ac:	f1 e0       	ldi	r31, 0x01	; 1
    20ae:	80 81       	ld	r24, Z
    20b0:	80 64       	ori	r24, 0x40	; 64
    20b2:	80 83       	st	Z, r24
    20b4:	9f bf       	out	0x3f, r25	; 63
    20b6:	08 95       	ret

000020b8 <_Z10buzzer_offv>:
void buzzer_off() {digitalWriteFast(BUZZER_PIN, LOW);}
    20b8:	9f b7       	in	r25, 0x3f	; 63
    20ba:	f8 94       	cli
    20bc:	e2 e0       	ldi	r30, 0x02	; 2
    20be:	f1 e0       	ldi	r31, 0x01	; 1
    20c0:	80 81       	ld	r24, Z
    20c2:	8f 7b       	andi	r24, 0xBF	; 191
    20c4:	80 83       	st	Z, r24
    20c6:	9f bf       	out	0x3f, r25	; 63
    20c8:	08 95       	ret

000020ca <_Z16set_buzzer_stateb>:
Return Value	:	None
Example Call	:	set_buzzer_state(true)
***********************************/
void set_buzzer_state(bool state)
{
	BUZZER_STATE = state;
    20ca:	80 93 7b 05 	sts	0x057B, r24	; 0x80057b <BUZZER_STATE>
	BUZZER_SONG = state;
    20ce:	80 93 b6 02 	sts	0x02B6, r24	; 0x8002b6 <BUZZER_SONG>
    20d2:	08 95       	ret

000020d4 <_Z17read_buzzer_statev>:
}

// Setter and Getter functions
bool read_buzzer_state() {return BUZZER_STATE;}
    20d4:	80 91 7b 05 	lds	r24, 0x057B	; 0x80057b <BUZZER_STATE>
    20d8:	08 95       	ret

000020da <_Z13set_buzz_timev>:
void set_buzz_time() {buzz_time = epoch();}
    20da:	82 d3       	rcall	.+1796   	; 0x27e0 <_Z5epochv>
    20dc:	60 93 70 05 	sts	0x0570, r22	; 0x800570 <buzz_time>
    20e0:	70 93 71 05 	sts	0x0571, r23	; 0x800571 <buzz_time+0x1>
    20e4:	80 93 72 05 	sts	0x0572, r24	; 0x800572 <buzz_time+0x2>
    20e8:	90 93 73 05 	sts	0x0573, r25	; 0x800573 <buzz_time+0x3>
    20ec:	08 95       	ret

000020ee <_Z15set_error_stateb>:

void set_error_state(bool state) {ERROR_STATE = state;}
    20ee:	80 93 79 05 	sts	0x0579, r24	; 0x800579 <ERROR_STATE>
    20f2:	08 95       	ret

000020f4 <_Z16read_error_statev>:
bool read_error_state() {return ERROR_STATE;}
    20f4:	80 91 79 05 	lds	r24, 0x0579	; 0x800579 <ERROR_STATE>
    20f8:	08 95       	ret

000020fa <_Z14set_error_timev>:
void set_error_time() {error_time = epoch();}
    20fa:	72 d3       	rcall	.+1764   	; 0x27e0 <_Z5epochv>
    20fc:	60 93 6c 05 	sts	0x056C, r22	; 0x80056c <error_time>
    2100:	70 93 6d 05 	sts	0x056D, r23	; 0x80056d <error_time+0x1>
    2104:	80 93 6e 05 	sts	0x056E, r24	; 0x80056e <error_time+0x2>
    2108:	90 93 6f 05 	sts	0x056F, r25	; 0x80056f <error_time+0x3>
    210c:	08 95       	ret

0000210e <_Z10play_musici>:
Return Value	:	None
Example Call	:	play_music(2)
***********************************/
void play_music(int song)
{
	if (song==1)	  anyrtttl::nonblocking::begin(BUZZER_PIN, song_startup);
    210e:	81 30       	cpi	r24, 0x01	; 1
    2110:	91 05       	cpc	r25, r1
    2112:	29 f4       	brne	.+10     	; 0x211e <_Z10play_musici+0x10>
    2114:	60 91 b3 02 	lds	r22, 0x02B3	; 0x8002b3 <song_startup>
    2118:	70 91 b4 02 	lds	r23, 0x02B4	; 0x8002b4 <song_startup+0x1>
    211c:	1e c0       	rjmp	.+60     	; 0x215a <_Z10play_musici+0x4c>
	else if (song==2) anyrtttl::nonblocking::begin(BUZZER_PIN, song_ready);
    211e:	82 30       	cpi	r24, 0x02	; 2
    2120:	91 05       	cpc	r25, r1
    2122:	29 f4       	brne	.+10     	; 0x212e <_Z10play_musici+0x20>
    2124:	60 91 b1 02 	lds	r22, 0x02B1	; 0x8002b1 <song_ready>
    2128:	70 91 b2 02 	lds	r23, 0x02B2	; 0x8002b2 <song_ready+0x1>
    212c:	16 c0       	rjmp	.+44     	; 0x215a <_Z10play_musici+0x4c>
	else if (song==3) anyrtttl::nonblocking::begin(BUZZER_PIN, song_buzzer);
    212e:	83 30       	cpi	r24, 0x03	; 3
    2130:	91 05       	cpc	r25, r1
    2132:	29 f4       	brne	.+10     	; 0x213e <_Z10play_musici+0x30>
    2134:	60 91 af 02 	lds	r22, 0x02AF	; 0x8002af <song_buzzer>
    2138:	70 91 b0 02 	lds	r23, 0x02B0	; 0x8002b0 <song_buzzer+0x1>
    213c:	0e c0       	rjmp	.+28     	; 0x215a <_Z10play_musici+0x4c>
	else if (song==4) anyrtttl::nonblocking::begin(BUZZER_PIN, song_buzzer2);
    213e:	84 30       	cpi	r24, 0x04	; 4
    2140:	91 05       	cpc	r25, r1
    2142:	29 f4       	brne	.+10     	; 0x214e <_Z10play_musici+0x40>
    2144:	60 91 ad 02 	lds	r22, 0x02AD	; 0x8002ad <song_buzzer2>
    2148:	70 91 ae 02 	lds	r23, 0x02AE	; 0x8002ae <song_buzzer2+0x1>
    214c:	06 c0       	rjmp	.+12     	; 0x215a <_Z10play_musici+0x4c>
	else if (song==5) anyrtttl::nonblocking::begin(BUZZER_PIN, song_mission);
    214e:	05 97       	sbiw	r24, 0x05	; 5
    2150:	31 f4       	brne	.+12     	; 0x215e <_Z10play_musici+0x50>
    2152:	60 91 ab 02 	lds	r22, 0x02AB	; 0x8002ab <song_mission>
    2156:	70 91 ac 02 	lds	r23, 0x02AC	; 0x8002ac <song_mission+0x1>
    215a:	89 e0       	ldi	r24, 0x09	; 9
    215c:	81 c3       	rjmp	.+1794   	; 0x2860 <_ZN8anyrtttl11nonblocking5beginEhPKc>
    215e:	08 95       	ret

00002160 <_Z12initial_buzzv>:
Arguments		:	None
Return Value	:	None
Example Call	:	initial_buzz()
***********************************/
void initial_buzz()
{
    2160:	0f 93       	push	r16
    2162:	1f 93       	push	r17
	// Normal buzzer
	if (BUZZER_STATE)
    2164:	80 91 7b 05 	lds	r24, 0x057B	; 0x80057b <BUZZER_STATE>
    2168:	88 23       	and	r24, r24
    216a:	c9 f0       	breq	.+50     	; 0x219e <_Z12initial_buzzv+0x3e>
	{
		if ((epoch() - buzz_time) > 2000)
    216c:	39 d3       	rcall	.+1650   	; 0x27e0 <_Z5epochv>
    216e:	00 91 70 05 	lds	r16, 0x0570	; 0x800570 <buzz_time>
    2172:	10 91 71 05 	lds	r17, 0x0571	; 0x800571 <buzz_time+0x1>
    2176:	20 91 72 05 	lds	r18, 0x0572	; 0x800572 <buzz_time+0x2>
    217a:	30 91 73 05 	lds	r19, 0x0573	; 0x800573 <buzz_time+0x3>
    217e:	dc 01       	movw	r26, r24
    2180:	cb 01       	movw	r24, r22
    2182:	80 1b       	sub	r24, r16
    2184:	91 0b       	sbc	r25, r17
    2186:	a2 0b       	sbc	r26, r18
    2188:	b3 0b       	sbc	r27, r19
    218a:	81 3d       	cpi	r24, 0xD1	; 209
    218c:	97 40       	sbci	r25, 0x07	; 7
    218e:	a1 05       	cpc	r26, r1
    2190:	b1 05       	cpc	r27, r1
    2192:	20 f0       	brcs	.+8      	; 0x219c <_Z12initial_buzzv+0x3c>
		{
			buzzer_off();
    2194:	91 df       	rcall	.-222    	; 0x20b8 <_Z10buzzer_offv>
			BUZZER_STATE = false;
    2196:	10 92 7b 05 	sts	0x057B, r1	; 0x80057b <BUZZER_STATE>
    219a:	01 c0       	rjmp	.+2      	; 0x219e <_Z12initial_buzzv+0x3e>
		}
		
		else buzzer_on();
    219c:	84 df       	rcall	.-248    	; 0x20a6 <_Z9buzzer_onv>
	}
	
	// Error mode
	if (ERROR_STATE)
    219e:	80 91 79 05 	lds	r24, 0x0579	; 0x800579 <ERROR_STATE>
    21a2:	88 23       	and	r24, r24
    21a4:	c9 f0       	breq	.+50     	; 0x21d8 <_Z12initial_buzzv+0x78>
	{
		if ((epoch() - error_time) > 200)
    21a6:	1c d3       	rcall	.+1592   	; 0x27e0 <_Z5epochv>
    21a8:	00 91 6c 05 	lds	r16, 0x056C	; 0x80056c <error_time>
    21ac:	10 91 6d 05 	lds	r17, 0x056D	; 0x80056d <error_time+0x1>
    21b0:	20 91 6e 05 	lds	r18, 0x056E	; 0x80056e <error_time+0x2>
    21b4:	30 91 6f 05 	lds	r19, 0x056F	; 0x80056f <error_time+0x3>
    21b8:	dc 01       	movw	r26, r24
    21ba:	cb 01       	movw	r24, r22
    21bc:	80 1b       	sub	r24, r16
    21be:	91 0b       	sbc	r25, r17
    21c0:	a2 0b       	sbc	r26, r18
    21c2:	b3 0b       	sbc	r27, r19
    21c4:	89 3c       	cpi	r24, 0xC9	; 201
    21c6:	91 05       	cpc	r25, r1
    21c8:	a1 05       	cpc	r26, r1
    21ca:	b1 05       	cpc	r27, r1
    21cc:	20 f0       	brcs	.+8      	; 0x21d6 <_Z12initial_buzzv+0x76>
		{
			buzzer_off();
    21ce:	74 df       	rcall	.-280    	; 0x20b8 <_Z10buzzer_offv>
			ERROR_STATE = false;
    21d0:	10 92 79 05 	sts	0x0579, r1	; 0x800579 <ERROR_STATE>
    21d4:	01 c0       	rjmp	.+2      	; 0x21d8 <_Z12initial_buzzv+0x78>
		}
		
		else buzzer_on();
    21d6:	67 df       	rcall	.-306    	; 0x20a6 <_Z9buzzer_onv>
	}
	
	// Initial start-up tone
	if (INITIAL_FLAG)
    21d8:	80 91 b7 02 	lds	r24, 0x02B7	; 0x8002b7 <INITIAL_FLAG>
    21dc:	88 23       	and	r24, r24
    21de:	41 f0       	breq	.+16     	; 0x21f0 <_Z12initial_buzzv+0x90>
	{
		play_music(1);
    21e0:	81 e0       	ldi	r24, 0x01	; 1
    21e2:	90 e0       	ldi	r25, 0x00	; 0
    21e4:	94 df       	rcall	.-216    	; 0x210e <_Z10play_musici>
		INITIAL_FLAG = false;
    21e6:	10 92 b7 02 	sts	0x02B7, r1	; 0x8002b7 <INITIAL_FLAG>
		READY_FLAG = true;
    21ea:	81 e0       	ldi	r24, 0x01	; 1
    21ec:	80 93 7a 05 	sts	0x057A, r24	; 0x80057a <READY_FLAG>
	}
	
	// Initial ready tone
	if (READY_FLAG && (epoch()>3000))
    21f0:	80 91 7a 05 	lds	r24, 0x057A	; 0x80057a <READY_FLAG>
    21f4:	88 23       	and	r24, r24
    21f6:	59 f0       	breq	.+22     	; 0x220e <__stack+0xf>
    21f8:	f3 d2       	rcall	.+1510   	; 0x27e0 <_Z5epochv>
    21fa:	69 3b       	cpi	r22, 0xB9	; 185
    21fc:	7b 40       	sbci	r23, 0x0B	; 11
    21fe:	81 05       	cpc	r24, r1
    2200:	91 05       	cpc	r25, r1
    2202:	28 f0       	brcs	.+10     	; 0x220e <__stack+0xf>
	{
		play_music(2);
    2204:	82 e0       	ldi	r24, 0x02	; 2
    2206:	90 e0       	ldi	r25, 0x00	; 0
    2208:	82 df       	rcall	.-252    	; 0x210e <_Z10play_musici>
		READY_FLAG = false;
    220a:	10 92 7a 05 	sts	0x057A, r1	; 0x80057a <READY_FLAG>
	}
}
    220e:	1f 91       	pop	r17
    2210:	0f 91       	pop	r16
    2212:	08 95       	ret

00002214 <_Z14buzz_schedulerv>:
Return Value	:	None
Example Call	:
***********************************/
void buzz_scheduler()
{
	initial_buzz();
    2214:	a5 df       	rcall	.-182    	; 0x2160 <_Z12initial_buzzv>
	if ((epoch()<5000) || BUZZER_STATE) anyrtttl::nonblocking::play();
    2216:	e4 d2       	rcall	.+1480   	; 0x27e0 <_Z5epochv>
    2218:	68 38       	cpi	r22, 0x88	; 136
    221a:	73 41       	sbci	r23, 0x13	; 19
    221c:	81 05       	cpc	r24, r1
    221e:	91 05       	cpc	r25, r1
    2220:	18 f0       	brcs	.+6      	; 0x2228 <_Z14buzz_schedulerv+0x14>
    2222:	80 91 7b 05 	lds	r24, 0x057B	; 0x80057b <BUZZER_STATE>
    2226:	81 11       	cpse	r24, r1
    2228:	78 c4       	rjmp	.+2288   	; 0x2b1a <_ZN8anyrtttl11nonblocking4playEv>
    222a:	08 95       	ret

0000222c <_Z22left_encoder_interruptv>:
Return Value	:	None
Example Call	:	Called automatically
***********************************/
void left_encoder_interrupt()
{
	int state = digitalReadFast(ENCA1);
    222c:	29 b1       	in	r18, 0x09	; 9
    222e:	22 fb       	bst	r18, 2
    2230:	88 27       	eor	r24, r24
    2232:	80 f9       	bld	r24, 0
    2234:	90 e0       	ldi	r25, 0x00	; 0
	if(digitalReadFast(ENCA2)) 
    2236:	4b 9b       	sbis	0x09, 3	; 9
    2238:	03 c0       	rjmp	.+6      	; 0x2240 <_Z22left_encoder_interruptv+0x14>
	state ? left_encoder_count-- : left_encoder_count++;
    223a:	89 2b       	or	r24, r25
    223c:	19 f0       	breq	.+6      	; 0x2244 <_Z22left_encoder_interruptv+0x18>
    223e:	10 c0       	rjmp	.+32     	; 0x2260 <_Z22left_encoder_interruptv+0x34>
	else 
	state ? left_encoder_count++ : left_encoder_count--;
    2240:	89 2b       	or	r24, r25
    2242:	71 f0       	breq	.+28     	; 0x2260 <_Z22left_encoder_interruptv+0x34>
    2244:	60 91 80 05 	lds	r22, 0x0580	; 0x800580 <left_encoder_count>
    2248:	70 91 81 05 	lds	r23, 0x0581	; 0x800581 <left_encoder_count+0x1>
    224c:	80 91 82 05 	lds	r24, 0x0582	; 0x800582 <left_encoder_count+0x2>
    2250:	90 91 83 05 	lds	r25, 0x0583	; 0x800583 <left_encoder_count+0x3>
    2254:	20 e0       	ldi	r18, 0x00	; 0
    2256:	30 e0       	ldi	r19, 0x00	; 0
    2258:	40 e8       	ldi	r20, 0x80	; 128
    225a:	5f e3       	ldi	r21, 0x3F	; 63
    225c:	ab d4       	rcall	.+2390   	; 0x2bb4 <__addsf3>
    225e:	0d c0       	rjmp	.+26     	; 0x227a <_Z22left_encoder_interruptv+0x4e>
    2260:	60 91 80 05 	lds	r22, 0x0580	; 0x800580 <left_encoder_count>
    2264:	70 91 81 05 	lds	r23, 0x0581	; 0x800581 <left_encoder_count+0x1>
    2268:	80 91 82 05 	lds	r24, 0x0582	; 0x800582 <left_encoder_count+0x2>
    226c:	90 91 83 05 	lds	r25, 0x0583	; 0x800583 <left_encoder_count+0x3>
    2270:	20 e0       	ldi	r18, 0x00	; 0
    2272:	30 e0       	ldi	r19, 0x00	; 0
    2274:	40 e8       	ldi	r20, 0x80	; 128
    2276:	5f e3       	ldi	r21, 0x3F	; 63
    2278:	9c d4       	rcall	.+2360   	; 0x2bb2 <__subsf3>
    227a:	60 93 80 05 	sts	0x0580, r22	; 0x800580 <left_encoder_count>
    227e:	70 93 81 05 	sts	0x0581, r23	; 0x800581 <left_encoder_count+0x1>
    2282:	80 93 82 05 	sts	0x0582, r24	; 0x800582 <left_encoder_count+0x2>
    2286:	90 93 83 05 	sts	0x0583, r25	; 0x800583 <left_encoder_count+0x3>
    228a:	08 95       	ret

0000228c <_Z23right_encoder_interruptv>:
Return Value	:	None
Example Call	:	Called automatically
***********************************/
void right_encoder_interrupt()
{
	int state = digitalReadFast(ENCB1);
    228c:	2c b1       	in	r18, 0x0c	; 12
    228e:	24 fb       	bst	r18, 4
    2290:	88 27       	eor	r24, r24
    2292:	80 f9       	bld	r24, 0
    2294:	90 e0       	ldi	r25, 0x00	; 0
	if(digitalReadFast(ENCB2)) 
    2296:	65 9b       	sbis	0x0c, 5	; 12
    2298:	03 c0       	rjmp	.+6      	; 0x22a0 <_Z23right_encoder_interruptv+0x14>
	state ? right_encoder_count++ : right_encoder_count--;
    229a:	89 2b       	or	r24, r25
    229c:	19 f0       	breq	.+6      	; 0x22a4 <_Z23right_encoder_interruptv+0x18>
    229e:	10 c0       	rjmp	.+32     	; 0x22c0 <_Z23right_encoder_interruptv+0x34>
	else 
	state ? right_encoder_count-- : right_encoder_count++;
    22a0:	89 2b       	or	r24, r25
    22a2:	71 f0       	breq	.+28     	; 0x22c0 <_Z23right_encoder_interruptv+0x34>
    22a4:	60 91 7c 05 	lds	r22, 0x057C	; 0x80057c <right_encoder_count>
    22a8:	70 91 7d 05 	lds	r23, 0x057D	; 0x80057d <right_encoder_count+0x1>
    22ac:	80 91 7e 05 	lds	r24, 0x057E	; 0x80057e <right_encoder_count+0x2>
    22b0:	90 91 7f 05 	lds	r25, 0x057F	; 0x80057f <right_encoder_count+0x3>
    22b4:	20 e0       	ldi	r18, 0x00	; 0
    22b6:	30 e0       	ldi	r19, 0x00	; 0
    22b8:	40 e8       	ldi	r20, 0x80	; 128
    22ba:	5f e3       	ldi	r21, 0x3F	; 63
    22bc:	7a d4       	rcall	.+2292   	; 0x2bb2 <__subsf3>
    22be:	0d c0       	rjmp	.+26     	; 0x22da <_Z23right_encoder_interruptv+0x4e>
    22c0:	60 91 7c 05 	lds	r22, 0x057C	; 0x80057c <right_encoder_count>
    22c4:	70 91 7d 05 	lds	r23, 0x057D	; 0x80057d <right_encoder_count+0x1>
    22c8:	80 91 7e 05 	lds	r24, 0x057E	; 0x80057e <right_encoder_count+0x2>
    22cc:	90 91 7f 05 	lds	r25, 0x057F	; 0x80057f <right_encoder_count+0x3>
    22d0:	20 e0       	ldi	r18, 0x00	; 0
    22d2:	30 e0       	ldi	r19, 0x00	; 0
    22d4:	40 e8       	ldi	r20, 0x80	; 128
    22d6:	5f e3       	ldi	r21, 0x3F	; 63
    22d8:	6d d4       	rcall	.+2266   	; 0x2bb4 <__addsf3>
    22da:	60 93 7c 05 	sts	0x057C, r22	; 0x80057c <right_encoder_count>
    22de:	70 93 7d 05 	sts	0x057D, r23	; 0x80057d <right_encoder_count+0x1>
    22e2:	80 93 7e 05 	sts	0x057E, r24	; 0x80057e <right_encoder_count+0x2>
    22e6:	90 93 7f 05 	sts	0x057F, r25	; 0x80057f <right_encoder_count+0x3>
    22ea:	08 95       	ret

000022ec <_Z16motor_pin_configv>:
Example Call	:	motor_pin_config()
***********************************/
void motor_pin_config()
{
	// Set as output pins and initial state LOW
	DDRH  = DDRH | 0x30;	// PH5 - Motor A1
    22ec:	e1 e0       	ldi	r30, 0x01	; 1
    22ee:	f1 e0       	ldi	r31, 0x01	; 1
    22f0:	80 81       	ld	r24, Z
    22f2:	80 63       	ori	r24, 0x30	; 48
    22f4:	80 83       	st	Z, r24
	PORTH = PORTH & 0xCF;	// PH4 - Motor A2
    22f6:	e2 e0       	ldi	r30, 0x02	; 2
    22f8:	f1 e0       	ldi	r31, 0x01	; 1
    22fa:	80 81       	ld	r24, Z
    22fc:	8f 7c       	andi	r24, 0xCF	; 207
    22fe:	80 83       	st	Z, r24
	
	DDRB  = DDRB | 0x60;	// PB5 - Motor B1
    2300:	84 b1       	in	r24, 0x04	; 4
    2302:	80 66       	ori	r24, 0x60	; 96
    2304:	84 b9       	out	0x04, r24	; 4
	PORTB = PORTB & 0x9F;	// PB6 - Motor B2
    2306:	85 b1       	in	r24, 0x05	; 5
    2308:	8f 79       	andi	r24, 0x9F	; 159
    230a:	85 b9       	out	0x05, r24	; 5
	
	DDRL  = DDRL | 0x18;	// PL3 - Enable A
    230c:	ea e0       	ldi	r30, 0x0A	; 10
    230e:	f1 e0       	ldi	r31, 0x01	; 1
    2310:	80 81       	ld	r24, Z
    2312:	88 61       	ori	r24, 0x18	; 24
    2314:	80 83       	st	Z, r24
	PORTL = PORTL & 0xE7;	// PL4 - Enable B
    2316:	eb e0       	ldi	r30, 0x0B	; 11
    2318:	f1 e0       	ldi	r31, 0x01	; 1
    231a:	80 81       	ld	r24, Z
    231c:	87 7e       	andi	r24, 0xE7	; 231
    231e:	80 83       	st	Z, r24
    2320:	08 95       	ret

00002322 <_Z18encoder_pin_configv>:
Example Call	:	encoder_pin_config
***********************************/
void encoder_pin_config()
{
	// Set as input pins and enable internal pull-up
	pinMode(ENCA1, INPUT_PULLUP); // Encoder 1 - Channel A - PD2 - INT2
    2322:	62 e0       	ldi	r22, 0x02	; 2
    2324:	83 e1       	ldi	r24, 0x13	; 19
    2326:	0e 94 4e 22 	call	0x449c	; 0x449c <pinMode>
	pinMode(ENCA2, INPUT_PULLUP); // Encoder 1 - Channel B - PD3 - INT3
    232a:	62 e0       	ldi	r22, 0x02	; 2
    232c:	82 e1       	ldi	r24, 0x12	; 18
    232e:	0e 94 4e 22 	call	0x449c	; 0x449c <pinMode>
	
	pinMode(ENCB1, INPUT_PULLUP); // Encoder 2 - Channel A - PE4 - INT4
    2332:	62 e0       	ldi	r22, 0x02	; 2
    2334:	82 e0       	ldi	r24, 0x02	; 2
    2336:	0e 94 4e 22 	call	0x449c	; 0x449c <pinMode>
	pinMode(ENCB2, INPUT_PULLUP); // Encoder 2 - Channel B - PE5 - INT5
    233a:	62 e0       	ldi	r22, 0x02	; 2
    233c:	83 e0       	ldi	r24, 0x03	; 3
    233e:	0e 94 4e 22 	call	0x449c	; 0x449c <pinMode>
	
	// Attach interrupts for the encoder input pins
	attachInterrupt(digitalPinToInterrupt(ENCA1), left_encoder_interrupt, CHANGE);
    2342:	41 e0       	ldi	r20, 0x01	; 1
    2344:	50 e0       	ldi	r21, 0x00	; 0
    2346:	66 e1       	ldi	r22, 0x16	; 22
    2348:	71 e1       	ldi	r23, 0x11	; 17
    234a:	84 e0       	ldi	r24, 0x04	; 4
    234c:	0e 94 b0 1e 	call	0x3d60	; 0x3d60 <attachInterrupt>
	attachInterrupt(digitalPinToInterrupt(ENCB1), right_encoder_interrupt, CHANGE);
    2350:	41 e0       	ldi	r20, 0x01	; 1
    2352:	50 e0       	ldi	r21, 0x00	; 0
    2354:	66 e4       	ldi	r22, 0x46	; 70
    2356:	71 e1       	ldi	r23, 0x11	; 17
    2358:	80 e0       	ldi	r24, 0x00	; 0
    235a:	0c 94 b0 1e 	jmp	0x3d60	; 0x3d60 <attachInterrupt>

0000235e <_Z13set_motor_PWMih>:
Return Value	:	None
Example Call	:	set_motor_PWM(LEFT, 255)
***********************************/
void set_motor_PWM(int motor, unsigned char motor_speed)
{
	if (motor==LEFT)  analogWrite(EA, motor_speed);
    235e:	83 30       	cpi	r24, 0x03	; 3
    2360:	91 05       	cpc	r25, r1
    2362:	19 f4       	brne	.+6      	; 0x236a <_Z13set_motor_PWMih+0xc>
    2364:	70 e0       	ldi	r23, 0x00	; 0
    2366:	8e e2       	ldi	r24, 0x2E	; 46
    2368:	04 c0       	rjmp	.+8      	; 0x2372 <_Z13set_motor_PWMih+0x14>
	if (motor==RIGHT) analogWrite(EB, motor_speed);
    236a:	04 97       	sbiw	r24, 0x04	; 4
    236c:	21 f4       	brne	.+8      	; 0x2376 <_Z13set_motor_PWMih+0x18>
    236e:	70 e0       	ldi	r23, 0x00	; 0
    2370:	8d e2       	ldi	r24, 0x2D	; 45
    2372:	0c 94 33 21 	jmp	0x4266	; 0x4266 <analogWrite>
    2376:	08 95       	ret

00002378 <_Z13set_motor_pinibb>:
Return Value	:	None
Example Call	:	set_motor_pin(LEFT, HIGH, LOW)
***********************************/
void set_motor_pin(int motor, bool pin1, bool pin2)
{
	if (motor==LEFT)  PORTH = (pin1 << 5) | (pin2 << 4);
    2378:	83 30       	cpi	r24, 0x03	; 3
    237a:	91 05       	cpc	r25, r1
    237c:	61 f4       	brne	.+24     	; 0x2396 <_Z13set_motor_pinibb+0x1e>
    237e:	80 e2       	ldi	r24, 0x20	; 32
    2380:	68 9f       	mul	r22, r24
    2382:	b0 01       	movw	r22, r0
    2384:	11 24       	eor	r1, r1
    2386:	80 e1       	ldi	r24, 0x10	; 16
    2388:	48 9f       	mul	r20, r24
    238a:	a0 01       	movw	r20, r0
    238c:	11 24       	eor	r1, r1
    238e:	46 2b       	or	r20, r22
    2390:	40 93 02 01 	sts	0x0102, r20	; 0x800102 <__TEXT_REGION_LENGTH__+0x700102>
    2394:	08 95       	ret
	if (motor==RIGHT) PORTB = (pin2 << 5) | (pin1 << 6);
    2396:	04 97       	sbiw	r24, 0x04	; 4
    2398:	51 f4       	brne	.+20     	; 0x23ae <_Z13set_motor_pinibb+0x36>
    239a:	80 e4       	ldi	r24, 0x40	; 64
    239c:	68 9f       	mul	r22, r24
    239e:	b0 01       	movw	r22, r0
    23a0:	11 24       	eor	r1, r1
    23a2:	80 e2       	ldi	r24, 0x20	; 32
    23a4:	48 9f       	mul	r20, r24
    23a6:	a0 01       	movw	r20, r0
    23a8:	11 24       	eor	r1, r1
    23aa:	46 2b       	or	r20, r22
    23ac:	45 b9       	out	0x05, r20	; 5
    23ae:	08 95       	ret

000023b0 <_Z14set_motor_modeii>:
Return Value	:	None
Example Call	:	set_motor_mode(LEFT, FORWARD)
***********************************/
void set_motor_mode(int motor, int mode)
{
	if (mode==FORWARD)	set_motor_pin(motor, LOW, HIGH);
    23b0:	61 30       	cpi	r22, 0x01	; 1
    23b2:	71 05       	cpc	r23, r1
    23b4:	11 f4       	brne	.+4      	; 0x23ba <_Z14set_motor_modeii+0xa>
    23b6:	41 e0       	ldi	r20, 0x01	; 1
    23b8:	09 c0       	rjmp	.+18     	; 0x23cc <_Z14set_motor_modeii+0x1c>
	if (mode==BACK)		set_motor_pin(motor, HIGH, LOW);
    23ba:	62 30       	cpi	r22, 0x02	; 2
    23bc:	71 05       	cpc	r23, r1
    23be:	11 f4       	brne	.+4      	; 0x23c4 <_Z14set_motor_modeii+0x14>
    23c0:	40 e0       	ldi	r20, 0x00	; 0
    23c2:	0a c0       	rjmp	.+20     	; 0x23d8 <_Z14set_motor_modeii+0x28>
	if (mode==COAST)	set_motor_pin(motor, LOW, LOW);
    23c4:	61 15       	cp	r22, r1
    23c6:	71 05       	cpc	r23, r1
    23c8:	19 f4       	brne	.+6      	; 0x23d0 <_Z14set_motor_modeii+0x20>
    23ca:	40 e0       	ldi	r20, 0x00	; 0
    23cc:	60 e0       	ldi	r22, 0x00	; 0
    23ce:	05 c0       	rjmp	.+10     	; 0x23da <_Z14set_motor_modeii+0x2a>
	if (mode==BRAKE)	set_motor_pin(motor, HIGH, HIGH);
    23d0:	65 30       	cpi	r22, 0x05	; 5
    23d2:	71 05       	cpc	r23, r1
    23d4:	19 f4       	brne	.+6      	; 0x23dc <_Z14set_motor_modeii+0x2c>
    23d6:	41 e0       	ldi	r20, 0x01	; 1
    23d8:	61 e0       	ldi	r22, 0x01	; 1
    23da:	ce cf       	rjmp	.-100    	; 0x2378 <_Z13set_motor_pinibb>
    23dc:	08 95       	ret

000023de <_Z11drive_motoriff>:
Arguments		:	Motor type (LEFT/RIGHT), PWM Value, Minimum PWM value for motor
Return Value	:	None
Example Call	:	drive_motor(LEFT, 150, 80)
***********************************/
void drive_motor(int motor, float PWM_value, float min_value)
{
    23de:	4f 92       	push	r4
    23e0:	5f 92       	push	r5
    23e2:	6f 92       	push	r6
    23e4:	7f 92       	push	r7
    23e6:	8f 92       	push	r8
    23e8:	9f 92       	push	r9
    23ea:	af 92       	push	r10
    23ec:	bf 92       	push	r11
    23ee:	cf 92       	push	r12
    23f0:	df 92       	push	r13
    23f2:	ef 92       	push	r14
    23f4:	ff 92       	push	r15
    23f6:	0f 93       	push	r16
    23f8:	1f 93       	push	r17
    23fa:	cf 93       	push	r28
    23fc:	df 93       	push	r29
    23fe:	ec 01       	movw	r28, r24
    2400:	2a 01       	movw	r4, r20
    2402:	3b 01       	movw	r6, r22
    2404:	48 01       	movw	r8, r16
    2406:	59 01       	movw	r10, r18
	// Coast the motors
	if (PWM_value == 0)
    2408:	20 e0       	ldi	r18, 0x00	; 0
    240a:	30 e0       	ldi	r19, 0x00	; 0
    240c:	a9 01       	movw	r20, r18
    240e:	c3 01       	movw	r24, r6
    2410:	b2 01       	movw	r22, r4
    2412:	96 d4       	rcall	.+2348   	; 0x2d40 <__cmpsf2>
    2414:	81 11       	cpse	r24, r1
    2416:	06 c0       	rjmp	.+12     	; 0x2424 <_Z11drive_motoriff+0x46>
	{
		set_motor_PWM(motor, 0);
    2418:	60 e0       	ldi	r22, 0x00	; 0
    241a:	ce 01       	movw	r24, r28
    241c:	a0 df       	rcall	.-192    	; 0x235e <_Z13set_motor_PWMih>
		set_motor_mode(motor, COAST);
    241e:	60 e0       	ldi	r22, 0x00	; 0
    2420:	70 e0       	ldi	r23, 0x00	; 0
    2422:	53 c0       	rjmp	.+166    	; 0x24ca <_Z11drive_motoriff+0xec>
	}
	
	// Move the robot forward
	else if (PWM_value > 0)
    2424:	20 e0       	ldi	r18, 0x00	; 0
    2426:	30 e0       	ldi	r19, 0x00	; 0
    2428:	a9 01       	movw	r20, r18
    242a:	c3 01       	movw	r24, r6
    242c:	b2 01       	movw	r22, r4
    242e:	fc d5       	rcall	.+3064   	; 0x3028 <__gesf2>
    2430:	18 16       	cp	r1, r24
    2432:	0c f5       	brge	.+66     	; 0x2476 <_Z11drive_motoriff+0x98>
	{
		PWM_value = map(PWM_value, 0, 255, min_value, 255);		// Map the PWM values
    2434:	c5 01       	movw	r24, r10
    2436:	b4 01       	movw	r22, r8
    2438:	ef d4       	rcall	.+2526   	; 0x2e18 <__fixsfsi>
    243a:	5b 01       	movw	r10, r22
    243c:	6c 01       	movw	r12, r24
    243e:	c3 01       	movw	r24, r6
    2440:	b2 01       	movw	r22, r4
    2442:	ea d4       	rcall	.+2516   	; 0x2e18 <__fixsfsi>
    2444:	1f 92       	push	r1
    2446:	1f 92       	push	r1
    2448:	1f 92       	push	r1
    244a:	2f ef       	ldi	r18, 0xFF	; 255
    244c:	2f 93       	push	r18
    244e:	e1 2c       	mov	r14, r1
    2450:	f1 2c       	mov	r15, r1
    2452:	87 01       	movw	r16, r14
    2454:	ea 94       	dec	r14
    2456:	20 e0       	ldi	r18, 0x00	; 0
    2458:	30 e0       	ldi	r19, 0x00	; 0
    245a:	a9 01       	movw	r20, r18
    245c:	0e 94 b9 22 	call	0x4572	; 0x4572 <_Z3maplllll>
    2460:	0e d5       	rcall	.+2588   	; 0x2e7e <__floatsisf>
		set_motor_PWM(motor, (unsigned char)PWM_value);			// Set motor speed
    2462:	df d4       	rcall	.+2494   	; 0x2e22 <__fixunssfsi>
    2464:	ce 01       	movw	r24, r28
    2466:	7b df       	rcall	.-266    	; 0x235e <_Z13set_motor_PWMih>
		set_motor_mode(motor, FORWARD);							// Set motor direction
    2468:	0f 90       	pop	r0
    246a:	0f 90       	pop	r0
    246c:	0f 90       	pop	r0
    246e:	0f 90       	pop	r0
    2470:	61 e0       	ldi	r22, 0x01	; 1
    2472:	70 e0       	ldi	r23, 0x00	; 0
    2474:	2a c0       	rjmp	.+84     	; 0x24ca <_Z11drive_motoriff+0xec>
	}
	
	// Move the robot back
	else if (PWM_value < 0)
    2476:	20 e0       	ldi	r18, 0x00	; 0
    2478:	30 e0       	ldi	r19, 0x00	; 0
    247a:	a9 01       	movw	r20, r18
    247c:	c3 01       	movw	r24, r6
    247e:	b2 01       	movw	r22, r4
    2480:	5f d4       	rcall	.+2238   	; 0x2d40 <__cmpsf2>
    2482:	87 ff       	sbrs	r24, 7
    2484:	34 c0       	rjmp	.+104    	; 0x24ee <_Z11drive_motoriff+0x110>
	{
		PWM_value = map(PWM_value, 0, -255, min_value, 255);	// Map the PWM values
    2486:	c5 01       	movw	r24, r10
    2488:	b4 01       	movw	r22, r8
    248a:	c6 d4       	rcall	.+2444   	; 0x2e18 <__fixsfsi>
    248c:	5b 01       	movw	r10, r22
    248e:	6c 01       	movw	r12, r24
    2490:	c3 01       	movw	r24, r6
    2492:	b2 01       	movw	r22, r4
    2494:	c1 d4       	rcall	.+2434   	; 0x2e18 <__fixsfsi>
    2496:	1f 92       	push	r1
    2498:	1f 92       	push	r1
    249a:	1f 92       	push	r1
    249c:	2f ef       	ldi	r18, 0xFF	; 255
    249e:	2f 93       	push	r18
    24a0:	ee 24       	eor	r14, r14
    24a2:	e3 94       	inc	r14
    24a4:	ff 24       	eor	r15, r15
    24a6:	fa 94       	dec	r15
    24a8:	0f ef       	ldi	r16, 0xFF	; 255
    24aa:	1f ef       	ldi	r17, 0xFF	; 255
    24ac:	20 e0       	ldi	r18, 0x00	; 0
    24ae:	30 e0       	ldi	r19, 0x00	; 0
    24b0:	a9 01       	movw	r20, r18
    24b2:	0e 94 b9 22 	call	0x4572	; 0x4572 <_Z3maplllll>
    24b6:	e3 d4       	rcall	.+2502   	; 0x2e7e <__floatsisf>
		set_motor_PWM(motor, (unsigned char)PWM_value);			// Set motor speed
    24b8:	b4 d4       	rcall	.+2408   	; 0x2e22 <__fixunssfsi>
    24ba:	ce 01       	movw	r24, r28
    24bc:	50 df       	rcall	.-352    	; 0x235e <_Z13set_motor_PWMih>
		set_motor_mode(motor, BACK);							// Set motor direction
    24be:	0f 90       	pop	r0
    24c0:	0f 90       	pop	r0
    24c2:	0f 90       	pop	r0
    24c4:	0f 90       	pop	r0
    24c6:	62 e0       	ldi	r22, 0x02	; 2
    24c8:	70 e0       	ldi	r23, 0x00	; 0
    24ca:	ce 01       	movw	r24, r28
	}
}
    24cc:	df 91       	pop	r29
    24ce:	cf 91       	pop	r28
    24d0:	1f 91       	pop	r17
    24d2:	0f 91       	pop	r16
    24d4:	ff 90       	pop	r15
    24d6:	ef 90       	pop	r14
    24d8:	df 90       	pop	r13
    24da:	cf 90       	pop	r12
    24dc:	bf 90       	pop	r11
    24de:	af 90       	pop	r10
    24e0:	9f 90       	pop	r9
    24e2:	8f 90       	pop	r8
    24e4:	7f 90       	pop	r7
    24e6:	6f 90       	pop	r6
    24e8:	5f 90       	pop	r5
    24ea:	4f 90       	pop	r4
	// Move the robot back
	else if (PWM_value < 0)
	{
		PWM_value = map(PWM_value, 0, -255, min_value, 255);	// Map the PWM values
		set_motor_PWM(motor, (unsigned char)PWM_value);			// Set motor speed
		set_motor_mode(motor, BACK);							// Set motor direction
    24ec:	61 cf       	rjmp	.-318    	; 0x23b0 <_Z14set_motor_modeii>
	}
}
    24ee:	df 91       	pop	r29
    24f0:	cf 91       	pop	r28
    24f2:	1f 91       	pop	r17
    24f4:	0f 91       	pop	r16
    24f6:	ff 90       	pop	r15
    24f8:	ef 90       	pop	r14
    24fa:	df 90       	pop	r13
    24fc:	cf 90       	pop	r12
    24fe:	bf 90       	pop	r11
    2500:	af 90       	pop	r10
    2502:	9f 90       	pop	r9
    2504:	8f 90       	pop	r8
    2506:	7f 90       	pop	r7
    2508:	6f 90       	pop	r6
    250a:	5f 90       	pop	r5
    250c:	4f 90       	pop	r4
    250e:	08 95       	ret

00002510 <_Z13update_motorsfff>:
Arguments		:	PID value computed, Left/Right rotation offset values
Return Value	:	None
Example Call	:	update_motors(150, 10, -10)
***********************************/
void update_motors(float PID_output, float left_offset, float right_offset)
{
    2510:	4f 92       	push	r4
    2512:	5f 92       	push	r5
    2514:	6f 92       	push	r6
    2516:	7f 92       	push	r7
    2518:	8f 92       	push	r8
    251a:	9f 92       	push	r9
    251c:	af 92       	push	r10
    251e:	bf 92       	push	r11
    2520:	cf 92       	push	r12
    2522:	df 92       	push	r13
    2524:	ef 92       	push	r14
    2526:	ff 92       	push	r15
    2528:	0f 93       	push	r16
    252a:	1f 93       	push	r17
    252c:	2b 01       	movw	r4, r22
    252e:	3c 01       	movw	r6, r24
    2530:	67 01       	movw	r12, r14
    2532:	78 01       	movw	r14, r16
	float left_PWM=0, right_PWM=0;
	
	// Add rotation offsets and constrain the output
	left_PWM = constrain(PID_output + left_offset, -255, 255);
    2534:	3f d3       	rcall	.+1662   	; 0x2bb4 <__addsf3>
    2536:	4b 01       	movw	r8, r22
    2538:	5c 01       	movw	r10, r24
    253a:	20 e0       	ldi	r18, 0x00	; 0
    253c:	30 e0       	ldi	r19, 0x00	; 0
    253e:	4f e7       	ldi	r20, 0x7F	; 127
    2540:	53 ec       	ldi	r21, 0xC3	; 195
    2542:	fe d3       	rcall	.+2044   	; 0x2d40 <__cmpsf2>
    2544:	87 fd       	sbrc	r24, 7
    2546:	10 c0       	rjmp	.+32     	; 0x2568 <_Z13update_motorsfff+0x58>
    2548:	20 e0       	ldi	r18, 0x00	; 0
    254a:	30 e0       	ldi	r19, 0x00	; 0
    254c:	4f e7       	ldi	r20, 0x7F	; 127
    254e:	53 e4       	ldi	r21, 0x43	; 67
    2550:	c5 01       	movw	r24, r10
    2552:	b4 01       	movw	r22, r8
    2554:	69 d5       	rcall	.+2770   	; 0x3028 <__gesf2>
    2556:	18 16       	cp	r1, r24
    2558:	6c f4       	brge	.+26     	; 0x2574 <_Z13update_motorsfff+0x64>
    255a:	81 2c       	mov	r8, r1
    255c:	91 2c       	mov	r9, r1
    255e:	2f e7       	ldi	r18, 0x7F	; 127
    2560:	a2 2e       	mov	r10, r18
    2562:	23 e4       	ldi	r18, 0x43	; 67
    2564:	b2 2e       	mov	r11, r18
    2566:	06 c0       	rjmp	.+12     	; 0x2574 <_Z13update_motorsfff+0x64>
    2568:	81 2c       	mov	r8, r1
    256a:	91 2c       	mov	r9, r1
    256c:	3f e7       	ldi	r19, 0x7F	; 127
    256e:	a3 2e       	mov	r10, r19
    2570:	33 ec       	ldi	r19, 0xC3	; 195
    2572:	b3 2e       	mov	r11, r19
	right_PWM = constrain(PID_output + right_offset, -255, 255);
    2574:	a7 01       	movw	r20, r14
    2576:	96 01       	movw	r18, r12
    2578:	c3 01       	movw	r24, r6
    257a:	b2 01       	movw	r22, r4
    257c:	1b d3       	rcall	.+1590   	; 0x2bb4 <__addsf3>
    257e:	6b 01       	movw	r12, r22
    2580:	7c 01       	movw	r14, r24
    2582:	20 e0       	ldi	r18, 0x00	; 0
    2584:	30 e0       	ldi	r19, 0x00	; 0
    2586:	4f e7       	ldi	r20, 0x7F	; 127
    2588:	53 ec       	ldi	r21, 0xC3	; 195
    258a:	da d3       	rcall	.+1972   	; 0x2d40 <__cmpsf2>
    258c:	87 fd       	sbrc	r24, 7
    258e:	10 c0       	rjmp	.+32     	; 0x25b0 <_Z13update_motorsfff+0xa0>
    2590:	20 e0       	ldi	r18, 0x00	; 0
    2592:	30 e0       	ldi	r19, 0x00	; 0
    2594:	4f e7       	ldi	r20, 0x7F	; 127
    2596:	53 e4       	ldi	r21, 0x43	; 67
    2598:	c7 01       	movw	r24, r14
    259a:	b6 01       	movw	r22, r12
    259c:	45 d5       	rcall	.+2698   	; 0x3028 <__gesf2>
    259e:	18 16       	cp	r1, r24
    25a0:	6c f4       	brge	.+26     	; 0x25bc <_Z13update_motorsfff+0xac>
    25a2:	c1 2c       	mov	r12, r1
    25a4:	d1 2c       	mov	r13, r1
    25a6:	8f e7       	ldi	r24, 0x7F	; 127
    25a8:	e8 2e       	mov	r14, r24
    25aa:	83 e4       	ldi	r24, 0x43	; 67
    25ac:	f8 2e       	mov	r15, r24
    25ae:	06 c0       	rjmp	.+12     	; 0x25bc <_Z13update_motorsfff+0xac>
    25b0:	c1 2c       	mov	r12, r1
    25b2:	d1 2c       	mov	r13, r1
    25b4:	9f e7       	ldi	r25, 0x7F	; 127
    25b6:	e9 2e       	mov	r14, r25
    25b8:	93 ec       	ldi	r25, 0xC3	; 195
    25ba:	f9 2e       	mov	r15, r25
	
	// Drive the motors
	drive_motor(LEFT, left_PWM, LEFT_PWM_MIN);
    25bc:	00 e0       	ldi	r16, 0x00	; 0
    25be:	10 e0       	ldi	r17, 0x00	; 0
    25c0:	2c e0       	ldi	r18, 0x0C	; 12
    25c2:	32 e4       	ldi	r19, 0x42	; 66
    25c4:	b5 01       	movw	r22, r10
    25c6:	a4 01       	movw	r20, r8
    25c8:	83 e0       	ldi	r24, 0x03	; 3
    25ca:	90 e0       	ldi	r25, 0x00	; 0
    25cc:	08 df       	rcall	.-496    	; 0x23de <_Z11drive_motoriff>
	drive_motor(RIGHT, right_PWM, RIGHT_PWM_MIN);
    25ce:	00 e0       	ldi	r16, 0x00	; 0
    25d0:	10 e0       	ldi	r17, 0x00	; 0
    25d2:	28 e2       	ldi	r18, 0x28	; 40
    25d4:	32 e4       	ldi	r19, 0x42	; 66
    25d6:	b7 01       	movw	r22, r14
    25d8:	a6 01       	movw	r20, r12
    25da:	84 e0       	ldi	r24, 0x04	; 4
    25dc:	90 e0       	ldi	r25, 0x00	; 0
    25de:	ff de       	rcall	.-514    	; 0x23de <_Z11drive_motoriff>
}
    25e0:	1f 91       	pop	r17
    25e2:	0f 91       	pop	r16
    25e4:	ff 90       	pop	r15
    25e6:	ef 90       	pop	r14
    25e8:	df 90       	pop	r13
    25ea:	cf 90       	pop	r12
    25ec:	bf 90       	pop	r11
    25ee:	af 90       	pop	r10
    25f0:	9f 90       	pop	r9
    25f2:	8f 90       	pop	r8
    25f4:	7f 90       	pop	r7
    25f6:	6f 90       	pop	r6
    25f8:	5f 90       	pop	r5
    25fa:	4f 90       	pop	r4
    25fc:	08 95       	ret

000025fe <_Z11motors_initv>:
Return Value	:	None
Example Call	:	motors_init()
***********************************/
void motors_init()
{
	motor_pin_config();
    25fe:	76 de       	rcall	.-788    	; 0x22ec <_Z16motor_pin_configv>
	encoder_pin_config();
    2600:	90 ce       	rjmp	.-736    	; 0x2322 <_Z18encoder_pin_configv>

00002602 <_Z12check_status17status_check_cond>:
Return Value	:	void
Example Call	:	check_status(i2c_getbyte(device_address, device_ID_address, &device_ID))
***********************************/
void check_status(STAT status)
{
	if(status != OK)
    2602:	88 23       	and	r24, r24
    2604:	31 f0       	breq	.+12     	; 0x2612 <_Z12check_status17status_check_cond+0x10>
	{
		if (!read_error_state())
    2606:	76 dd       	rcall	.-1300   	; 0x20f4 <_Z16read_error_statev>
    2608:	81 11       	cpse	r24, r1
    260a:	03 c0       	rjmp	.+6      	; 0x2612 <_Z12check_status17status_check_cond+0x10>
		{
			set_error_state(true);
    260c:	81 e0       	ldi	r24, 0x01	; 1
    260e:	6f dd       	rcall	.-1314   	; 0x20ee <_Z15set_error_stateb>
			set_error_time();
    2610:	74 cd       	rjmp	.-1304   	; 0x20fa <_Z14set_error_timev>
    2612:	08 95       	ret

00002614 <_Z14read_device_IDhh>:
Arguments		:	Device address, ID register address
Return Value	:	Device ID value
Example Call	:	read_device_ID(ADXL345_ADDRESS, ADXL345_DEVID)
***********************************/
INT8 read_device_ID(UINT8 device_address, UINT8 device_ID_address)
{
    2614:	cf 93       	push	r28
    2616:	df 93       	push	r29
    2618:	1f 92       	push	r1
    261a:	cd b7       	in	r28, 0x3d	; 61
    261c:	de b7       	in	r29, 0x3e	; 62
	INT8 device_ID;
	check_status(i2c_getbyte(device_address, device_ID_address, &device_ID));
    261e:	ae 01       	movw	r20, r28
    2620:	4f 5f       	subi	r20, 0xFF	; 255
    2622:	5f 4f       	sbci	r21, 0xFF	; 255
    2624:	97 da       	rcall	.-2770   	; 0x1b54 <_Z11i2c_getbytehhPa>
    2626:	ed df       	rcall	.-38     	; 0x2602 <_Z12check_status17status_check_cond>
	return device_ID;
}
    2628:	89 81       	ldd	r24, Y+1	; 0x01
    262a:	0f 90       	pop	r0
    262c:	df 91       	pop	r29
    262e:	cf 91       	pop	r28
    2630:	08 95       	ret

00002632 <_Z15check_device_IDhha>:
Arguments		:	Device address, ID register address, default device ID
Return Value	:	void
Example Call	:	check_device_ID(ADXL345_ADDRESS, ADXL345_DEVID, ADXL345_KNOWN_ID)
***********************************/
void check_device_ID(UINT8 device_address, UINT8 device_ID_address, INT8 known_ID)
{
    2632:	cf 93       	push	r28
    2634:	df 93       	push	r29
    2636:	1f 92       	push	r1
    2638:	cd b7       	in	r28, 0x3d	; 61
    263a:	de b7       	in	r29, 0x3e	; 62
	INT8 check_ID;
	check_ID = read_device_ID(device_address, device_ID_address);
    263c:	49 83       	std	Y+1, r20	; 0x01
    263e:	ea df       	rcall	.-44     	; 0x2614 <_Z14read_device_IDhh>
	
	if(known_ID != check_ID)
    2640:	49 81       	ldd	r20, Y+1	; 0x01
    2642:	48 17       	cp	r20, r24
    2644:	49 f0       	breq	.+18     	; 0x2658 <_Z15check_device_IDhha+0x26>
	{
		if (!read_error_state())
    2646:	56 dd       	rcall	.-1364   	; 0x20f4 <_Z16read_error_statev>
    2648:	81 11       	cpse	r24, r1
    264a:	06 c0       	rjmp	.+12     	; 0x2658 <_Z15check_device_IDhha+0x26>
		{
			set_error_state(true);
    264c:	81 e0       	ldi	r24, 0x01	; 1
    264e:	4f dd       	rcall	.-1378   	; 0x20ee <_Z15set_error_stateb>
			set_error_time();
		}
	}
    2650:	0f 90       	pop	r0
    2652:	df 91       	pop	r29
    2654:	cf 91       	pop	r28
	if(known_ID != check_ID)
	{
		if (!read_error_state())
		{
			set_error_state(true);
			set_error_time();
    2656:	51 cd       	rjmp	.-1374   	; 0x20fa <_Z14set_error_timev>
		}
	}
    2658:	0f 90       	pop	r0
    265a:	df 91       	pop	r29
    265c:	cf 91       	pop	r28
    265e:	08 95       	ret

00002660 <_Z11timer1_initv>:
Return Value	:	None
Example Call	:	timer1_init()
***********************************/
void timer1_init()
{
	TCCR1B = 0x00; 		// Stop Timer
    2660:	10 92 81 00 	sts	0x0081, r1	; 0x800081 <__TEXT_REGION_LENGTH__+0x700081>
	TCNT1  = 0xFB80;	// 0.02s
    2664:	80 e8       	ldi	r24, 0x80	; 128
    2666:	9b ef       	ldi	r25, 0xFB	; 251
    2668:	90 93 85 00 	sts	0x0085, r25	; 0x800085 <__TEXT_REGION_LENGTH__+0x700085>
    266c:	80 93 84 00 	sts	0x0084, r24	; 0x800084 <__TEXT_REGION_LENGTH__+0x700084>
	OCR1A  = 0x0000; 	// Output Compare Register (OCR) - Not used
    2670:	10 92 89 00 	sts	0x0089, r1	; 0x800089 <__TEXT_REGION_LENGTH__+0x700089>
    2674:	10 92 88 00 	sts	0x0088, r1	; 0x800088 <__TEXT_REGION_LENGTH__+0x700088>
	OCR1B  = 0x0000; 	// Output Compare Register (OCR) - Not used
    2678:	10 92 8b 00 	sts	0x008B, r1	; 0x80008b <__TEXT_REGION_LENGTH__+0x70008b>
    267c:	10 92 8a 00 	sts	0x008A, r1	; 0x80008a <__TEXT_REGION_LENGTH__+0x70008a>
	OCR1C  = 0x0000; 	// Output Compare Register (OCR) - Not used
    2680:	10 92 8d 00 	sts	0x008D, r1	; 0x80008d <__TEXT_REGION_LENGTH__+0x70008d>
    2684:	10 92 8c 00 	sts	0x008C, r1	; 0x80008c <__TEXT_REGION_LENGTH__+0x70008c>
	ICR1   = 0x0000; 	// Input Capture Register (ICR)  - Not used
    2688:	10 92 87 00 	sts	0x0087, r1	; 0x800087 <__TEXT_REGION_LENGTH__+0x700087>
    268c:	10 92 86 00 	sts	0x0086, r1	; 0x800086 <__TEXT_REGION_LENGTH__+0x700086>
	TCCR1A = 0x00;
    2690:	10 92 80 00 	sts	0x0080, r1	; 0x800080 <__TEXT_REGION_LENGTH__+0x700080>
	TCCR1C = 0x00;
    2694:	10 92 82 00 	sts	0x0082, r1	; 0x800082 <__TEXT_REGION_LENGTH__+0x700082>
    2698:	08 95       	ret

0000269a <_Z12start_timer1v>:
Return Value	:	None
Example Call	:	start_timer1()
***********************************/
void start_timer1()
{
	TCCR1B = 0x04; 		// Prescaler 256 1-0-0
    269a:	84 e0       	ldi	r24, 0x04	; 4
    269c:	80 93 81 00 	sts	0x0081, r24	; 0x800081 <__TEXT_REGION_LENGTH__+0x700081>
	TIMSK1 = 0x01;		// Enable Timer Overflow Interrupt
    26a0:	81 e0       	ldi	r24, 0x01	; 1
    26a2:	80 93 6f 00 	sts	0x006F, r24	; 0x80006f <__TEXT_REGION_LENGTH__+0x70006f>
    26a6:	08 95       	ret

000026a8 <_Z11timer3_initv>:
Return Value	:	None
Example Call	:	timer3_init()
***********************************/
void timer3_init()
{
	TCCR3B = 0x00; 		// Stop Timer
    26a8:	10 92 91 00 	sts	0x0091, r1	; 0x800091 <__TEXT_REGION_LENGTH__+0x700091>
	TCNT3  = 0xFF70;	// 0.01s
    26ac:	80 e7       	ldi	r24, 0x70	; 112
    26ae:	9f ef       	ldi	r25, 0xFF	; 255
    26b0:	90 93 95 00 	sts	0x0095, r25	; 0x800095 <__TEXT_REGION_LENGTH__+0x700095>
    26b4:	80 93 94 00 	sts	0x0094, r24	; 0x800094 <__TEXT_REGION_LENGTH__+0x700094>
	OCR3A  = 0x0000; 	// Output Compare Register (OCR) - Not used
    26b8:	10 92 99 00 	sts	0x0099, r1	; 0x800099 <__TEXT_REGION_LENGTH__+0x700099>
    26bc:	10 92 98 00 	sts	0x0098, r1	; 0x800098 <__TEXT_REGION_LENGTH__+0x700098>
	OCR3B  = 0x0000; 	// Output Compare Register (OCR) - Not used
    26c0:	10 92 9b 00 	sts	0x009B, r1	; 0x80009b <__TEXT_REGION_LENGTH__+0x70009b>
    26c4:	10 92 9a 00 	sts	0x009A, r1	; 0x80009a <__TEXT_REGION_LENGTH__+0x70009a>
	OCR3C  = 0x0000; 	// Output Compare Register (OCR) - Not used
    26c8:	10 92 9d 00 	sts	0x009D, r1	; 0x80009d <__TEXT_REGION_LENGTH__+0x70009d>
    26cc:	10 92 9c 00 	sts	0x009C, r1	; 0x80009c <__TEXT_REGION_LENGTH__+0x70009c>
	ICR3   = 0x0000; 	// Input Capture Register (ICR)  - Not used
    26d0:	10 92 97 00 	sts	0x0097, r1	; 0x800097 <__TEXT_REGION_LENGTH__+0x700097>
    26d4:	10 92 96 00 	sts	0x0096, r1	; 0x800096 <__TEXT_REGION_LENGTH__+0x700096>
	TCCR3A = 0x00;
    26d8:	10 92 90 00 	sts	0x0090, r1	; 0x800090 <__TEXT_REGION_LENGTH__+0x700090>
	TCCR3C = 0x00;
    26dc:	10 92 92 00 	sts	0x0092, r1	; 0x800092 <__TEXT_REGION_LENGTH__+0x700092>
    26e0:	08 95       	ret

000026e2 <_Z12start_timer3v>:
Return Value	:	None
Example Call	:	start_timer3()
***********************************/
void start_timer3()
{
	TCCR3B = 0x05; 		// Prescaler 1024 1-0-1
    26e2:	85 e0       	ldi	r24, 0x05	; 5
    26e4:	80 93 91 00 	sts	0x0091, r24	; 0x800091 <__TEXT_REGION_LENGTH__+0x700091>
	TIMSK3 = 0x01;		// Enable Timer Overflow Interrupt
    26e8:	81 e0       	ldi	r24, 0x01	; 1
    26ea:	80 93 71 00 	sts	0x0071, r24	; 0x800071 <__TEXT_REGION_LENGTH__+0x700071>
    26ee:	08 95       	ret

000026f0 <_Z11timer4_initv>:
Return Value	:	None
Example Call	:	timer4_init()
***********************************/
void timer4_init()
{
	TCCR4B = 0x00; 		// Stop Timer
    26f0:	10 92 a1 00 	sts	0x00A1, r1	; 0x8000a1 <__TEXT_REGION_LENGTH__+0x7000a1>
	TCNT4  = 0xC667;	// 0.0009999593097s (~0.001s)
    26f4:	87 e6       	ldi	r24, 0x67	; 103
    26f6:	96 ec       	ldi	r25, 0xC6	; 198
    26f8:	90 93 a5 00 	sts	0x00A5, r25	; 0x8000a5 <__TEXT_REGION_LENGTH__+0x7000a5>
    26fc:	80 93 a4 00 	sts	0x00A4, r24	; 0x8000a4 <__TEXT_REGION_LENGTH__+0x7000a4>
	OCR4A  = 0x0000; 	// Output Compare Register (OCR) - Not used
    2700:	10 92 a9 00 	sts	0x00A9, r1	; 0x8000a9 <__TEXT_REGION_LENGTH__+0x7000a9>
    2704:	10 92 a8 00 	sts	0x00A8, r1	; 0x8000a8 <__TEXT_REGION_LENGTH__+0x7000a8>
	OCR4B  = 0x0000; 	// Output Compare Register (OCR) - Not used
    2708:	10 92 ab 00 	sts	0x00AB, r1	; 0x8000ab <__TEXT_REGION_LENGTH__+0x7000ab>
    270c:	10 92 aa 00 	sts	0x00AA, r1	; 0x8000aa <__TEXT_REGION_LENGTH__+0x7000aa>
	OCR4C  = 0x0000; 	// Output Compare Register (OCR) - Not used
    2710:	10 92 ad 00 	sts	0x00AD, r1	; 0x8000ad <__TEXT_REGION_LENGTH__+0x7000ad>
    2714:	10 92 ac 00 	sts	0x00AC, r1	; 0x8000ac <__TEXT_REGION_LENGTH__+0x7000ac>
	ICR4   = 0x0000; 	// Input Capture Register (ICR)  - Not used
    2718:	10 92 a7 00 	sts	0x00A7, r1	; 0x8000a7 <__TEXT_REGION_LENGTH__+0x7000a7>
    271c:	10 92 a6 00 	sts	0x00A6, r1	; 0x8000a6 <__TEXT_REGION_LENGTH__+0x7000a6>
	TCCR4A = 0x00;
    2720:	10 92 a0 00 	sts	0x00A0, r1	; 0x8000a0 <__TEXT_REGION_LENGTH__+0x7000a0>
	TCCR4C = 0x00;
    2724:	10 92 a2 00 	sts	0x00A2, r1	; 0x8000a2 <__TEXT_REGION_LENGTH__+0x7000a2>
    2728:	08 95       	ret

0000272a <_Z12start_timer4v>:
Return Value	:	None
Example Call	:	start_timer4()
***********************************/
void start_timer4()
{
	TCCR4B = 0x01; 		// Prescaler None 0-0-1
    272a:	81 e0       	ldi	r24, 0x01	; 1
    272c:	80 93 a1 00 	sts	0x00A1, r24	; 0x8000a1 <__TEXT_REGION_LENGTH__+0x7000a1>
	TIMSK4 = 0x01;		// Enable Timer Overflow Interrupt
    2730:	80 93 72 00 	sts	0x0072, r24	; 0x800072 <__TEXT_REGION_LENGTH__+0x700072>
    2734:	08 95       	ret

00002736 <__vector_45>:
Arguments		:	Timer 4 overflow vector
Return Value	:	None
Example Call	:	Called automatically
***********************************/
ISR(TIMER4_OVF_vect)
{
    2736:	1f 92       	push	r1
    2738:	0f 92       	push	r0
    273a:	0f b6       	in	r0, 0x3f	; 63
    273c:	0f 92       	push	r0
    273e:	11 24       	eor	r1, r1
    2740:	2f 93       	push	r18
    2742:	8f 93       	push	r24
    2744:	9f 93       	push	r25
    2746:	af 93       	push	r26
    2748:	bf 93       	push	r27
	TCNT4 = 0xC667;		// Reload counter value
    274a:	87 e6       	ldi	r24, 0x67	; 103
    274c:	96 ec       	ldi	r25, 0xC6	; 198
    274e:	90 93 a5 00 	sts	0x00A5, r25	; 0x8000a5 <__TEXT_REGION_LENGTH__+0x7000a5>
    2752:	80 93 a4 00 	sts	0x00A4, r24	; 0x8000a4 <__TEXT_REGION_LENGTH__+0x7000a4>
	time_ms++;			// Increment ms value
    2756:	80 91 88 05 	lds	r24, 0x0588	; 0x800588 <time_ms>
    275a:	90 91 89 05 	lds	r25, 0x0589	; 0x800589 <time_ms+0x1>
    275e:	a0 91 8a 05 	lds	r26, 0x058A	; 0x80058a <time_ms+0x2>
    2762:	b0 91 8b 05 	lds	r27, 0x058B	; 0x80058b <time_ms+0x3>
    2766:	01 96       	adiw	r24, 0x01	; 1
    2768:	a1 1d       	adc	r26, r1
    276a:	b1 1d       	adc	r27, r1
    276c:	80 93 88 05 	sts	0x0588, r24	; 0x800588 <time_ms>
    2770:	90 93 89 05 	sts	0x0589, r25	; 0x800589 <time_ms+0x1>
    2774:	a0 93 8a 05 	sts	0x058A, r26	; 0x80058a <time_ms+0x2>
    2778:	b0 93 8b 05 	sts	0x058B, r27	; 0x80058b <time_ms+0x3>
	
	if (time_ms>=1000)
    277c:	80 91 88 05 	lds	r24, 0x0588	; 0x800588 <time_ms>
    2780:	90 91 89 05 	lds	r25, 0x0589	; 0x800589 <time_ms+0x1>
    2784:	a0 91 8a 05 	lds	r26, 0x058A	; 0x80058a <time_ms+0x2>
    2788:	b0 91 8b 05 	lds	r27, 0x058B	; 0x80058b <time_ms+0x3>
    278c:	88 3e       	cpi	r24, 0xE8	; 232
    278e:	93 40       	sbci	r25, 0x03	; 3
    2790:	a1 05       	cpc	r26, r1
    2792:	b1 05       	cpc	r27, r1
    2794:	d8 f0       	brcs	.+54     	; 0x27cc <__vector_45+0x96>
	{
		time_ms = 0;	// Reset ms value
    2796:	10 92 88 05 	sts	0x0588, r1	; 0x800588 <time_ms>
    279a:	10 92 89 05 	sts	0x0589, r1	; 0x800589 <time_ms+0x1>
    279e:	10 92 8a 05 	sts	0x058A, r1	; 0x80058a <time_ms+0x2>
    27a2:	10 92 8b 05 	sts	0x058B, r1	; 0x80058b <time_ms+0x3>
		time_sec++;		// Increments seconds value
    27a6:	80 91 84 05 	lds	r24, 0x0584	; 0x800584 <time_sec>
    27aa:	90 91 85 05 	lds	r25, 0x0585	; 0x800585 <time_sec+0x1>
    27ae:	a0 91 86 05 	lds	r26, 0x0586	; 0x800586 <time_sec+0x2>
    27b2:	b0 91 87 05 	lds	r27, 0x0587	; 0x800587 <time_sec+0x3>
    27b6:	01 96       	adiw	r24, 0x01	; 1
    27b8:	a1 1d       	adc	r26, r1
    27ba:	b1 1d       	adc	r27, r1
    27bc:	80 93 84 05 	sts	0x0584, r24	; 0x800584 <time_sec>
    27c0:	90 93 85 05 	sts	0x0585, r25	; 0x800585 <time_sec+0x1>
    27c4:	a0 93 86 05 	sts	0x0586, r26	; 0x800586 <time_sec+0x2>
    27c8:	b0 93 87 05 	sts	0x0587, r27	; 0x800587 <time_sec+0x3>
	}
}
    27cc:	bf 91       	pop	r27
    27ce:	af 91       	pop	r26
    27d0:	9f 91       	pop	r25
    27d2:	8f 91       	pop	r24
    27d4:	2f 91       	pop	r18
    27d6:	0f 90       	pop	r0
    27d8:	0f be       	out	0x3f, r0	; 63
    27da:	0f 90       	pop	r0
    27dc:	1f 90       	pop	r1
    27de:	18 95       	reti

000027e0 <_Z5epochv>:
Arguments		:	None
Return Value	:	Current program time
Example Call	:	epoch()
***********************************/
unsigned long epoch()
{
    27e0:	cf 92       	push	r12
    27e2:	df 92       	push	r13
    27e4:	ef 92       	push	r14
    27e6:	ff 92       	push	r15
	unsigned long elapsed_time;
	elapsed_time = time_sec*1000 + time_ms;
    27e8:	20 91 84 05 	lds	r18, 0x0584	; 0x800584 <time_sec>
    27ec:	30 91 85 05 	lds	r19, 0x0585	; 0x800585 <time_sec+0x1>
    27f0:	40 91 86 05 	lds	r20, 0x0586	; 0x800586 <time_sec+0x2>
    27f4:	50 91 87 05 	lds	r21, 0x0587	; 0x800587 <time_sec+0x3>
    27f8:	c0 90 88 05 	lds	r12, 0x0588	; 0x800588 <time_ms>
    27fc:	d0 90 89 05 	lds	r13, 0x0589	; 0x800589 <time_ms+0x1>
    2800:	e0 90 8a 05 	lds	r14, 0x058A	; 0x80058a <time_ms+0x2>
    2804:	f0 90 8b 05 	lds	r15, 0x058B	; 0x80058b <time_ms+0x3>
    2808:	a8 ee       	ldi	r26, 0xE8	; 232
    280a:	b3 e0       	ldi	r27, 0x03	; 3
    280c:	0e 94 61 23 	call	0x46c2	; 0x46c2 <__muluhisi3>
    2810:	6c 0d       	add	r22, r12
    2812:	7d 1d       	adc	r23, r13
    2814:	8e 1d       	adc	r24, r14
    2816:	9f 1d       	adc	r25, r15
	return elapsed_time;
    2818:	ff 90       	pop	r15
    281a:	ef 90       	pop	r14
    281c:	df 90       	pop	r13
    281e:	cf 90       	pop	r12
    2820:	08 95       	ret

00002822 <_ZN8anyrtttl10readNumberEPKcRi>:
					#endif

					_delay(duration);
				}
			}
		}
    2822:	db 01       	movw	r26, r22
    2824:	11 96       	adiw	r26, 0x01	; 1
    2826:	1c 92       	st	X, r1
    2828:	1e 92       	st	-X, r1
    282a:	fc 01       	movw	r30, r24
    282c:	4a e0       	ldi	r20, 0x0A	; 10
    282e:	cf 01       	movw	r24, r30
    2830:	31 91       	ld	r19, Z+
    2832:	20 ed       	ldi	r18, 0xD0	; 208
    2834:	23 0f       	add	r18, r19
    2836:	2a 30       	cpi	r18, 0x0A	; 10
    2838:	90 f4       	brcc	.+36     	; 0x285e <_ZN8anyrtttl10readNumberEPKcRi+0x3c>
    283a:	6d 91       	ld	r22, X+
    283c:	7c 91       	ld	r23, X
    283e:	11 97       	sbiw	r26, 0x01	; 1
    2840:	46 9f       	mul	r20, r22
    2842:	c0 01       	movw	r24, r0
    2844:	47 9f       	mul	r20, r23
    2846:	90 0d       	add	r25, r0
    2848:	11 24       	eor	r1, r1
    284a:	23 2f       	mov	r18, r19
    284c:	30 e0       	ldi	r19, 0x00	; 0
    284e:	20 53       	subi	r18, 0x30	; 48
    2850:	31 09       	sbc	r19, r1
    2852:	28 0f       	add	r18, r24
    2854:	39 1f       	adc	r19, r25
    2856:	11 96       	adiw	r26, 0x01	; 1
    2858:	3c 93       	st	X, r19
    285a:	2e 93       	st	-X, r18
    285c:	e8 cf       	rjmp	.-48     	; 0x282e <_ZN8anyrtttl10readNumberEPKcRi+0xc>
    285e:	08 95       	ret

00002860 <_ZN8anyrtttl11nonblocking5beginEhPKc>:
			Serial.print("playing: ");
			Serial.println(buffer);
			#endif
			
			//init values
			pin = iPin;
    2860:	80 93 be 02 	sts	0x02BE, r24	; 0x8002be <_ZN8anyrtttl3pinE>
			buffer = iBuffer;
    2864:	70 93 c6 02 	sts	0x02C6, r23	; 0x8002c6 <_ZN8anyrtttl6bufferE+0x1>
    2868:	60 93 c5 02 	sts	0x02C5, r22	; 0x8002c5 <_ZN8anyrtttl6bufferE>
			bufferIndex = 0;
    286c:	10 92 c4 02 	sts	0x02C4, r1	; 0x8002c4 <_ZN8anyrtttl11bufferIndexE+0x1>
    2870:	10 92 c3 02 	sts	0x02C3, r1	; 0x8002c3 <_ZN8anyrtttl11bufferIndexE>
			default_dur = 4;
    2874:	94 e0       	ldi	r25, 0x04	; 4
    2876:	90 93 c2 02 	sts	0x02C2, r25	; 0x8002c2 <_ZN8anyrtttl11default_durE>
			default_oct = 6;
    287a:	96 e0       	ldi	r25, 0x06	; 6
    287c:	90 93 c1 02 	sts	0x02C1, r25	; 0x8002c1 <_ZN8anyrtttl11default_octE>
			bpm=63;
    2880:	2f e3       	ldi	r18, 0x3F	; 63
    2882:	30 e0       	ldi	r19, 0x00	; 0
    2884:	30 93 c0 02 	sts	0x02C0, r19	; 0x8002c0 <_ZN8anyrtttl3bpmE+0x1>
    2888:	20 93 bf 02 	sts	0x02BF, r18	; 0x8002bf <_ZN8anyrtttl3bpmE>
			playing = true;
    288c:	91 e0       	ldi	r25, 0x01	; 1
    288e:	90 93 92 05 	sts	0x0592, r25	; 0x800592 <_ZN8anyrtttl7playingE>
			delayToNextNote = 0;
    2892:	10 92 93 05 	sts	0x0593, r1	; 0x800593 <_ZN8anyrtttl15delayToNextNoteE>
    2896:	10 92 94 05 	sts	0x0594, r1	; 0x800594 <_ZN8anyrtttl15delayToNextNoteE+0x1>
    289a:	10 92 95 05 	sts	0x0595, r1	; 0x800595 <_ZN8anyrtttl15delayToNextNoteE+0x2>
    289e:	10 92 96 05 	sts	0x0596, r1	; 0x800596 <_ZN8anyrtttl15delayToNextNoteE+0x3>
			Serial.print("delayToNextNote=");
			Serial.println(delayToNextNote);
			#endif
			
			//stop current note
			noTone(pin);
    28a2:	0e 94 3c 1e 	call	0x3c78	; 0x3c78 <_Z6noToneh>

			// format: d=N,o=N,b=NNN:
			// find the start (skip name, etc)

			//read buffer until first note
			while(*buffer != ':') buffer++;     // ignore name
    28a6:	e0 91 c5 02 	lds	r30, 0x02C5	; 0x8002c5 <_ZN8anyrtttl6bufferE>
    28aa:	f0 91 c6 02 	lds	r31, 0x02C6	; 0x8002c6 <_ZN8anyrtttl6bufferE+0x1>
    28ae:	df 01       	movw	r26, r30
    28b0:	8d 91       	ld	r24, X+
    28b2:	b0 93 c6 02 	sts	0x02C6, r27	; 0x8002c6 <_ZN8anyrtttl6bufferE+0x1>
    28b6:	a0 93 c5 02 	sts	0x02C5, r26	; 0x8002c5 <_ZN8anyrtttl6bufferE>
    28ba:	8a 33       	cpi	r24, 0x3A	; 58
    28bc:	a1 f7       	brne	.-24     	; 0x28a6 <_ZN8anyrtttl11nonblocking5beginEhPKc+0x46>
			buffer++;                           // skip ':'

			// get default duration
			if(*buffer == 'd')
    28be:	81 81       	ldd	r24, Z+1	; 0x01
    28c0:	84 36       	cpi	r24, 0x64	; 100
    28c2:	b9 f4       	brne	.+46     	; 0x28f2 <_ZN8anyrtttl11nonblocking5beginEhPKc+0x92>
			{
				buffer++; buffer++;               // skip "d="
    28c4:	cf 01       	movw	r24, r30
    28c6:	03 96       	adiw	r24, 0x03	; 3
    28c8:	90 93 c6 02 	sts	0x02C6, r25	; 0x8002c6 <_ZN8anyrtttl6bufferE+0x1>
    28cc:	80 93 c5 02 	sts	0x02C5, r24	; 0x8002c5 <_ZN8anyrtttl6bufferE>
				buffer = readNumber(buffer, tmpNumber);
    28d0:	6c e8       	ldi	r22, 0x8C	; 140
    28d2:	75 e0       	ldi	r23, 0x05	; 5
    28d4:	a6 df       	rcall	.-180    	; 0x2822 <_ZN8anyrtttl10readNumberEPKcRi>
				if(tmpNumber > 0)
    28d6:	20 91 8c 05 	lds	r18, 0x058C	; 0x80058c <_ZN8anyrtttl9tmpNumberE>
    28da:	30 91 8d 05 	lds	r19, 0x058D	; 0x80058d <_ZN8anyrtttl9tmpNumberE+0x1>
    28de:	12 16       	cp	r1, r18
    28e0:	13 06       	cpc	r1, r19
    28e2:	14 f4       	brge	.+4      	; 0x28e8 <_ZN8anyrtttl11nonblocking5beginEhPKc+0x88>
				default_dur = tmpNumber;
    28e4:	20 93 c2 02 	sts	0x02C2, r18	; 0x8002c2 <_ZN8anyrtttl11default_durE>
				buffer++;                         // skip comma
    28e8:	01 96       	adiw	r24, 0x01	; 1
    28ea:	90 93 c6 02 	sts	0x02C6, r25	; 0x8002c6 <_ZN8anyrtttl6bufferE+0x1>
    28ee:	80 93 c5 02 	sts	0x02C5, r24	; 0x8002c5 <_ZN8anyrtttl6bufferE>
			#ifdef ANY_RTTTL_INFO
			Serial.print("ddur: "); Serial.println(default_dur, 10);
			#endif
			
			// get default octave
			if(*buffer == 'o')
    28f2:	e0 91 c5 02 	lds	r30, 0x02C5	; 0x8002c5 <_ZN8anyrtttl6bufferE>
    28f6:	f0 91 c6 02 	lds	r31, 0x02C6	; 0x8002c6 <_ZN8anyrtttl6bufferE+0x1>
    28fa:	20 81       	ld	r18, Z
    28fc:	2f 36       	cpi	r18, 0x6F	; 111
    28fe:	d1 f4       	brne	.+52     	; 0x2934 <_ZN8anyrtttl11nonblocking5beginEhPKc+0xd4>
			{
				buffer++; buffer++;               // skip "o="
    2900:	cf 01       	movw	r24, r30
    2902:	02 96       	adiw	r24, 0x02	; 2
    2904:	90 93 c6 02 	sts	0x02C6, r25	; 0x8002c6 <_ZN8anyrtttl6bufferE+0x1>
    2908:	80 93 c5 02 	sts	0x02C5, r24	; 0x8002c5 <_ZN8anyrtttl6bufferE>
				buffer = readNumber(buffer, tmpNumber);
    290c:	6c e8       	ldi	r22, 0x8C	; 140
    290e:	75 e0       	ldi	r23, 0x05	; 5
    2910:	88 df       	rcall	.-240    	; 0x2822 <_ZN8anyrtttl10readNumberEPKcRi>
				if(tmpNumber >= 3 && tmpNumber <= 7)
    2912:	20 91 8c 05 	lds	r18, 0x058C	; 0x80058c <_ZN8anyrtttl9tmpNumberE>
    2916:	30 91 8d 05 	lds	r19, 0x058D	; 0x80058d <_ZN8anyrtttl9tmpNumberE+0x1>
    291a:	a9 01       	movw	r20, r18
    291c:	43 50       	subi	r20, 0x03	; 3
    291e:	51 09       	sbc	r21, r1
    2920:	45 30       	cpi	r20, 0x05	; 5
    2922:	51 05       	cpc	r21, r1
    2924:	10 f4       	brcc	.+4      	; 0x292a <_ZN8anyrtttl11nonblocking5beginEhPKc+0xca>
				default_oct = tmpNumber;
    2926:	20 93 c1 02 	sts	0x02C1, r18	; 0x8002c1 <_ZN8anyrtttl11default_octE>
				buffer++;                         // skip comma
    292a:	01 96       	adiw	r24, 0x01	; 1
    292c:	90 93 c6 02 	sts	0x02C6, r25	; 0x8002c6 <_ZN8anyrtttl6bufferE+0x1>
    2930:	80 93 c5 02 	sts	0x02C5, r24	; 0x8002c5 <_ZN8anyrtttl6bufferE>
			#ifdef ANY_RTTTL_INFO
			Serial.print("doct: "); Serial.println(default_oct, 10);
			#endif
			
			// get BPM
			if(*buffer == 'b')
    2934:	e0 91 c5 02 	lds	r30, 0x02C5	; 0x8002c5 <_ZN8anyrtttl6bufferE>
    2938:	f0 91 c6 02 	lds	r31, 0x02C6	; 0x8002c6 <_ZN8anyrtttl6bufferE+0x1>
    293c:	20 81       	ld	r18, Z
    293e:	22 36       	cpi	r18, 0x62	; 98
    2940:	b1 f4       	brne	.+44     	; 0x296e <_ZN8anyrtttl11nonblocking5beginEhPKc+0x10e>
			{
				buffer++; buffer++;              // skip "b="
    2942:	cf 01       	movw	r24, r30
    2944:	02 96       	adiw	r24, 0x02	; 2
    2946:	90 93 c6 02 	sts	0x02C6, r25	; 0x8002c6 <_ZN8anyrtttl6bufferE+0x1>
    294a:	80 93 c5 02 	sts	0x02C5, r24	; 0x8002c5 <_ZN8anyrtttl6bufferE>
				buffer = readNumber(buffer, tmpNumber);
    294e:	6c e8       	ldi	r22, 0x8C	; 140
    2950:	75 e0       	ldi	r23, 0x05	; 5
    2952:	67 df       	rcall	.-306    	; 0x2822 <_ZN8anyrtttl10readNumberEPKcRi>
				bpm = tmpNumber;
    2954:	20 91 8c 05 	lds	r18, 0x058C	; 0x80058c <_ZN8anyrtttl9tmpNumberE>
    2958:	30 91 8d 05 	lds	r19, 0x058D	; 0x80058d <_ZN8anyrtttl9tmpNumberE+0x1>
    295c:	30 93 c0 02 	sts	0x02C0, r19	; 0x8002c0 <_ZN8anyrtttl3bpmE+0x1>
    2960:	20 93 bf 02 	sts	0x02BF, r18	; 0x8002bf <_ZN8anyrtttl3bpmE>
				buffer++;                   // skip colon
    2964:	01 96       	adiw	r24, 0x01	; 1
    2966:	90 93 c6 02 	sts	0x02C6, r25	; 0x8002c6 <_ZN8anyrtttl6bufferE+0x1>
    296a:	80 93 c5 02 	sts	0x02C5, r24	; 0x8002c5 <_ZN8anyrtttl6bufferE>
			#ifdef ANY_RTTTL_INFO
			Serial.print("bpm: "); Serial.println(bpm, 10);
			#endif

			// BPM usually expresses the number of quarter notes per minute
			wholenote = (60 * 1000L / bpm) * 4;  // this is the time for whole noteOffset (in milliseconds)
    296e:	20 91 bf 02 	lds	r18, 0x02BF	; 0x8002bf <_ZN8anyrtttl3bpmE>
    2972:	30 91 c0 02 	lds	r19, 0x02C0	; 0x8002c0 <_ZN8anyrtttl3bpmE+0x1>
    2976:	40 e0       	ldi	r20, 0x00	; 0
    2978:	50 e0       	ldi	r21, 0x00	; 0
    297a:	60 e6       	ldi	r22, 0x60	; 96
    297c:	7a ee       	ldi	r23, 0xEA	; 234
    297e:	80 e0       	ldi	r24, 0x00	; 0
    2980:	90 e0       	ldi	r25, 0x00	; 0
    2982:	0e 94 3d 23 	call	0x467a	; 0x467a <__divmodsi4>
    2986:	22 0f       	add	r18, r18
    2988:	33 1f       	adc	r19, r19
    298a:	22 0f       	add	r18, r18
    298c:	33 1f       	adc	r19, r19
    298e:	30 93 98 05 	sts	0x0598, r19	; 0x800598 <_ZN8anyrtttl9wholenoteE+0x1>
    2992:	20 93 97 05 	sts	0x0597, r18	; 0x800597 <_ZN8anyrtttl9wholenoteE>
    2996:	08 95       	ret

00002998 <_ZN8anyrtttl11nonblocking8nextnoteEv>:
		}

		void nextnote()
		{
			//stop current note
			_noTone(pin);
    2998:	e0 91 ba 02 	lds	r30, 0x02BA	; 0x8002ba <_ZN8anyrtttl7_noToneE>
    299c:	f0 91 bb 02 	lds	r31, 0x02BB	; 0x8002bb <_ZN8anyrtttl7_noToneE+0x1>
    29a0:	80 91 be 02 	lds	r24, 0x02BE	; 0x8002be <_ZN8anyrtttl3pinE>
    29a4:	19 95       	eicall

			// first, get note duration, if available
			buffer = readNumber(buffer, tmpNumber);
    29a6:	6c e8       	ldi	r22, 0x8C	; 140
    29a8:	75 e0       	ldi	r23, 0x05	; 5
    29aa:	80 91 c5 02 	lds	r24, 0x02C5	; 0x8002c5 <_ZN8anyrtttl6bufferE>
    29ae:	90 91 c6 02 	lds	r25, 0x02C6	; 0x8002c6 <_ZN8anyrtttl6bufferE+0x1>
    29b2:	37 df       	rcall	.-402    	; 0x2822 <_ZN8anyrtttl10readNumberEPKcRi>
    29b4:	fc 01       	movw	r30, r24
    29b6:	90 93 c6 02 	sts	0x02C6, r25	; 0x8002c6 <_ZN8anyrtttl6bufferE+0x1>
    29ba:	80 93 c5 02 	sts	0x02C5, r24	; 0x8002c5 <_ZN8anyrtttl6bufferE>
			
			if(tmpNumber)
    29be:	60 91 8c 05 	lds	r22, 0x058C	; 0x80058c <_ZN8anyrtttl9tmpNumberE>
    29c2:	70 91 8d 05 	lds	r23, 0x058D	; 0x80058d <_ZN8anyrtttl9tmpNumberE+0x1>
    29c6:	80 91 97 05 	lds	r24, 0x0597	; 0x800597 <_ZN8anyrtttl9wholenoteE>
    29ca:	90 91 98 05 	lds	r25, 0x0598	; 0x800598 <_ZN8anyrtttl9wholenoteE+0x1>
    29ce:	61 15       	cp	r22, r1
    29d0:	71 05       	cpc	r23, r1
    29d2:	19 f4       	brne	.+6      	; 0x29da <_ZN8anyrtttl11nonblocking8nextnoteEv+0x42>
			duration = wholenote / tmpNumber;
			else
			duration = wholenote / default_dur;  // we will need to check if we are a dotted noteOffset after
    29d4:	60 91 c2 02 	lds	r22, 0x02C2	; 0x8002c2 <_ZN8anyrtttl11default_durE>
    29d8:	70 e0       	ldi	r23, 0x00	; 0
    29da:	0e 94 07 23 	call	0x460e	; 0x460e <__udivmodhi4>
    29de:	70 93 91 05 	sts	0x0591, r23	; 0x800591 <_ZN8anyrtttl8durationE+0x1>
    29e2:	60 93 90 05 	sts	0x0590, r22	; 0x800590 <_ZN8anyrtttl8durationE>

			// now get the note
			noteOffset = getNoteOffsetFromLetter(*buffer);
    29e6:	80 81       	ld	r24, Z
    29e8:	d5 d0       	rcall	.+426    	; 0x2b94 <_ZN8anyrtttl23getNoteOffsetFromLetterEc>
    29ea:	80 93 8f 05 	sts	0x058F, r24	; 0x80058f <_ZN8anyrtttl10noteOffsetE>
			buffer++;
    29ee:	e0 91 c5 02 	lds	r30, 0x02C5	; 0x8002c5 <_ZN8anyrtttl6bufferE>
    29f2:	f0 91 c6 02 	lds	r31, 0x02C6	; 0x8002c6 <_ZN8anyrtttl6bufferE+0x1>
    29f6:	9f 01       	movw	r18, r30
    29f8:	2f 5f       	subi	r18, 0xFF	; 255
    29fa:	3f 4f       	sbci	r19, 0xFF	; 255
    29fc:	30 93 c6 02 	sts	0x02C6, r19	; 0x8002c6 <_ZN8anyrtttl6bufferE+0x1>
    2a00:	20 93 c5 02 	sts	0x02C5, r18	; 0x8002c5 <_ZN8anyrtttl6bufferE>

			// now, get optional '#' sharp
			if(*buffer == '#')
    2a04:	91 81       	ldd	r25, Z+1	; 0x01
    2a06:	93 32       	cpi	r25, 0x23	; 35
    2a08:	41 f4       	brne	.+16     	; 0x2a1a <_ZN8anyrtttl11nonblocking8nextnoteEv+0x82>
			{
				noteOffset++;
    2a0a:	8f 5f       	subi	r24, 0xFF	; 255
    2a0c:	80 93 8f 05 	sts	0x058F, r24	; 0x80058f <_ZN8anyrtttl10noteOffsetE>
				buffer++;
    2a10:	32 96       	adiw	r30, 0x02	; 2
    2a12:	f0 93 c6 02 	sts	0x02C6, r31	; 0x8002c6 <_ZN8anyrtttl6bufferE+0x1>
    2a16:	e0 93 c5 02 	sts	0x02C5, r30	; 0x8002c5 <_ZN8anyrtttl6bufferE>
			}

			// now, get optional '.' dotted note
			if(*buffer == '.')
    2a1a:	e0 91 c5 02 	lds	r30, 0x02C5	; 0x8002c5 <_ZN8anyrtttl6bufferE>
    2a1e:	f0 91 c6 02 	lds	r31, 0x02C6	; 0x8002c6 <_ZN8anyrtttl6bufferE+0x1>
    2a22:	80 81       	ld	r24, Z
    2a24:	8e 32       	cpi	r24, 0x2E	; 46
    2a26:	91 f4       	brne	.+36     	; 0x2a4c <_ZN8anyrtttl11nonblocking8nextnoteEv+0xb4>
			{
				duration += duration/2;
    2a28:	80 91 90 05 	lds	r24, 0x0590	; 0x800590 <_ZN8anyrtttl8durationE>
    2a2c:	90 91 91 05 	lds	r25, 0x0591	; 0x800591 <_ZN8anyrtttl8durationE+0x1>
    2a30:	9c 01       	movw	r18, r24
    2a32:	36 95       	lsr	r19
    2a34:	27 95       	ror	r18
    2a36:	82 0f       	add	r24, r18
    2a38:	93 1f       	adc	r25, r19
    2a3a:	90 93 91 05 	sts	0x0591, r25	; 0x800591 <_ZN8anyrtttl8durationE+0x1>
    2a3e:	80 93 90 05 	sts	0x0590, r24	; 0x800590 <_ZN8anyrtttl8durationE>
				buffer++;
    2a42:	31 96       	adiw	r30, 0x01	; 1
    2a44:	f0 93 c6 02 	sts	0x02C6, r31	; 0x8002c6 <_ZN8anyrtttl6bufferE+0x1>
    2a48:	e0 93 c5 02 	sts	0x02C5, r30	; 0x8002c5 <_ZN8anyrtttl6bufferE>
			}

			// now, get scale
			if(isdigit(*buffer))
    2a4c:	e0 91 c5 02 	lds	r30, 0x02C5	; 0x8002c5 <_ZN8anyrtttl6bufferE>
    2a50:	f0 91 c6 02 	lds	r31, 0x02C6	; 0x8002c6 <_ZN8anyrtttl6bufferE+0x1>
    2a54:	80 81       	ld	r24, Z
    2a56:	80 53       	subi	r24, 0x30	; 48
    2a58:	8a 30       	cpi	r24, 0x0A	; 10
    2a5a:	40 f4       	brcc	.+16     	; 0x2a6c <_ZN8anyrtttl11nonblocking8nextnoteEv+0xd4>
			{
				scale = *buffer - '0';
    2a5c:	80 93 8e 05 	sts	0x058E, r24	; 0x80058e <_ZN8anyrtttl5scaleE>
				buffer++;
    2a60:	31 96       	adiw	r30, 0x01	; 1
    2a62:	f0 93 c6 02 	sts	0x02C6, r31	; 0x8002c6 <_ZN8anyrtttl6bufferE+0x1>
    2a66:	e0 93 c5 02 	sts	0x02C5, r30	; 0x8002c5 <_ZN8anyrtttl6bufferE>
    2a6a:	04 c0       	rjmp	.+8      	; 0x2a74 <_ZN8anyrtttl11nonblocking8nextnoteEv+0xdc>
			}
			else
			{
				scale = default_oct;
    2a6c:	80 91 c1 02 	lds	r24, 0x02C1	; 0x8002c1 <_ZN8anyrtttl11default_octE>
    2a70:	80 93 8e 05 	sts	0x058E, r24	; 0x80058e <_ZN8anyrtttl5scaleE>
			}

			if(*buffer == ',')
    2a74:	e0 91 c5 02 	lds	r30, 0x02C5	; 0x8002c5 <_ZN8anyrtttl6bufferE>
    2a78:	f0 91 c6 02 	lds	r31, 0x02C6	; 0x8002c6 <_ZN8anyrtttl6bufferE+0x1>
    2a7c:	80 81       	ld	r24, Z
    2a7e:	8c 32       	cpi	r24, 0x2C	; 44
    2a80:	29 f4       	brne	.+10     	; 0x2a8c <_ZN8anyrtttl11nonblocking8nextnoteEv+0xf4>
			buffer++;       // skip comma for next note (or we may be at the end)
    2a82:	31 96       	adiw	r30, 0x01	; 1
    2a84:	f0 93 c6 02 	sts	0x02C6, r31	; 0x8002c6 <_ZN8anyrtttl6bufferE+0x1>
    2a88:	e0 93 c5 02 	sts	0x02C5, r30	; 0x8002c5 <_ZN8anyrtttl6bufferE>

			// now play the note
			if(noteOffset)
    2a8c:	60 91 8f 05 	lds	r22, 0x058F	; 0x80058f <_ZN8anyrtttl10noteOffsetE>
    2a90:	66 23       	and	r22, r22
    2a92:	59 f1       	breq	.+86     	; 0x2aea <_ZN8anyrtttl11nonblocking8nextnoteEv+0x152>
				Serial.print(") ");
				Serial.println(duration, 10);
				#endif
				
				uint16_t frequency = notes[(scale - 4) * NOTES_PER_OCTAVE + noteOffset];
				_tone(pin, frequency, duration);
    2a94:	20 91 90 05 	lds	r18, 0x0590	; 0x800590 <_ZN8anyrtttl8durationE>
    2a98:	30 91 91 05 	lds	r19, 0x0591	; 0x800591 <_ZN8anyrtttl8durationE+0x1>
    2a9c:	40 e0       	ldi	r20, 0x00	; 0
    2a9e:	50 e0       	ldi	r21, 0x00	; 0
				Serial.print(notes[(scale - 4) * NOTES_PER_OCTAVE + noteOffset], 10);
				Serial.print(") ");
				Serial.println(duration, 10);
				#endif
				
				uint16_t frequency = notes[(scale - 4) * NOTES_PER_OCTAVE + noteOffset];
    2aa0:	80 91 8e 05 	lds	r24, 0x058E	; 0x80058e <_ZN8anyrtttl5scaleE>
    2aa4:	90 e0       	ldi	r25, 0x00	; 0
    2aa6:	04 97       	sbiw	r24, 0x04	; 4
    2aa8:	7c e0       	ldi	r23, 0x0C	; 12
    2aaa:	78 9f       	mul	r23, r24
    2aac:	f0 01       	movw	r30, r0
    2aae:	79 9f       	mul	r23, r25
    2ab0:	f0 0d       	add	r31, r0
    2ab2:	11 24       	eor	r1, r1
    2ab4:	e6 0f       	add	r30, r22
    2ab6:	f1 1d       	adc	r31, r1
    2ab8:	ee 0f       	add	r30, r30
    2aba:	ff 1f       	adc	r31, r31
    2abc:	e9 56       	subi	r30, 0x69	; 105
    2abe:	fb 4f       	sbci	r31, 0xFB	; 251
				_tone(pin, frequency, duration);
    2ac0:	60 81       	ld	r22, Z
    2ac2:	71 81       	ldd	r23, Z+1	; 0x01
    2ac4:	e0 91 bc 02 	lds	r30, 0x02BC	; 0x8002bc <_ZN8anyrtttl5_toneE>
    2ac8:	f0 91 bd 02 	lds	r31, 0x02BD	; 0x8002bd <_ZN8anyrtttl5_toneE+0x1>
    2acc:	80 91 be 02 	lds	r24, 0x02BE	; 0x8002be <_ZN8anyrtttl3pinE>
    2ad0:	19 95       	eicall
				
				delayToNextNote = _millis() + (duration+1);
    2ad2:	e0 91 b8 02 	lds	r30, 0x02B8	; 0x8002b8 <_ZN8anyrtttl7_millisE>
    2ad6:	f0 91 b9 02 	lds	r31, 0x02B9	; 0x8002b9 <_ZN8anyrtttl7_millisE+0x1>
    2ada:	19 95       	eicall
    2adc:	20 91 90 05 	lds	r18, 0x0590	; 0x800590 <_ZN8anyrtttl8durationE>
    2ae0:	30 91 91 05 	lds	r19, 0x0591	; 0x800591 <_ZN8anyrtttl8durationE+0x1>
    2ae4:	2f 5f       	subi	r18, 0xFF	; 255
    2ae6:	3f 4f       	sbci	r19, 0xFF	; 255
    2ae8:	09 c0       	rjmp	.+18     	; 0x2afc <_ZN8anyrtttl11nonblocking8nextnoteEv+0x164>
				#ifdef ANY_RTTTL_INFO
				Serial.print("Pausing: ");
				Serial.println(duration, 10);
				#endif
				
				delayToNextNote = _millis() + (duration);
    2aea:	e0 91 b8 02 	lds	r30, 0x02B8	; 0x8002b8 <_ZN8anyrtttl7_millisE>
    2aee:	f0 91 b9 02 	lds	r31, 0x02B9	; 0x8002b9 <_ZN8anyrtttl7_millisE+0x1>
    2af2:	19 95       	eicall
    2af4:	20 91 90 05 	lds	r18, 0x0590	; 0x800590 <_ZN8anyrtttl8durationE>
    2af8:	30 91 91 05 	lds	r19, 0x0591	; 0x800591 <_ZN8anyrtttl8durationE+0x1>
    2afc:	dc 01       	movw	r26, r24
    2afe:	cb 01       	movw	r24, r22
    2b00:	82 0f       	add	r24, r18
    2b02:	93 1f       	adc	r25, r19
    2b04:	a1 1d       	adc	r26, r1
    2b06:	b1 1d       	adc	r27, r1
    2b08:	80 93 93 05 	sts	0x0593, r24	; 0x800593 <_ZN8anyrtttl15delayToNextNoteE>
    2b0c:	90 93 94 05 	sts	0x0594, r25	; 0x800594 <_ZN8anyrtttl15delayToNextNoteE+0x1>
    2b10:	a0 93 95 05 	sts	0x0595, r26	; 0x800595 <_ZN8anyrtttl15delayToNextNoteE+0x2>
    2b14:	b0 93 96 05 	sts	0x0596, r27	; 0x800596 <_ZN8anyrtttl15delayToNextNoteE+0x3>
    2b18:	08 95       	ret

00002b1a <_ZN8anyrtttl11nonblocking4playEv>:
			}
		}

		void play()
		{
    2b1a:	0f 93       	push	r16
    2b1c:	1f 93       	push	r17
			//if done playing the song, return
			if (!playing)
    2b1e:	80 91 92 05 	lds	r24, 0x0592	; 0x800592 <_ZN8anyrtttl7playingE>
    2b22:	88 23       	and	r24, r24
    2b24:	39 f1       	breq	.+78     	; 0x2b74 <_ZN8anyrtttl11nonblocking4playEv+0x5a>
				
				return;
			}
			
			//are we still playing a note ?
			unsigned long m = _millis();
    2b26:	e0 91 b8 02 	lds	r30, 0x02B8	; 0x8002b8 <_ZN8anyrtttl7_millisE>
    2b2a:	f0 91 b9 02 	lds	r31, 0x02B9	; 0x8002b9 <_ZN8anyrtttl7_millisE+0x1>
    2b2e:	19 95       	eicall
			if (m < delayToNextNote)
    2b30:	00 91 93 05 	lds	r16, 0x0593	; 0x800593 <_ZN8anyrtttl15delayToNextNoteE>
    2b34:	10 91 94 05 	lds	r17, 0x0594	; 0x800594 <_ZN8anyrtttl15delayToNextNoteE+0x1>
    2b38:	20 91 95 05 	lds	r18, 0x0595	; 0x800595 <_ZN8anyrtttl15delayToNextNoteE+0x2>
    2b3c:	30 91 96 05 	lds	r19, 0x0596	; 0x800596 <_ZN8anyrtttl15delayToNextNoteE+0x3>
    2b40:	60 17       	cp	r22, r16
    2b42:	71 07       	cpc	r23, r17
    2b44:	82 07       	cpc	r24, r18
    2b46:	93 07       	cpc	r25, r19
    2b48:	a8 f0       	brcs	.+42     	; 0x2b74 <_ZN8anyrtttl11nonblocking4playEv+0x5a>
				//wait until the note is completed
				return;
			}

			//ready to play the next note
			if (*buffer == '\0')
    2b4a:	e0 91 c5 02 	lds	r30, 0x02C5	; 0x8002c5 <_ZN8anyrtttl6bufferE>
    2b4e:	f0 91 c6 02 	lds	r31, 0x02C6	; 0x8002c6 <_ZN8anyrtttl6bufferE+0x1>
    2b52:	80 81       	ld	r24, Z
    2b54:	81 11       	cpse	r24, r1
    2b56:	0b c0       	rjmp	.+22     	; 0x2b6e <_ZN8anyrtttl11nonblocking4playEv+0x54>

				#ifdef ANY_RTTTL_DEBUG
				Serial.println("end of note...");
				#endif
				
				playing = false;
    2b58:	10 92 92 05 	sts	0x0592, r1	; 0x800592 <_ZN8anyrtttl7playingE>

				//stop current note (if any)
				_noTone(pin);
    2b5c:	e0 91 ba 02 	lds	r30, 0x02BA	; 0x8002ba <_ZN8anyrtttl7_noToneE>
    2b60:	f0 91 bb 02 	lds	r31, 0x02BB	; 0x8002bb <_ZN8anyrtttl7_noToneE+0x1>
    2b64:	80 91 be 02 	lds	r24, 0x02BE	; 0x8002be <_ZN8anyrtttl3pinE>
				Serial.println("next note...");
				#endif
				
				nextnote();
			}
		}
    2b68:	1f 91       	pop	r17
    2b6a:	0f 91       	pop	r16
				#endif
				
				playing = false;

				//stop current note (if any)
				_noTone(pin);
    2b6c:	19 94       	eijmp
				Serial.println("next note...");
				#endif
				
				nextnote();
			}
		}
    2b6e:	1f 91       	pop	r17
    2b70:	0f 91       	pop	r16

				#ifdef ANY_RTTTL_DEBUG
				Serial.println("next note...");
				#endif
				
				nextnote();
    2b72:	12 cf       	rjmp	.-476    	; 0x2998 <_ZN8anyrtttl11nonblocking8nextnoteEv>
			}
		}
    2b74:	1f 91       	pop	r17
    2b76:	0f 91       	pop	r16
    2b78:	08 95       	ret

00002b7a <_ZN8anyrtttl19findNoteLetterIndexEc>:
	int getNoteOffsetFromLetterIndex(NOTE_LETTER_INDEX iIndex)
	{
		if (iIndex >= 0 && iIndex < gNoteLettersCount)
		return gNoteOffsets[iIndex];
		return 0;
	}
    2b7a:	e9 e0       	ldi	r30, 0x09	; 9
    2b7c:	f5 e0       	ldi	r31, 0x05	; 5
    2b7e:	90 e0       	ldi	r25, 0x00	; 0
    2b80:	21 91       	ld	r18, Z+
    2b82:	28 17       	cp	r18, r24
    2b84:	29 f0       	breq	.+10     	; 0x2b90 <_ZN8anyrtttl19findNoteLetterIndexEc+0x16>
    2b86:	9f 5f       	subi	r25, 0xFF	; 255
    2b88:	98 30       	cpi	r25, 0x08	; 8
    2b8a:	d1 f7       	brne	.-12     	; 0x2b80 <_ZN8anyrtttl19findNoteLetterIndexEc+0x6>
    2b8c:	8f ef       	ldi	r24, 0xFF	; 255
    2b8e:	08 95       	ret
    2b90:	89 2f       	mov	r24, r25
    2b92:	08 95       	ret

00002b94 <_ZN8anyrtttl23getNoteOffsetFromLetterEc>:

	int getNoteOffsetFromLetter(RTTTL_NOTE_LETTER n)
	{
		NOTE_LETTER_INDEX index = findNoteLetterIndex(n);
    2b94:	f2 df       	rcall	.-28     	; 0x2b7a <_ZN8anyrtttl19findNoteLetterIndexEc>
		return -1;
	}

	int getNoteOffsetFromLetterIndex(NOTE_LETTER_INDEX iIndex)
	{
		if (iIndex >= 0 && iIndex < gNoteLettersCount)
    2b96:	88 30       	cpi	r24, 0x08	; 8
    2b98:	48 f4       	brcc	.+18     	; 0x2bac <_ZN8anyrtttl23getNoteOffsetFromLetterEc+0x18>
		return gNoteOffsets[iIndex];
    2b9a:	e8 2f       	mov	r30, r24
    2b9c:	f0 e0       	ldi	r31, 0x00	; 0
    2b9e:	ee 0f       	add	r30, r30
    2ba0:	ff 1f       	adc	r31, r31
    2ba2:	e7 50       	subi	r30, 0x07	; 7
    2ba4:	fb 4f       	sbci	r31, 0xFB	; 251
    2ba6:	80 81       	ld	r24, Z
    2ba8:	91 81       	ldd	r25, Z+1	; 0x01
    2baa:	08 95       	ret
		return 0;
    2bac:	80 e0       	ldi	r24, 0x00	; 0
    2bae:	90 e0       	ldi	r25, 0x00	; 0

	int getNoteOffsetFromLetter(RTTTL_NOTE_LETTER n)
	{
		NOTE_LETTER_INDEX index = findNoteLetterIndex(n);
		return getNoteOffsetFromLetterIndex(index);
	}
    2bb0:	08 95       	ret

00002bb2 <__subsf3>:
    2bb2:	50 58       	subi	r21, 0x80	; 128

00002bb4 <__addsf3>:
    2bb4:	bb 27       	eor	r27, r27
    2bb6:	aa 27       	eor	r26, r26
    2bb8:	0e d0       	rcall	.+28     	; 0x2bd6 <__addsf3x>
    2bba:	fc c1       	rjmp	.+1016   	; 0x2fb4 <__fp_round>
    2bbc:	ed d1       	rcall	.+986    	; 0x2f98 <__fp_pscA>
    2bbe:	30 f0       	brcs	.+12     	; 0x2bcc <__addsf3+0x18>
    2bc0:	f2 d1       	rcall	.+996    	; 0x2fa6 <__fp_pscB>
    2bc2:	20 f0       	brcs	.+8      	; 0x2bcc <__addsf3+0x18>
    2bc4:	31 f4       	brne	.+12     	; 0x2bd2 <__addsf3+0x1e>
    2bc6:	9f 3f       	cpi	r25, 0xFF	; 255
    2bc8:	11 f4       	brne	.+4      	; 0x2bce <__addsf3+0x1a>
    2bca:	1e f4       	brtc	.+6      	; 0x2bd2 <__addsf3+0x1e>
    2bcc:	bd c1       	rjmp	.+890    	; 0x2f48 <__fp_nan>
    2bce:	0e f4       	brtc	.+2      	; 0x2bd2 <__addsf3+0x1e>
    2bd0:	e0 95       	com	r30
    2bd2:	e7 fb       	bst	r30, 7
    2bd4:	b3 c1       	rjmp	.+870    	; 0x2f3c <__fp_inf>

00002bd6 <__addsf3x>:
    2bd6:	e9 2f       	mov	r30, r25
    2bd8:	fe d1       	rcall	.+1020   	; 0x2fd6 <__fp_split3>
    2bda:	80 f3       	brcs	.-32     	; 0x2bbc <__addsf3+0x8>
    2bdc:	ba 17       	cp	r27, r26
    2bde:	62 07       	cpc	r22, r18
    2be0:	73 07       	cpc	r23, r19
    2be2:	84 07       	cpc	r24, r20
    2be4:	95 07       	cpc	r25, r21
    2be6:	18 f0       	brcs	.+6      	; 0x2bee <__addsf3x+0x18>
    2be8:	71 f4       	brne	.+28     	; 0x2c06 <__addsf3x+0x30>
    2bea:	9e f5       	brtc	.+102    	; 0x2c52 <__addsf3x+0x7c>
    2bec:	16 c2       	rjmp	.+1068   	; 0x301a <__fp_zero>
    2bee:	0e f4       	brtc	.+2      	; 0x2bf2 <__addsf3x+0x1c>
    2bf0:	e0 95       	com	r30
    2bf2:	0b 2e       	mov	r0, r27
    2bf4:	ba 2f       	mov	r27, r26
    2bf6:	a0 2d       	mov	r26, r0
    2bf8:	0b 01       	movw	r0, r22
    2bfa:	b9 01       	movw	r22, r18
    2bfc:	90 01       	movw	r18, r0
    2bfe:	0c 01       	movw	r0, r24
    2c00:	ca 01       	movw	r24, r20
    2c02:	a0 01       	movw	r20, r0
    2c04:	11 24       	eor	r1, r1
    2c06:	ff 27       	eor	r31, r31
    2c08:	59 1b       	sub	r21, r25
    2c0a:	99 f0       	breq	.+38     	; 0x2c32 <__addsf3x+0x5c>
    2c0c:	59 3f       	cpi	r21, 0xF9	; 249
    2c0e:	50 f4       	brcc	.+20     	; 0x2c24 <__addsf3x+0x4e>
    2c10:	50 3e       	cpi	r21, 0xE0	; 224
    2c12:	68 f1       	brcs	.+90     	; 0x2c6e <__addsf3x+0x98>
    2c14:	1a 16       	cp	r1, r26
    2c16:	f0 40       	sbci	r31, 0x00	; 0
    2c18:	a2 2f       	mov	r26, r18
    2c1a:	23 2f       	mov	r18, r19
    2c1c:	34 2f       	mov	r19, r20
    2c1e:	44 27       	eor	r20, r20
    2c20:	58 5f       	subi	r21, 0xF8	; 248
    2c22:	f3 cf       	rjmp	.-26     	; 0x2c0a <__addsf3x+0x34>
    2c24:	46 95       	lsr	r20
    2c26:	37 95       	ror	r19
    2c28:	27 95       	ror	r18
    2c2a:	a7 95       	ror	r26
    2c2c:	f0 40       	sbci	r31, 0x00	; 0
    2c2e:	53 95       	inc	r21
    2c30:	c9 f7       	brne	.-14     	; 0x2c24 <__addsf3x+0x4e>
    2c32:	7e f4       	brtc	.+30     	; 0x2c52 <__addsf3x+0x7c>
    2c34:	1f 16       	cp	r1, r31
    2c36:	ba 0b       	sbc	r27, r26
    2c38:	62 0b       	sbc	r22, r18
    2c3a:	73 0b       	sbc	r23, r19
    2c3c:	84 0b       	sbc	r24, r20
    2c3e:	ba f0       	brmi	.+46     	; 0x2c6e <__addsf3x+0x98>
    2c40:	91 50       	subi	r25, 0x01	; 1
    2c42:	a1 f0       	breq	.+40     	; 0x2c6c <__addsf3x+0x96>
    2c44:	ff 0f       	add	r31, r31
    2c46:	bb 1f       	adc	r27, r27
    2c48:	66 1f       	adc	r22, r22
    2c4a:	77 1f       	adc	r23, r23
    2c4c:	88 1f       	adc	r24, r24
    2c4e:	c2 f7       	brpl	.-16     	; 0x2c40 <__addsf3x+0x6a>
    2c50:	0e c0       	rjmp	.+28     	; 0x2c6e <__addsf3x+0x98>
    2c52:	ba 0f       	add	r27, r26
    2c54:	62 1f       	adc	r22, r18
    2c56:	73 1f       	adc	r23, r19
    2c58:	84 1f       	adc	r24, r20
    2c5a:	48 f4       	brcc	.+18     	; 0x2c6e <__addsf3x+0x98>
    2c5c:	87 95       	ror	r24
    2c5e:	77 95       	ror	r23
    2c60:	67 95       	ror	r22
    2c62:	b7 95       	ror	r27
    2c64:	f7 95       	ror	r31
    2c66:	9e 3f       	cpi	r25, 0xFE	; 254
    2c68:	08 f0       	brcs	.+2      	; 0x2c6c <__addsf3x+0x96>
    2c6a:	b3 cf       	rjmp	.-154    	; 0x2bd2 <__addsf3+0x1e>
    2c6c:	93 95       	inc	r25
    2c6e:	88 0f       	add	r24, r24
    2c70:	08 f0       	brcs	.+2      	; 0x2c74 <__addsf3x+0x9e>
    2c72:	99 27       	eor	r25, r25
    2c74:	ee 0f       	add	r30, r30
    2c76:	97 95       	ror	r25
    2c78:	87 95       	ror	r24
    2c7a:	08 95       	ret
    2c7c:	8d d1       	rcall	.+794    	; 0x2f98 <__fp_pscA>
    2c7e:	58 f0       	brcs	.+22     	; 0x2c96 <__addsf3x+0xc0>
    2c80:	80 e8       	ldi	r24, 0x80	; 128
    2c82:	91 e0       	ldi	r25, 0x01	; 1
    2c84:	09 f4       	brne	.+2      	; 0x2c88 <__addsf3x+0xb2>
    2c86:	9e ef       	ldi	r25, 0xFE	; 254
    2c88:	8e d1       	rcall	.+796    	; 0x2fa6 <__fp_pscB>
    2c8a:	28 f0       	brcs	.+10     	; 0x2c96 <__addsf3x+0xc0>
    2c8c:	40 e8       	ldi	r20, 0x80	; 128
    2c8e:	51 e0       	ldi	r21, 0x01	; 1
    2c90:	59 f4       	brne	.+22     	; 0x2ca8 <atan2+0xe>
    2c92:	5e ef       	ldi	r21, 0xFE	; 254
    2c94:	09 c0       	rjmp	.+18     	; 0x2ca8 <atan2+0xe>
    2c96:	58 c1       	rjmp	.+688    	; 0x2f48 <__fp_nan>
    2c98:	c0 c1       	rjmp	.+896    	; 0x301a <__fp_zero>

00002c9a <atan2>:
    2c9a:	e9 2f       	mov	r30, r25
    2c9c:	e0 78       	andi	r30, 0x80	; 128
    2c9e:	9b d1       	rcall	.+822    	; 0x2fd6 <__fp_split3>
    2ca0:	68 f3       	brcs	.-38     	; 0x2c7c <__addsf3x+0xa6>
    2ca2:	09 2e       	mov	r0, r25
    2ca4:	05 2a       	or	r0, r21
    2ca6:	c1 f3       	breq	.-16     	; 0x2c98 <__addsf3x+0xc2>
    2ca8:	26 17       	cp	r18, r22
    2caa:	37 07       	cpc	r19, r23
    2cac:	48 07       	cpc	r20, r24
    2cae:	59 07       	cpc	r21, r25
    2cb0:	38 f0       	brcs	.+14     	; 0x2cc0 <atan2+0x26>
    2cb2:	0e 2e       	mov	r0, r30
    2cb4:	07 f8       	bld	r0, 7
    2cb6:	e0 25       	eor	r30, r0
    2cb8:	69 f0       	breq	.+26     	; 0x2cd4 <atan2+0x3a>
    2cba:	e0 25       	eor	r30, r0
    2cbc:	e0 64       	ori	r30, 0x40	; 64
    2cbe:	0a c0       	rjmp	.+20     	; 0x2cd4 <atan2+0x3a>
    2cc0:	ef 63       	ori	r30, 0x3F	; 63
    2cc2:	07 f8       	bld	r0, 7
    2cc4:	00 94       	com	r0
    2cc6:	07 fa       	bst	r0, 7
    2cc8:	db 01       	movw	r26, r22
    2cca:	b9 01       	movw	r22, r18
    2ccc:	9d 01       	movw	r18, r26
    2cce:	dc 01       	movw	r26, r24
    2cd0:	ca 01       	movw	r24, r20
    2cd2:	ad 01       	movw	r20, r26
    2cd4:	ef 93       	push	r30
    2cd6:	47 d0       	rcall	.+142    	; 0x2d66 <__divsf3_pse>
    2cd8:	6d d1       	rcall	.+730    	; 0x2fb4 <__fp_round>
    2cda:	0a d0       	rcall	.+20     	; 0x2cf0 <atan>
    2cdc:	5f 91       	pop	r21
    2cde:	55 23       	and	r21, r21
    2ce0:	31 f0       	breq	.+12     	; 0x2cee <atan2+0x54>
    2ce2:	2b ed       	ldi	r18, 0xDB	; 219
    2ce4:	3f e0       	ldi	r19, 0x0F	; 15
    2ce6:	49 e4       	ldi	r20, 0x49	; 73
    2ce8:	50 fd       	sbrc	r21, 0
    2cea:	49 ec       	ldi	r20, 0xC9	; 201
    2cec:	63 cf       	rjmp	.-314    	; 0x2bb4 <__addsf3>
    2cee:	08 95       	ret

00002cf0 <atan>:
    2cf0:	df 93       	push	r29
    2cf2:	dd 27       	eor	r29, r29
    2cf4:	b9 2f       	mov	r27, r25
    2cf6:	bf 77       	andi	r27, 0x7F	; 127
    2cf8:	40 e8       	ldi	r20, 0x80	; 128
    2cfa:	5f e3       	ldi	r21, 0x3F	; 63
    2cfc:	16 16       	cp	r1, r22
    2cfe:	17 06       	cpc	r1, r23
    2d00:	48 07       	cpc	r20, r24
    2d02:	5b 07       	cpc	r21, r27
    2d04:	10 f4       	brcc	.+4      	; 0x2d0a <atan+0x1a>
    2d06:	d9 2f       	mov	r29, r25
    2d08:	93 d1       	rcall	.+806    	; 0x3030 <inverse>
    2d0a:	9f 93       	push	r25
    2d0c:	8f 93       	push	r24
    2d0e:	7f 93       	push	r23
    2d10:	6f 93       	push	r22
    2d12:	f8 d1       	rcall	.+1008   	; 0x3104 <square>
    2d14:	e4 ee       	ldi	r30, 0xE4	; 228
    2d16:	f0 e0       	ldi	r31, 0x00	; 0
    2d18:	1a d1       	rcall	.+564    	; 0x2f4e <__fp_powser>
    2d1a:	4c d1       	rcall	.+664    	; 0x2fb4 <__fp_round>
    2d1c:	2f 91       	pop	r18
    2d1e:	3f 91       	pop	r19
    2d20:	4f 91       	pop	r20
    2d22:	5f 91       	pop	r21
    2d24:	98 d1       	rcall	.+816    	; 0x3056 <__mulsf3x>
    2d26:	dd 23       	and	r29, r29
    2d28:	49 f0       	breq	.+18     	; 0x2d3c <atan+0x4c>
    2d2a:	90 58       	subi	r25, 0x80	; 128
    2d2c:	a2 ea       	ldi	r26, 0xA2	; 162
    2d2e:	2a ed       	ldi	r18, 0xDA	; 218
    2d30:	3f e0       	ldi	r19, 0x0F	; 15
    2d32:	49 ec       	ldi	r20, 0xC9	; 201
    2d34:	5f e3       	ldi	r21, 0x3F	; 63
    2d36:	d0 78       	andi	r29, 0x80	; 128
    2d38:	5d 27       	eor	r21, r29
    2d3a:	4d df       	rcall	.-358    	; 0x2bd6 <__addsf3x>
    2d3c:	df 91       	pop	r29
    2d3e:	3a c1       	rjmp	.+628    	; 0x2fb4 <__fp_round>

00002d40 <__cmpsf2>:
    2d40:	d9 d0       	rcall	.+434    	; 0x2ef4 <__fp_cmp>
    2d42:	08 f4       	brcc	.+2      	; 0x2d46 <__cmpsf2+0x6>
    2d44:	81 e0       	ldi	r24, 0x01	; 1
    2d46:	08 95       	ret

00002d48 <__divsf3>:
    2d48:	0c d0       	rcall	.+24     	; 0x2d62 <__divsf3x>
    2d4a:	34 c1       	rjmp	.+616    	; 0x2fb4 <__fp_round>
    2d4c:	2c d1       	rcall	.+600    	; 0x2fa6 <__fp_pscB>
    2d4e:	40 f0       	brcs	.+16     	; 0x2d60 <__divsf3+0x18>
    2d50:	23 d1       	rcall	.+582    	; 0x2f98 <__fp_pscA>
    2d52:	30 f0       	brcs	.+12     	; 0x2d60 <__divsf3+0x18>
    2d54:	21 f4       	brne	.+8      	; 0x2d5e <__divsf3+0x16>
    2d56:	5f 3f       	cpi	r21, 0xFF	; 255
    2d58:	19 f0       	breq	.+6      	; 0x2d60 <__divsf3+0x18>
    2d5a:	f0 c0       	rjmp	.+480    	; 0x2f3c <__fp_inf>
    2d5c:	51 11       	cpse	r21, r1
    2d5e:	5e c1       	rjmp	.+700    	; 0x301c <__fp_szero>
    2d60:	f3 c0       	rjmp	.+486    	; 0x2f48 <__fp_nan>

00002d62 <__divsf3x>:
    2d62:	39 d1       	rcall	.+626    	; 0x2fd6 <__fp_split3>
    2d64:	98 f3       	brcs	.-26     	; 0x2d4c <__divsf3+0x4>

00002d66 <__divsf3_pse>:
    2d66:	99 23       	and	r25, r25
    2d68:	c9 f3       	breq	.-14     	; 0x2d5c <__divsf3+0x14>
    2d6a:	55 23       	and	r21, r21
    2d6c:	b1 f3       	breq	.-20     	; 0x2d5a <__divsf3+0x12>
    2d6e:	95 1b       	sub	r25, r21
    2d70:	55 0b       	sbc	r21, r21
    2d72:	bb 27       	eor	r27, r27
    2d74:	aa 27       	eor	r26, r26
    2d76:	62 17       	cp	r22, r18
    2d78:	73 07       	cpc	r23, r19
    2d7a:	84 07       	cpc	r24, r20
    2d7c:	38 f0       	brcs	.+14     	; 0x2d8c <__divsf3_pse+0x26>
    2d7e:	9f 5f       	subi	r25, 0xFF	; 255
    2d80:	5f 4f       	sbci	r21, 0xFF	; 255
    2d82:	22 0f       	add	r18, r18
    2d84:	33 1f       	adc	r19, r19
    2d86:	44 1f       	adc	r20, r20
    2d88:	aa 1f       	adc	r26, r26
    2d8a:	a9 f3       	breq	.-22     	; 0x2d76 <__divsf3_pse+0x10>
    2d8c:	33 d0       	rcall	.+102    	; 0x2df4 <__divsf3_pse+0x8e>
    2d8e:	0e 2e       	mov	r0, r30
    2d90:	3a f0       	brmi	.+14     	; 0x2da0 <__divsf3_pse+0x3a>
    2d92:	e0 e8       	ldi	r30, 0x80	; 128
    2d94:	30 d0       	rcall	.+96     	; 0x2df6 <__divsf3_pse+0x90>
    2d96:	91 50       	subi	r25, 0x01	; 1
    2d98:	50 40       	sbci	r21, 0x00	; 0
    2d9a:	e6 95       	lsr	r30
    2d9c:	00 1c       	adc	r0, r0
    2d9e:	ca f7       	brpl	.-14     	; 0x2d92 <__divsf3_pse+0x2c>
    2da0:	29 d0       	rcall	.+82     	; 0x2df4 <__divsf3_pse+0x8e>
    2da2:	fe 2f       	mov	r31, r30
    2da4:	27 d0       	rcall	.+78     	; 0x2df4 <__divsf3_pse+0x8e>
    2da6:	66 0f       	add	r22, r22
    2da8:	77 1f       	adc	r23, r23
    2daa:	88 1f       	adc	r24, r24
    2dac:	bb 1f       	adc	r27, r27
    2dae:	26 17       	cp	r18, r22
    2db0:	37 07       	cpc	r19, r23
    2db2:	48 07       	cpc	r20, r24
    2db4:	ab 07       	cpc	r26, r27
    2db6:	b0 e8       	ldi	r27, 0x80	; 128
    2db8:	09 f0       	breq	.+2      	; 0x2dbc <__divsf3_pse+0x56>
    2dba:	bb 0b       	sbc	r27, r27
    2dbc:	80 2d       	mov	r24, r0
    2dbe:	bf 01       	movw	r22, r30
    2dc0:	ff 27       	eor	r31, r31
    2dc2:	93 58       	subi	r25, 0x83	; 131
    2dc4:	5f 4f       	sbci	r21, 0xFF	; 255
    2dc6:	2a f0       	brmi	.+10     	; 0x2dd2 <__divsf3_pse+0x6c>
    2dc8:	9e 3f       	cpi	r25, 0xFE	; 254
    2dca:	51 05       	cpc	r21, r1
    2dcc:	68 f0       	brcs	.+26     	; 0x2de8 <__divsf3_pse+0x82>
    2dce:	b6 c0       	rjmp	.+364    	; 0x2f3c <__fp_inf>
    2dd0:	25 c1       	rjmp	.+586    	; 0x301c <__fp_szero>
    2dd2:	5f 3f       	cpi	r21, 0xFF	; 255
    2dd4:	ec f3       	brlt	.-6      	; 0x2dd0 <__divsf3_pse+0x6a>
    2dd6:	98 3e       	cpi	r25, 0xE8	; 232
    2dd8:	dc f3       	brlt	.-10     	; 0x2dd0 <__divsf3_pse+0x6a>
    2dda:	86 95       	lsr	r24
    2ddc:	77 95       	ror	r23
    2dde:	67 95       	ror	r22
    2de0:	b7 95       	ror	r27
    2de2:	f7 95       	ror	r31
    2de4:	9f 5f       	subi	r25, 0xFF	; 255
    2de6:	c9 f7       	brne	.-14     	; 0x2dda <__divsf3_pse+0x74>
    2de8:	88 0f       	add	r24, r24
    2dea:	91 1d       	adc	r25, r1
    2dec:	96 95       	lsr	r25
    2dee:	87 95       	ror	r24
    2df0:	97 f9       	bld	r25, 7
    2df2:	08 95       	ret
    2df4:	e1 e0       	ldi	r30, 0x01	; 1
    2df6:	66 0f       	add	r22, r22
    2df8:	77 1f       	adc	r23, r23
    2dfa:	88 1f       	adc	r24, r24
    2dfc:	bb 1f       	adc	r27, r27
    2dfe:	62 17       	cp	r22, r18
    2e00:	73 07       	cpc	r23, r19
    2e02:	84 07       	cpc	r24, r20
    2e04:	ba 07       	cpc	r27, r26
    2e06:	20 f0       	brcs	.+8      	; 0x2e10 <__divsf3_pse+0xaa>
    2e08:	62 1b       	sub	r22, r18
    2e0a:	73 0b       	sbc	r23, r19
    2e0c:	84 0b       	sbc	r24, r20
    2e0e:	ba 0b       	sbc	r27, r26
    2e10:	ee 1f       	adc	r30, r30
    2e12:	88 f7       	brcc	.-30     	; 0x2df6 <__divsf3_pse+0x90>
    2e14:	e0 95       	com	r30
    2e16:	08 95       	ret

00002e18 <__fixsfsi>:
    2e18:	04 d0       	rcall	.+8      	; 0x2e22 <__fixunssfsi>
    2e1a:	68 94       	set
    2e1c:	b1 11       	cpse	r27, r1
    2e1e:	fe c0       	rjmp	.+508    	; 0x301c <__fp_szero>
    2e20:	08 95       	ret

00002e22 <__fixunssfsi>:
    2e22:	e1 d0       	rcall	.+450    	; 0x2fe6 <__fp_splitA>
    2e24:	88 f0       	brcs	.+34     	; 0x2e48 <__fixunssfsi+0x26>
    2e26:	9f 57       	subi	r25, 0x7F	; 127
    2e28:	90 f0       	brcs	.+36     	; 0x2e4e <__fixunssfsi+0x2c>
    2e2a:	b9 2f       	mov	r27, r25
    2e2c:	99 27       	eor	r25, r25
    2e2e:	b7 51       	subi	r27, 0x17	; 23
    2e30:	a0 f0       	brcs	.+40     	; 0x2e5a <__fixunssfsi+0x38>
    2e32:	d1 f0       	breq	.+52     	; 0x2e68 <__fixunssfsi+0x46>
    2e34:	66 0f       	add	r22, r22
    2e36:	77 1f       	adc	r23, r23
    2e38:	88 1f       	adc	r24, r24
    2e3a:	99 1f       	adc	r25, r25
    2e3c:	1a f0       	brmi	.+6      	; 0x2e44 <__fixunssfsi+0x22>
    2e3e:	ba 95       	dec	r27
    2e40:	c9 f7       	brne	.-14     	; 0x2e34 <__fixunssfsi+0x12>
    2e42:	12 c0       	rjmp	.+36     	; 0x2e68 <__fixunssfsi+0x46>
    2e44:	b1 30       	cpi	r27, 0x01	; 1
    2e46:	81 f0       	breq	.+32     	; 0x2e68 <__fixunssfsi+0x46>
    2e48:	e8 d0       	rcall	.+464    	; 0x301a <__fp_zero>
    2e4a:	b1 e0       	ldi	r27, 0x01	; 1
    2e4c:	08 95       	ret
    2e4e:	e5 c0       	rjmp	.+458    	; 0x301a <__fp_zero>
    2e50:	67 2f       	mov	r22, r23
    2e52:	78 2f       	mov	r23, r24
    2e54:	88 27       	eor	r24, r24
    2e56:	b8 5f       	subi	r27, 0xF8	; 248
    2e58:	39 f0       	breq	.+14     	; 0x2e68 <__fixunssfsi+0x46>
    2e5a:	b9 3f       	cpi	r27, 0xF9	; 249
    2e5c:	cc f3       	brlt	.-14     	; 0x2e50 <__fixunssfsi+0x2e>
    2e5e:	86 95       	lsr	r24
    2e60:	77 95       	ror	r23
    2e62:	67 95       	ror	r22
    2e64:	b3 95       	inc	r27
    2e66:	d9 f7       	brne	.-10     	; 0x2e5e <__fixunssfsi+0x3c>
    2e68:	3e f4       	brtc	.+14     	; 0x2e78 <__fixunssfsi+0x56>
    2e6a:	90 95       	com	r25
    2e6c:	80 95       	com	r24
    2e6e:	70 95       	com	r23
    2e70:	61 95       	neg	r22
    2e72:	7f 4f       	sbci	r23, 0xFF	; 255
    2e74:	8f 4f       	sbci	r24, 0xFF	; 255
    2e76:	9f 4f       	sbci	r25, 0xFF	; 255
    2e78:	08 95       	ret

00002e7a <__floatunsisf>:
    2e7a:	e8 94       	clt
    2e7c:	09 c0       	rjmp	.+18     	; 0x2e90 <__floatsisf+0x12>

00002e7e <__floatsisf>:
    2e7e:	97 fb       	bst	r25, 7
    2e80:	3e f4       	brtc	.+14     	; 0x2e90 <__floatsisf+0x12>
    2e82:	90 95       	com	r25
    2e84:	80 95       	com	r24
    2e86:	70 95       	com	r23
    2e88:	61 95       	neg	r22
    2e8a:	7f 4f       	sbci	r23, 0xFF	; 255
    2e8c:	8f 4f       	sbci	r24, 0xFF	; 255
    2e8e:	9f 4f       	sbci	r25, 0xFF	; 255
    2e90:	99 23       	and	r25, r25
    2e92:	a9 f0       	breq	.+42     	; 0x2ebe <__floatsisf+0x40>
    2e94:	f9 2f       	mov	r31, r25
    2e96:	96 e9       	ldi	r25, 0x96	; 150
    2e98:	bb 27       	eor	r27, r27
    2e9a:	93 95       	inc	r25
    2e9c:	f6 95       	lsr	r31
    2e9e:	87 95       	ror	r24
    2ea0:	77 95       	ror	r23
    2ea2:	67 95       	ror	r22
    2ea4:	b7 95       	ror	r27
    2ea6:	f1 11       	cpse	r31, r1
    2ea8:	f8 cf       	rjmp	.-16     	; 0x2e9a <__floatsisf+0x1c>
    2eaa:	fa f4       	brpl	.+62     	; 0x2eea <__floatsisf+0x6c>
    2eac:	bb 0f       	add	r27, r27
    2eae:	11 f4       	brne	.+4      	; 0x2eb4 <__floatsisf+0x36>
    2eb0:	60 ff       	sbrs	r22, 0
    2eb2:	1b c0       	rjmp	.+54     	; 0x2eea <__floatsisf+0x6c>
    2eb4:	6f 5f       	subi	r22, 0xFF	; 255
    2eb6:	7f 4f       	sbci	r23, 0xFF	; 255
    2eb8:	8f 4f       	sbci	r24, 0xFF	; 255
    2eba:	9f 4f       	sbci	r25, 0xFF	; 255
    2ebc:	16 c0       	rjmp	.+44     	; 0x2eea <__floatsisf+0x6c>
    2ebe:	88 23       	and	r24, r24
    2ec0:	11 f0       	breq	.+4      	; 0x2ec6 <__floatsisf+0x48>
    2ec2:	96 e9       	ldi	r25, 0x96	; 150
    2ec4:	11 c0       	rjmp	.+34     	; 0x2ee8 <__floatsisf+0x6a>
    2ec6:	77 23       	and	r23, r23
    2ec8:	21 f0       	breq	.+8      	; 0x2ed2 <__floatsisf+0x54>
    2eca:	9e e8       	ldi	r25, 0x8E	; 142
    2ecc:	87 2f       	mov	r24, r23
    2ece:	76 2f       	mov	r23, r22
    2ed0:	05 c0       	rjmp	.+10     	; 0x2edc <__floatsisf+0x5e>
    2ed2:	66 23       	and	r22, r22
    2ed4:	71 f0       	breq	.+28     	; 0x2ef2 <__floatsisf+0x74>
    2ed6:	96 e8       	ldi	r25, 0x86	; 134
    2ed8:	86 2f       	mov	r24, r22
    2eda:	70 e0       	ldi	r23, 0x00	; 0
    2edc:	60 e0       	ldi	r22, 0x00	; 0
    2ede:	2a f0       	brmi	.+10     	; 0x2eea <__floatsisf+0x6c>
    2ee0:	9a 95       	dec	r25
    2ee2:	66 0f       	add	r22, r22
    2ee4:	77 1f       	adc	r23, r23
    2ee6:	88 1f       	adc	r24, r24
    2ee8:	da f7       	brpl	.-10     	; 0x2ee0 <__floatsisf+0x62>
    2eea:	88 0f       	add	r24, r24
    2eec:	96 95       	lsr	r25
    2eee:	87 95       	ror	r24
    2ef0:	97 f9       	bld	r25, 7
    2ef2:	08 95       	ret

00002ef4 <__fp_cmp>:
    2ef4:	99 0f       	add	r25, r25
    2ef6:	00 08       	sbc	r0, r0
    2ef8:	55 0f       	add	r21, r21
    2efa:	aa 0b       	sbc	r26, r26
    2efc:	e0 e8       	ldi	r30, 0x80	; 128
    2efe:	fe ef       	ldi	r31, 0xFE	; 254
    2f00:	16 16       	cp	r1, r22
    2f02:	17 06       	cpc	r1, r23
    2f04:	e8 07       	cpc	r30, r24
    2f06:	f9 07       	cpc	r31, r25
    2f08:	c0 f0       	brcs	.+48     	; 0x2f3a <__fp_cmp+0x46>
    2f0a:	12 16       	cp	r1, r18
    2f0c:	13 06       	cpc	r1, r19
    2f0e:	e4 07       	cpc	r30, r20
    2f10:	f5 07       	cpc	r31, r21
    2f12:	98 f0       	brcs	.+38     	; 0x2f3a <__fp_cmp+0x46>
    2f14:	62 1b       	sub	r22, r18
    2f16:	73 0b       	sbc	r23, r19
    2f18:	84 0b       	sbc	r24, r20
    2f1a:	95 0b       	sbc	r25, r21
    2f1c:	39 f4       	brne	.+14     	; 0x2f2c <__fp_cmp+0x38>
    2f1e:	0a 26       	eor	r0, r26
    2f20:	61 f0       	breq	.+24     	; 0x2f3a <__fp_cmp+0x46>
    2f22:	23 2b       	or	r18, r19
    2f24:	24 2b       	or	r18, r20
    2f26:	25 2b       	or	r18, r21
    2f28:	21 f4       	brne	.+8      	; 0x2f32 <__fp_cmp+0x3e>
    2f2a:	08 95       	ret
    2f2c:	0a 26       	eor	r0, r26
    2f2e:	09 f4       	brne	.+2      	; 0x2f32 <__fp_cmp+0x3e>
    2f30:	a1 40       	sbci	r26, 0x01	; 1
    2f32:	a6 95       	lsr	r26
    2f34:	8f ef       	ldi	r24, 0xFF	; 255
    2f36:	81 1d       	adc	r24, r1
    2f38:	81 1d       	adc	r24, r1
    2f3a:	08 95       	ret

00002f3c <__fp_inf>:
    2f3c:	97 f9       	bld	r25, 7
    2f3e:	9f 67       	ori	r25, 0x7F	; 127
    2f40:	80 e8       	ldi	r24, 0x80	; 128
    2f42:	70 e0       	ldi	r23, 0x00	; 0
    2f44:	60 e0       	ldi	r22, 0x00	; 0
    2f46:	08 95       	ret

00002f48 <__fp_nan>:
    2f48:	9f ef       	ldi	r25, 0xFF	; 255
    2f4a:	80 ec       	ldi	r24, 0xC0	; 192
    2f4c:	08 95       	ret

00002f4e <__fp_powser>:
    2f4e:	df 93       	push	r29
    2f50:	cf 93       	push	r28
    2f52:	1f 93       	push	r17
    2f54:	0f 93       	push	r16
    2f56:	ff 92       	push	r15
    2f58:	ef 92       	push	r14
    2f5a:	df 92       	push	r13
    2f5c:	7b 01       	movw	r14, r22
    2f5e:	8c 01       	movw	r16, r24
    2f60:	68 94       	set
    2f62:	05 c0       	rjmp	.+10     	; 0x2f6e <__fp_powser+0x20>
    2f64:	da 2e       	mov	r13, r26
    2f66:	ef 01       	movw	r28, r30
    2f68:	76 d0       	rcall	.+236    	; 0x3056 <__mulsf3x>
    2f6a:	fe 01       	movw	r30, r28
    2f6c:	e8 94       	clt
    2f6e:	a5 91       	lpm	r26, Z+
    2f70:	25 91       	lpm	r18, Z+
    2f72:	35 91       	lpm	r19, Z+
    2f74:	45 91       	lpm	r20, Z+
    2f76:	55 91       	lpm	r21, Z+
    2f78:	ae f3       	brts	.-22     	; 0x2f64 <__fp_powser+0x16>
    2f7a:	ef 01       	movw	r28, r30
    2f7c:	2c de       	rcall	.-936    	; 0x2bd6 <__addsf3x>
    2f7e:	fe 01       	movw	r30, r28
    2f80:	97 01       	movw	r18, r14
    2f82:	a8 01       	movw	r20, r16
    2f84:	da 94       	dec	r13
    2f86:	79 f7       	brne	.-34     	; 0x2f66 <__fp_powser+0x18>
    2f88:	df 90       	pop	r13
    2f8a:	ef 90       	pop	r14
    2f8c:	ff 90       	pop	r15
    2f8e:	0f 91       	pop	r16
    2f90:	1f 91       	pop	r17
    2f92:	cf 91       	pop	r28
    2f94:	df 91       	pop	r29
    2f96:	08 95       	ret

00002f98 <__fp_pscA>:
    2f98:	00 24       	eor	r0, r0
    2f9a:	0a 94       	dec	r0
    2f9c:	16 16       	cp	r1, r22
    2f9e:	17 06       	cpc	r1, r23
    2fa0:	18 06       	cpc	r1, r24
    2fa2:	09 06       	cpc	r0, r25
    2fa4:	08 95       	ret

00002fa6 <__fp_pscB>:
    2fa6:	00 24       	eor	r0, r0
    2fa8:	0a 94       	dec	r0
    2faa:	12 16       	cp	r1, r18
    2fac:	13 06       	cpc	r1, r19
    2fae:	14 06       	cpc	r1, r20
    2fb0:	05 06       	cpc	r0, r21
    2fb2:	08 95       	ret

00002fb4 <__fp_round>:
    2fb4:	09 2e       	mov	r0, r25
    2fb6:	03 94       	inc	r0
    2fb8:	00 0c       	add	r0, r0
    2fba:	11 f4       	brne	.+4      	; 0x2fc0 <__fp_round+0xc>
    2fbc:	88 23       	and	r24, r24
    2fbe:	52 f0       	brmi	.+20     	; 0x2fd4 <__fp_round+0x20>
    2fc0:	bb 0f       	add	r27, r27
    2fc2:	40 f4       	brcc	.+16     	; 0x2fd4 <__fp_round+0x20>
    2fc4:	bf 2b       	or	r27, r31
    2fc6:	11 f4       	brne	.+4      	; 0x2fcc <__fp_round+0x18>
    2fc8:	60 ff       	sbrs	r22, 0
    2fca:	04 c0       	rjmp	.+8      	; 0x2fd4 <__fp_round+0x20>
    2fcc:	6f 5f       	subi	r22, 0xFF	; 255
    2fce:	7f 4f       	sbci	r23, 0xFF	; 255
    2fd0:	8f 4f       	sbci	r24, 0xFF	; 255
    2fd2:	9f 4f       	sbci	r25, 0xFF	; 255
    2fd4:	08 95       	ret

00002fd6 <__fp_split3>:
    2fd6:	57 fd       	sbrc	r21, 7
    2fd8:	90 58       	subi	r25, 0x80	; 128
    2fda:	44 0f       	add	r20, r20
    2fdc:	55 1f       	adc	r21, r21
    2fde:	59 f0       	breq	.+22     	; 0x2ff6 <__fp_splitA+0x10>
    2fe0:	5f 3f       	cpi	r21, 0xFF	; 255
    2fe2:	71 f0       	breq	.+28     	; 0x3000 <__fp_splitA+0x1a>
    2fe4:	47 95       	ror	r20

00002fe6 <__fp_splitA>:
    2fe6:	88 0f       	add	r24, r24
    2fe8:	97 fb       	bst	r25, 7
    2fea:	99 1f       	adc	r25, r25
    2fec:	61 f0       	breq	.+24     	; 0x3006 <__fp_splitA+0x20>
    2fee:	9f 3f       	cpi	r25, 0xFF	; 255
    2ff0:	79 f0       	breq	.+30     	; 0x3010 <__fp_splitA+0x2a>
    2ff2:	87 95       	ror	r24
    2ff4:	08 95       	ret
    2ff6:	12 16       	cp	r1, r18
    2ff8:	13 06       	cpc	r1, r19
    2ffa:	14 06       	cpc	r1, r20
    2ffc:	55 1f       	adc	r21, r21
    2ffe:	f2 cf       	rjmp	.-28     	; 0x2fe4 <__fp_split3+0xe>
    3000:	46 95       	lsr	r20
    3002:	f1 df       	rcall	.-30     	; 0x2fe6 <__fp_splitA>
    3004:	08 c0       	rjmp	.+16     	; 0x3016 <__fp_splitA+0x30>
    3006:	16 16       	cp	r1, r22
    3008:	17 06       	cpc	r1, r23
    300a:	18 06       	cpc	r1, r24
    300c:	99 1f       	adc	r25, r25
    300e:	f1 cf       	rjmp	.-30     	; 0x2ff2 <__fp_splitA+0xc>
    3010:	86 95       	lsr	r24
    3012:	71 05       	cpc	r23, r1
    3014:	61 05       	cpc	r22, r1
    3016:	08 94       	sec
    3018:	08 95       	ret

0000301a <__fp_zero>:
    301a:	e8 94       	clt

0000301c <__fp_szero>:
    301c:	bb 27       	eor	r27, r27
    301e:	66 27       	eor	r22, r22
    3020:	77 27       	eor	r23, r23
    3022:	cb 01       	movw	r24, r22
    3024:	97 f9       	bld	r25, 7
    3026:	08 95       	ret

00003028 <__gesf2>:
    3028:	65 df       	rcall	.-310    	; 0x2ef4 <__fp_cmp>
    302a:	08 f4       	brcc	.+2      	; 0x302e <__gesf2+0x6>
    302c:	8f ef       	ldi	r24, 0xFF	; 255
    302e:	08 95       	ret

00003030 <inverse>:
    3030:	9b 01       	movw	r18, r22
    3032:	ac 01       	movw	r20, r24
    3034:	60 e0       	ldi	r22, 0x00	; 0
    3036:	70 e0       	ldi	r23, 0x00	; 0
    3038:	80 e8       	ldi	r24, 0x80	; 128
    303a:	9f e3       	ldi	r25, 0x3F	; 63
    303c:	85 ce       	rjmp	.-758    	; 0x2d48 <__divsf3>

0000303e <__mulsf3>:
    303e:	0b d0       	rcall	.+22     	; 0x3056 <__mulsf3x>
    3040:	b9 cf       	rjmp	.-142    	; 0x2fb4 <__fp_round>
    3042:	aa df       	rcall	.-172    	; 0x2f98 <__fp_pscA>
    3044:	28 f0       	brcs	.+10     	; 0x3050 <__mulsf3+0x12>
    3046:	af df       	rcall	.-162    	; 0x2fa6 <__fp_pscB>
    3048:	18 f0       	brcs	.+6      	; 0x3050 <__mulsf3+0x12>
    304a:	95 23       	and	r25, r21
    304c:	09 f0       	breq	.+2      	; 0x3050 <__mulsf3+0x12>
    304e:	76 cf       	rjmp	.-276    	; 0x2f3c <__fp_inf>
    3050:	7b cf       	rjmp	.-266    	; 0x2f48 <__fp_nan>
    3052:	11 24       	eor	r1, r1
    3054:	e3 cf       	rjmp	.-58     	; 0x301c <__fp_szero>

00003056 <__mulsf3x>:
    3056:	bf df       	rcall	.-130    	; 0x2fd6 <__fp_split3>
    3058:	a0 f3       	brcs	.-24     	; 0x3042 <__mulsf3+0x4>

0000305a <__mulsf3_pse>:
    305a:	95 9f       	mul	r25, r21
    305c:	d1 f3       	breq	.-12     	; 0x3052 <__mulsf3+0x14>
    305e:	95 0f       	add	r25, r21
    3060:	50 e0       	ldi	r21, 0x00	; 0
    3062:	55 1f       	adc	r21, r21
    3064:	62 9f       	mul	r22, r18
    3066:	f0 01       	movw	r30, r0
    3068:	72 9f       	mul	r23, r18
    306a:	bb 27       	eor	r27, r27
    306c:	f0 0d       	add	r31, r0
    306e:	b1 1d       	adc	r27, r1
    3070:	63 9f       	mul	r22, r19
    3072:	aa 27       	eor	r26, r26
    3074:	f0 0d       	add	r31, r0
    3076:	b1 1d       	adc	r27, r1
    3078:	aa 1f       	adc	r26, r26
    307a:	64 9f       	mul	r22, r20
    307c:	66 27       	eor	r22, r22
    307e:	b0 0d       	add	r27, r0
    3080:	a1 1d       	adc	r26, r1
    3082:	66 1f       	adc	r22, r22
    3084:	82 9f       	mul	r24, r18
    3086:	22 27       	eor	r18, r18
    3088:	b0 0d       	add	r27, r0
    308a:	a1 1d       	adc	r26, r1
    308c:	62 1f       	adc	r22, r18
    308e:	73 9f       	mul	r23, r19
    3090:	b0 0d       	add	r27, r0
    3092:	a1 1d       	adc	r26, r1
    3094:	62 1f       	adc	r22, r18
    3096:	83 9f       	mul	r24, r19
    3098:	a0 0d       	add	r26, r0
    309a:	61 1d       	adc	r22, r1
    309c:	22 1f       	adc	r18, r18
    309e:	74 9f       	mul	r23, r20
    30a0:	33 27       	eor	r19, r19
    30a2:	a0 0d       	add	r26, r0
    30a4:	61 1d       	adc	r22, r1
    30a6:	23 1f       	adc	r18, r19
    30a8:	84 9f       	mul	r24, r20
    30aa:	60 0d       	add	r22, r0
    30ac:	21 1d       	adc	r18, r1
    30ae:	82 2f       	mov	r24, r18
    30b0:	76 2f       	mov	r23, r22
    30b2:	6a 2f       	mov	r22, r26
    30b4:	11 24       	eor	r1, r1
    30b6:	9f 57       	subi	r25, 0x7F	; 127
    30b8:	50 40       	sbci	r21, 0x00	; 0
    30ba:	8a f0       	brmi	.+34     	; 0x30de <__mulsf3_pse+0x84>
    30bc:	e1 f0       	breq	.+56     	; 0x30f6 <__mulsf3_pse+0x9c>
    30be:	88 23       	and	r24, r24
    30c0:	4a f0       	brmi	.+18     	; 0x30d4 <__mulsf3_pse+0x7a>
    30c2:	ee 0f       	add	r30, r30
    30c4:	ff 1f       	adc	r31, r31
    30c6:	bb 1f       	adc	r27, r27
    30c8:	66 1f       	adc	r22, r22
    30ca:	77 1f       	adc	r23, r23
    30cc:	88 1f       	adc	r24, r24
    30ce:	91 50       	subi	r25, 0x01	; 1
    30d0:	50 40       	sbci	r21, 0x00	; 0
    30d2:	a9 f7       	brne	.-22     	; 0x30be <__mulsf3_pse+0x64>
    30d4:	9e 3f       	cpi	r25, 0xFE	; 254
    30d6:	51 05       	cpc	r21, r1
    30d8:	70 f0       	brcs	.+28     	; 0x30f6 <__mulsf3_pse+0x9c>
    30da:	30 cf       	rjmp	.-416    	; 0x2f3c <__fp_inf>
    30dc:	9f cf       	rjmp	.-194    	; 0x301c <__fp_szero>
    30de:	5f 3f       	cpi	r21, 0xFF	; 255
    30e0:	ec f3       	brlt	.-6      	; 0x30dc <__mulsf3_pse+0x82>
    30e2:	98 3e       	cpi	r25, 0xE8	; 232
    30e4:	dc f3       	brlt	.-10     	; 0x30dc <__mulsf3_pse+0x82>
    30e6:	86 95       	lsr	r24
    30e8:	77 95       	ror	r23
    30ea:	67 95       	ror	r22
    30ec:	b7 95       	ror	r27
    30ee:	f7 95       	ror	r31
    30f0:	e7 95       	ror	r30
    30f2:	9f 5f       	subi	r25, 0xFF	; 255
    30f4:	c1 f7       	brne	.-16     	; 0x30e6 <__mulsf3_pse+0x8c>
    30f6:	fe 2b       	or	r31, r30
    30f8:	88 0f       	add	r24, r24
    30fa:	91 1d       	adc	r25, r1
    30fc:	96 95       	lsr	r25
    30fe:	87 95       	ror	r24
    3100:	97 f9       	bld	r25, 7
    3102:	08 95       	ret

00003104 <square>:
    3104:	9b 01       	movw	r18, r22
    3106:	ac 01       	movw	r20, r24
    3108:	9a cf       	rjmp	.-204    	; 0x303e <__mulsf3>

0000310a <_ZN14HardwareSerial9availableEv>:
  // clear any received data
  _rx_buffer_head = _rx_buffer_tail;
}

int HardwareSerial::available(void)
{
    310a:	fc 01       	movw	r30, r24
  return ((unsigned int)(SERIAL_RX_BUFFER_SIZE + _rx_buffer_head - _rx_buffer_tail)) % SERIAL_RX_BUFFER_SIZE;
    310c:	91 8d       	ldd	r25, Z+25	; 0x19
    310e:	22 8d       	ldd	r18, Z+26	; 0x1a
    3110:	89 2f       	mov	r24, r25
    3112:	90 e0       	ldi	r25, 0x00	; 0
    3114:	80 5c       	subi	r24, 0xC0	; 192
    3116:	9f 4f       	sbci	r25, 0xFF	; 255
    3118:	82 1b       	sub	r24, r18
    311a:	91 09       	sbc	r25, r1
}
    311c:	8f 73       	andi	r24, 0x3F	; 63
    311e:	99 27       	eor	r25, r25
    3120:	08 95       	ret

00003122 <_ZN14HardwareSerial4peekEv>:

int HardwareSerial::peek(void)
{
    3122:	fc 01       	movw	r30, r24
  if (_rx_buffer_head == _rx_buffer_tail) {
    3124:	91 8d       	ldd	r25, Z+25	; 0x19
    3126:	82 8d       	ldd	r24, Z+26	; 0x1a
    3128:	98 17       	cp	r25, r24
    312a:	31 f0       	breq	.+12     	; 0x3138 <_ZN14HardwareSerial4peekEv+0x16>
    return -1;
  } else {
    return _rx_buffer[_rx_buffer_tail];
    312c:	82 8d       	ldd	r24, Z+26	; 0x1a
    312e:	e8 0f       	add	r30, r24
    3130:	f1 1d       	adc	r31, r1
    3132:	85 8d       	ldd	r24, Z+29	; 0x1d
    3134:	90 e0       	ldi	r25, 0x00	; 0
    3136:	08 95       	ret
}

int HardwareSerial::peek(void)
{
  if (_rx_buffer_head == _rx_buffer_tail) {
    return -1;
    3138:	8f ef       	ldi	r24, 0xFF	; 255
    313a:	9f ef       	ldi	r25, 0xFF	; 255
  } else {
    return _rx_buffer[_rx_buffer_tail];
  }
}
    313c:	08 95       	ret

0000313e <_ZN14HardwareSerial4readEv>:

int HardwareSerial::read(void)
{
    313e:	fc 01       	movw	r30, r24
  // if the head isn't ahead of the tail, we don't have any characters
  if (_rx_buffer_head == _rx_buffer_tail) {
    3140:	91 8d       	ldd	r25, Z+25	; 0x19
    3142:	82 8d       	ldd	r24, Z+26	; 0x1a
    3144:	98 17       	cp	r25, r24
    3146:	61 f0       	breq	.+24     	; 0x3160 <_ZN14HardwareSerial4readEv+0x22>
    return -1;
  } else {
    unsigned char c = _rx_buffer[_rx_buffer_tail];
    3148:	82 8d       	ldd	r24, Z+26	; 0x1a
    314a:	df 01       	movw	r26, r30
    314c:	a8 0f       	add	r26, r24
    314e:	b1 1d       	adc	r27, r1
    3150:	5d 96       	adiw	r26, 0x1d	; 29
    3152:	8c 91       	ld	r24, X
    _rx_buffer_tail = (rx_buffer_index_t)(_rx_buffer_tail + 1) % SERIAL_RX_BUFFER_SIZE;
    3154:	92 8d       	ldd	r25, Z+26	; 0x1a
    3156:	9f 5f       	subi	r25, 0xFF	; 255
    3158:	9f 73       	andi	r25, 0x3F	; 63
    315a:	92 8f       	std	Z+26, r25	; 0x1a
    return c;
    315c:	90 e0       	ldi	r25, 0x00	; 0
    315e:	08 95       	ret

int HardwareSerial::read(void)
{
  // if the head isn't ahead of the tail, we don't have any characters
  if (_rx_buffer_head == _rx_buffer_tail) {
    return -1;
    3160:	8f ef       	ldi	r24, 0xFF	; 255
    3162:	9f ef       	ldi	r25, 0xFF	; 255
  } else {
    unsigned char c = _rx_buffer[_rx_buffer_tail];
    _rx_buffer_tail = (rx_buffer_index_t)(_rx_buffer_tail + 1) % SERIAL_RX_BUFFER_SIZE;
    return c;
  }
}
    3164:	08 95       	ret

00003166 <_Z14serialEventRunv>:
#endif

void serialEventRun(void)
{
#if defined(HAVE_HWSERIAL0)
  if (Serial0_available && serialEvent && Serial0_available()) serialEvent();
    3166:	8b e3       	ldi	r24, 0x3B	; 59
    3168:	9a e1       	ldi	r25, 0x1A	; 26
    316a:	89 2b       	or	r24, r25
    316c:	39 f0       	breq	.+14     	; 0x317c <_Z14serialEventRunv+0x16>
    316e:	80 e0       	ldi	r24, 0x00	; 0
    3170:	90 e0       	ldi	r25, 0x00	; 0
    3172:	89 2b       	or	r24, r25
    3174:	19 f0       	breq	.+6      	; 0x317c <_Z14serialEventRunv+0x16>
    3176:	7f d1       	rcall	.+766    	; 0x3476 <_Z17Serial0_availablev>
    3178:	81 11       	cpse	r24, r1
    317a:	25 c0       	rjmp	.+74     	; 0x31c6 <_Z14serialEventRunv+0x60>
#endif
#if defined(HAVE_HWSERIAL1)
  if (Serial1_available && serialEvent1 && Serial1_available()) serialEvent1();
    317c:	80 e0       	ldi	r24, 0x00	; 0
    317e:	90 e0       	ldi	r25, 0x00	; 0
    3180:	89 2b       	or	r24, r25
    3182:	41 f0       	breq	.+16     	; 0x3194 <_Z14serialEventRunv+0x2e>
    3184:	80 e0       	ldi	r24, 0x00	; 0
    3186:	90 e0       	ldi	r25, 0x00	; 0
    3188:	89 2b       	or	r24, r25
    318a:	21 f0       	breq	.+8      	; 0x3194 <_Z14serialEventRunv+0x2e>
    318c:	0e 94 00 00 	call	0	; 0x0 <__vectors>
    3190:	81 11       	cpse	r24, r1
    3192:	1c c0       	rjmp	.+56     	; 0x31cc <_Z14serialEventRunv+0x66>
#endif
#if defined(HAVE_HWSERIAL2)
  if (Serial2_available && serialEvent2 && Serial2_available()) serialEvent2();
    3194:	80 e0       	ldi	r24, 0x00	; 0
    3196:	90 e0       	ldi	r25, 0x00	; 0
    3198:	89 2b       	or	r24, r25
    319a:	41 f0       	breq	.+16     	; 0x31ac <_Z14serialEventRunv+0x46>
    319c:	80 e0       	ldi	r24, 0x00	; 0
    319e:	90 e0       	ldi	r25, 0x00	; 0
    31a0:	89 2b       	or	r24, r25
    31a2:	21 f0       	breq	.+8      	; 0x31ac <_Z14serialEventRunv+0x46>
    31a4:	0e 94 00 00 	call	0	; 0x0 <__vectors>
    31a8:	81 11       	cpse	r24, r1
    31aa:	13 c0       	rjmp	.+38     	; 0x31d2 <_Z14serialEventRunv+0x6c>
#endif
#if defined(HAVE_HWSERIAL3)
  if (Serial3_available && serialEvent3 && Serial3_available()) serialEvent3();
    31ac:	80 e0       	ldi	r24, 0x00	; 0
    31ae:	90 e0       	ldi	r25, 0x00	; 0
    31b0:	89 2b       	or	r24, r25
    31b2:	a1 f0       	breq	.+40     	; 0x31dc <_Z14serialEventRunv+0x76>
    31b4:	80 e0       	ldi	r24, 0x00	; 0
    31b6:	90 e0       	ldi	r25, 0x00	; 0
    31b8:	89 2b       	or	r24, r25
    31ba:	81 f0       	breq	.+32     	; 0x31dc <_Z14serialEventRunv+0x76>
    31bc:	0e 94 00 00 	call	0	; 0x0 <__vectors>
    31c0:	81 11       	cpse	r24, r1
    31c2:	0a c0       	rjmp	.+20     	; 0x31d8 <_Z14serialEventRunv+0x72>
    31c4:	08 95       	ret
#endif

void serialEventRun(void)
{
#if defined(HAVE_HWSERIAL0)
  if (Serial0_available && serialEvent && Serial0_available()) serialEvent();
    31c6:	0e 94 00 00 	call	0	; 0x0 <__vectors>
    31ca:	d8 cf       	rjmp	.-80     	; 0x317c <_Z14serialEventRunv+0x16>
#endif
#if defined(HAVE_HWSERIAL1)
  if (Serial1_available && serialEvent1 && Serial1_available()) serialEvent1();
    31cc:	0e 94 00 00 	call	0	; 0x0 <__vectors>
    31d0:	e1 cf       	rjmp	.-62     	; 0x3194 <_Z14serialEventRunv+0x2e>
#endif
#if defined(HAVE_HWSERIAL2)
  if (Serial2_available && serialEvent2 && Serial2_available()) serialEvent2();
    31d2:	0e 94 00 00 	call	0	; 0x0 <__vectors>
    31d6:	ea cf       	rjmp	.-44     	; 0x31ac <_Z14serialEventRunv+0x46>
#endif
#if defined(HAVE_HWSERIAL3)
  if (Serial3_available && serialEvent3 && Serial3_available()) serialEvent3();
    31d8:	0c 94 00 00 	jmp	0	; 0x0 <__vectors>
    31dc:	08 95       	ret

000031de <_ZN14HardwareSerial17_tx_udr_empty_irqEv>:
}

// Actual interrupt handlers //////////////////////////////////////////////////////////////

void HardwareSerial::_tx_udr_empty_irq(void)
{
    31de:	fc 01       	movw	r30, r24
  // If interrupts are enabled, there must be more data in the output
  // buffer. Send the next byte
  unsigned char c = _tx_buffer[_tx_buffer_tail];
    31e0:	84 8d       	ldd	r24, Z+28	; 0x1c
    31e2:	df 01       	movw	r26, r30
    31e4:	a8 0f       	add	r26, r24
    31e6:	b1 1d       	adc	r27, r1
    31e8:	a3 5a       	subi	r26, 0xA3	; 163
    31ea:	bf 4f       	sbci	r27, 0xFF	; 255
    31ec:	2c 91       	ld	r18, X
  _tx_buffer_tail = (_tx_buffer_tail + 1) % SERIAL_TX_BUFFER_SIZE;
    31ee:	84 8d       	ldd	r24, Z+28	; 0x1c
    31f0:	90 e0       	ldi	r25, 0x00	; 0
    31f2:	01 96       	adiw	r24, 0x01	; 1
    31f4:	8f 73       	andi	r24, 0x3F	; 63
    31f6:	99 27       	eor	r25, r25
    31f8:	84 8f       	std	Z+28, r24	; 0x1c

  *_udr = c;
    31fa:	a6 89       	ldd	r26, Z+22	; 0x16
    31fc:	b7 89       	ldd	r27, Z+23	; 0x17
    31fe:	2c 93       	st	X, r18

  // clear the TXC bit -- "can be cleared by writing a one to its bit
  // location". This makes sure flush() won't return until the bytes
  // actually got written
  sbi(*_ucsra, TXC0);
    3200:	a0 89       	ldd	r26, Z+16	; 0x10
    3202:	b1 89       	ldd	r27, Z+17	; 0x11
    3204:	8c 91       	ld	r24, X
    3206:	80 64       	ori	r24, 0x40	; 64
    3208:	8c 93       	st	X, r24

  if (_tx_buffer_head == _tx_buffer_tail) {
    320a:	93 8d       	ldd	r25, Z+27	; 0x1b
    320c:	84 8d       	ldd	r24, Z+28	; 0x1c
    320e:	98 13       	cpse	r25, r24
    3210:	06 c0       	rjmp	.+12     	; 0x321e <_ZN14HardwareSerial17_tx_udr_empty_irqEv+0x40>
    // Buffer empty, so disable interrupts
    cbi(*_ucsrb, UDRIE0);
    3212:	02 88       	ldd	r0, Z+18	; 0x12
    3214:	f3 89       	ldd	r31, Z+19	; 0x13
    3216:	e0 2d       	mov	r30, r0
    3218:	80 81       	ld	r24, Z
    321a:	8f 7d       	andi	r24, 0xDF	; 223
    321c:	80 83       	st	Z, r24
    321e:	08 95       	ret

00003220 <_ZN14HardwareSerial5flushEv>:
  if (head >= tail) return SERIAL_TX_BUFFER_SIZE - 1 - head + tail;
  return tail - head - 1;
}

void HardwareSerial::flush()
{
    3220:	cf 93       	push	r28
    3222:	df 93       	push	r29
    3224:	ec 01       	movw	r28, r24
  // If we have never written a byte, no need to flush. This special
  // case is needed since there is no way to force the TXC (transmit
  // complete) bit to 1 during initialization
  if (!_written)
    3226:	88 8d       	ldd	r24, Y+24	; 0x18
    3228:	88 23       	and	r24, r24
    322a:	c1 f0       	breq	.+48     	; 0x325c <_ZN14HardwareSerial5flushEv+0x3c>
    return;

  while (bit_is_set(*_ucsrb, UDRIE0) || bit_is_clear(*_ucsra, TXC0)) {
    322c:	ea 89       	ldd	r30, Y+18	; 0x12
    322e:	fb 89       	ldd	r31, Y+19	; 0x13
    3230:	80 81       	ld	r24, Z
    3232:	85 fd       	sbrc	r24, 5
    3234:	05 c0       	rjmp	.+10     	; 0x3240 <_ZN14HardwareSerial5flushEv+0x20>
    3236:	a8 89       	ldd	r26, Y+16	; 0x10
    3238:	b9 89       	ldd	r27, Y+17	; 0x11
    323a:	8c 91       	ld	r24, X
    323c:	86 fd       	sbrc	r24, 6
    323e:	0e c0       	rjmp	.+28     	; 0x325c <_ZN14HardwareSerial5flushEv+0x3c>
    if (bit_is_clear(SREG, SREG_I) && bit_is_set(*_ucsrb, UDRIE0))
    3240:	0f b6       	in	r0, 0x3f	; 63
    3242:	07 fc       	sbrc	r0, 7
    3244:	f5 cf       	rjmp	.-22     	; 0x3230 <_ZN14HardwareSerial5flushEv+0x10>
    3246:	80 81       	ld	r24, Z
    3248:	85 ff       	sbrs	r24, 5
    324a:	f2 cf       	rjmp	.-28     	; 0x3230 <_ZN14HardwareSerial5flushEv+0x10>
	// Interrupts are globally disabled, but the DR empty
	// interrupt should be enabled, so poll the DR empty flag to
	// prevent deadlock
	if (bit_is_set(*_ucsra, UDRE0))
    324c:	a8 89       	ldd	r26, Y+16	; 0x10
    324e:	b9 89       	ldd	r27, Y+17	; 0x11
    3250:	8c 91       	ld	r24, X
    3252:	85 ff       	sbrs	r24, 5
    3254:	ed cf       	rjmp	.-38     	; 0x3230 <_ZN14HardwareSerial5flushEv+0x10>
	  _tx_udr_empty_irq();
    3256:	ce 01       	movw	r24, r28
    3258:	c2 df       	rcall	.-124    	; 0x31de <_ZN14HardwareSerial17_tx_udr_empty_irqEv>
    325a:	e8 cf       	rjmp	.-48     	; 0x322c <_ZN14HardwareSerial5flushEv+0xc>
  }
  // If we get here, nothing is queued anymore (DRIE is disabled) and
  // the hardware finished tranmission (TXC is set).
}
    325c:	df 91       	pop	r29
    325e:	cf 91       	pop	r28
    3260:	08 95       	ret

00003262 <_ZN14HardwareSerial5writeEh>:

size_t HardwareSerial::write(uint8_t c)
{
    3262:	ef 92       	push	r14
    3264:	ff 92       	push	r15
    3266:	0f 93       	push	r16
    3268:	1f 93       	push	r17
    326a:	cf 93       	push	r28
    326c:	df 93       	push	r29
    326e:	ec 01       	movw	r28, r24
  _written = true;
    3270:	81 e0       	ldi	r24, 0x01	; 1
    3272:	88 8f       	std	Y+24, r24	; 0x18
  // If the buffer and the data register is empty, just write the byte
  // to the data register and be done. This shortcut helps
  // significantly improve the effective datarate at high (>
  // 500kbit/s) bitrates, where interrupt overhead becomes a slowdown.
  if (_tx_buffer_head == _tx_buffer_tail && bit_is_set(*_ucsra, UDRE0)) {
    3274:	9b 8d       	ldd	r25, Y+27	; 0x1b
    3276:	8c 8d       	ldd	r24, Y+28	; 0x1c
    3278:	98 13       	cpse	r25, r24
    327a:	05 c0       	rjmp	.+10     	; 0x3286 <_ZN14HardwareSerial5writeEh+0x24>
    327c:	e8 89       	ldd	r30, Y+16	; 0x10
    327e:	f9 89       	ldd	r31, Y+17	; 0x11
    3280:	80 81       	ld	r24, Z
    3282:	85 fd       	sbrc	r24, 5
    3284:	23 c0       	rjmp	.+70     	; 0x32cc <_ZN14HardwareSerial5writeEh+0x6a>
    3286:	f6 2e       	mov	r15, r22
    *_udr = c;
    sbi(*_ucsra, TXC0);
    return 1;
  }
  tx_buffer_index_t i = (_tx_buffer_head + 1) % SERIAL_TX_BUFFER_SIZE;
    3288:	0b 8d       	ldd	r16, Y+27	; 0x1b
    328a:	10 e0       	ldi	r17, 0x00	; 0
    328c:	0f 5f       	subi	r16, 0xFF	; 255
    328e:	1f 4f       	sbci	r17, 0xFF	; 255
    3290:	0f 73       	andi	r16, 0x3F	; 63
    3292:	11 27       	eor	r17, r17
    3294:	e0 2e       	mov	r14, r16
	
  // If the output buffer is full, there's nothing for it other than to 
  // wait for the interrupt handler to empty it a bit
  while (i == _tx_buffer_tail) {
    3296:	8c 8d       	ldd	r24, Y+28	; 0x1c
    3298:	e8 12       	cpse	r14, r24
    329a:	0b c0       	rjmp	.+22     	; 0x32b2 <_ZN14HardwareSerial5writeEh+0x50>
    if (bit_is_clear(SREG, SREG_I)) {
    329c:	0f b6       	in	r0, 0x3f	; 63
    329e:	07 fc       	sbrc	r0, 7
    32a0:	fa cf       	rjmp	.-12     	; 0x3296 <_ZN14HardwareSerial5writeEh+0x34>
      // Interrupts are disabled, so we'll have to poll the data
      // register empty flag ourselves. If it is set, pretend an
      // interrupt has happened and call the handler to free up
      // space for us.
      if(bit_is_set(*_ucsra, UDRE0))
    32a2:	e8 89       	ldd	r30, Y+16	; 0x10
    32a4:	f9 89       	ldd	r31, Y+17	; 0x11
    32a6:	80 81       	ld	r24, Z
    32a8:	85 ff       	sbrs	r24, 5
    32aa:	f5 cf       	rjmp	.-22     	; 0x3296 <_ZN14HardwareSerial5writeEh+0x34>
	_tx_udr_empty_irq();
    32ac:	ce 01       	movw	r24, r28
    32ae:	97 df       	rcall	.-210    	; 0x31de <_ZN14HardwareSerial17_tx_udr_empty_irqEv>
    32b0:	f2 cf       	rjmp	.-28     	; 0x3296 <_ZN14HardwareSerial5writeEh+0x34>
    } else {
      // nop, the interrupt handler will free up space for us
    }
  }

  _tx_buffer[_tx_buffer_head] = c;
    32b2:	8b 8d       	ldd	r24, Y+27	; 0x1b
    32b4:	fe 01       	movw	r30, r28
    32b6:	e8 0f       	add	r30, r24
    32b8:	f1 1d       	adc	r31, r1
    32ba:	e3 5a       	subi	r30, 0xA3	; 163
    32bc:	ff 4f       	sbci	r31, 0xFF	; 255
    32be:	f0 82       	st	Z, r15
  _tx_buffer_head = i;
    32c0:	0b 8f       	std	Y+27, r16	; 0x1b
	
  sbi(*_ucsrb, UDRIE0);
    32c2:	ea 89       	ldd	r30, Y+18	; 0x12
    32c4:	fb 89       	ldd	r31, Y+19	; 0x13
    32c6:	80 81       	ld	r24, Z
    32c8:	80 62       	ori	r24, 0x20	; 32
    32ca:	07 c0       	rjmp	.+14     	; 0x32da <_ZN14HardwareSerial5writeEh+0x78>
  // If the buffer and the data register is empty, just write the byte
  // to the data register and be done. This shortcut helps
  // significantly improve the effective datarate at high (>
  // 500kbit/s) bitrates, where interrupt overhead becomes a slowdown.
  if (_tx_buffer_head == _tx_buffer_tail && bit_is_set(*_ucsra, UDRE0)) {
    *_udr = c;
    32cc:	ee 89       	ldd	r30, Y+22	; 0x16
    32ce:	ff 89       	ldd	r31, Y+23	; 0x17
    32d0:	60 83       	st	Z, r22
    sbi(*_ucsra, TXC0);
    32d2:	e8 89       	ldd	r30, Y+16	; 0x10
    32d4:	f9 89       	ldd	r31, Y+17	; 0x11
    32d6:	80 81       	ld	r24, Z
    32d8:	80 64       	ori	r24, 0x40	; 64
    32da:	80 83       	st	Z, r24
  _tx_buffer_head = i;
	
  sbi(*_ucsrb, UDRIE0);
  
  return 1;
}
    32dc:	81 e0       	ldi	r24, 0x01	; 1
    32de:	90 e0       	ldi	r25, 0x00	; 0
    32e0:	df 91       	pop	r29
    32e2:	cf 91       	pop	r28
    32e4:	1f 91       	pop	r17
    32e6:	0f 91       	pop	r16
    32e8:	ff 90       	pop	r15
    32ea:	ef 90       	pop	r14
    32ec:	08 95       	ret

000032ee <_ZN14HardwareSerial5beginEmh>:
}

// Public Methods //////////////////////////////////////////////////////////////

void HardwareSerial::begin(unsigned long baud, byte config)
{
    32ee:	cf 92       	push	r12
    32f0:	df 92       	push	r13
    32f2:	ef 92       	push	r14
    32f4:	ff 92       	push	r15
    32f6:	1f 93       	push	r17
    32f8:	cf 93       	push	r28
    32fa:	df 93       	push	r29
    32fc:	ec 01       	movw	r28, r24
    32fe:	6a 01       	movw	r12, r20
    3300:	7b 01       	movw	r14, r22
    3302:	12 2f       	mov	r17, r18
  // Try u2x mode first
  uint16_t baud_setting = (F_CPU / 4 / baud - 1) / 2;
  *_ucsra = 1 << U2X0;
    3304:	e8 89       	ldd	r30, Y+16	; 0x10
    3306:	f9 89       	ldd	r31, Y+17	; 0x11
    3308:	82 e0       	ldi	r24, 0x02	; 2
    330a:	80 83       	st	Z, r24
  // hardcoded exception for 57600 for compatibility with the bootloader
  // shipped with the Duemilanove and previous boards and the firmware
  // on the 8U2 on the Uno and Mega 2560. Also, The baud_setting cannot
  // be > 4095, so switch back to non-u2x mode if the baud rate is too
  // low.
  if (((F_CPU == 16000000UL) && (baud == 57600)) || (baud_setting >4095))
    330c:	41 15       	cp	r20, r1
    330e:	51 4e       	sbci	r21, 0xE1	; 225
    3310:	61 05       	cpc	r22, r1
    3312:	71 05       	cpc	r23, r1
    3314:	b1 f0       	breq	.+44     	; 0x3342 <_ZN14HardwareSerial5beginEmh+0x54>
// Public Methods //////////////////////////////////////////////////////////////

void HardwareSerial::begin(unsigned long baud, byte config)
{
  // Try u2x mode first
  uint16_t baud_setting = (F_CPU / 4 / baud - 1) / 2;
    3316:	60 e0       	ldi	r22, 0x00	; 0
    3318:	79 e0       	ldi	r23, 0x09	; 9
    331a:	8d e3       	ldi	r24, 0x3D	; 61
    331c:	90 e0       	ldi	r25, 0x00	; 0
    331e:	a7 01       	movw	r20, r14
    3320:	96 01       	movw	r18, r12
    3322:	0e 94 1b 23 	call	0x4636	; 0x4636 <__udivmodsi4>
    3326:	da 01       	movw	r26, r20
    3328:	c9 01       	movw	r24, r18
    332a:	01 97       	sbiw	r24, 0x01	; 1
    332c:	a1 09       	sbc	r26, r1
    332e:	b1 09       	sbc	r27, r1
    3330:	b6 95       	lsr	r27
    3332:	a7 95       	ror	r26
    3334:	97 95       	ror	r25
    3336:	87 95       	ror	r24
    3338:	ac 01       	movw	r20, r24
  // hardcoded exception for 57600 for compatibility with the bootloader
  // shipped with the Duemilanove and previous boards and the firmware
  // on the 8U2 on the Uno and Mega 2560. Also, The baud_setting cannot
  // be > 4095, so switch back to non-u2x mode if the baud rate is too
  // low.
  if (((F_CPU == 16000000UL) && (baud == 57600)) || (baud_setting >4095))
    333a:	41 15       	cp	r20, r1
    333c:	80 e1       	ldi	r24, 0x10	; 16
    333e:	58 07       	cpc	r21, r24
    3340:	a8 f0       	brcs	.+42     	; 0x336c <_ZN14HardwareSerial5beginEmh+0x7e>
  {
    *_ucsra = 0;
    3342:	e8 89       	ldd	r30, Y+16	; 0x10
    3344:	f9 89       	ldd	r31, Y+17	; 0x11
    3346:	10 82       	st	Z, r1
    baud_setting = (F_CPU / 8 / baud - 1) / 2;
    3348:	60 e8       	ldi	r22, 0x80	; 128
    334a:	74 e8       	ldi	r23, 0x84	; 132
    334c:	8e e1       	ldi	r24, 0x1E	; 30
    334e:	90 e0       	ldi	r25, 0x00	; 0
    3350:	a7 01       	movw	r20, r14
    3352:	96 01       	movw	r18, r12
    3354:	0e 94 1b 23 	call	0x4636	; 0x4636 <__udivmodsi4>
    3358:	ba 01       	movw	r22, r20
    335a:	a9 01       	movw	r20, r18
    335c:	41 50       	subi	r20, 0x01	; 1
    335e:	51 09       	sbc	r21, r1
    3360:	61 09       	sbc	r22, r1
    3362:	71 09       	sbc	r23, r1
    3364:	76 95       	lsr	r23
    3366:	67 95       	ror	r22
    3368:	57 95       	ror	r21
    336a:	47 95       	ror	r20
  }

  // assign the baud_setting, a.k.a. ubrr (USART Baud Rate Register)
  *_ubrrh = baud_setting >> 8;
    336c:	ec 85       	ldd	r30, Y+12	; 0x0c
    336e:	fd 85       	ldd	r31, Y+13	; 0x0d
    3370:	50 83       	st	Z, r21
  *_ubrrl = baud_setting;
    3372:	ee 85       	ldd	r30, Y+14	; 0x0e
    3374:	ff 85       	ldd	r31, Y+15	; 0x0f
    3376:	40 83       	st	Z, r20

  _written = false;
    3378:	18 8e       	std	Y+24, r1	; 0x18

  //set the data bits, parity, and stop bits
#if defined(__AVR_ATmega8__)
  config |= 0x80; // select UCSRC register (shared with UBRRH)
#endif
  *_ucsrc = config;
    337a:	ec 89       	ldd	r30, Y+20	; 0x14
    337c:	fd 89       	ldd	r31, Y+21	; 0x15
    337e:	10 83       	st	Z, r17
  
  sbi(*_ucsrb, RXEN0);
    3380:	ea 89       	ldd	r30, Y+18	; 0x12
    3382:	fb 89       	ldd	r31, Y+19	; 0x13
    3384:	80 81       	ld	r24, Z
    3386:	80 61       	ori	r24, 0x10	; 16
    3388:	80 83       	st	Z, r24
  sbi(*_ucsrb, TXEN0);
    338a:	ea 89       	ldd	r30, Y+18	; 0x12
    338c:	fb 89       	ldd	r31, Y+19	; 0x13
    338e:	80 81       	ld	r24, Z
    3390:	88 60       	ori	r24, 0x08	; 8
    3392:	80 83       	st	Z, r24
  sbi(*_ucsrb, RXCIE0);
    3394:	ea 89       	ldd	r30, Y+18	; 0x12
    3396:	fb 89       	ldd	r31, Y+19	; 0x13
    3398:	80 81       	ld	r24, Z
    339a:	80 68       	ori	r24, 0x80	; 128
    339c:	80 83       	st	Z, r24
  cbi(*_ucsrb, UDRIE0);
    339e:	ea 89       	ldd	r30, Y+18	; 0x12
    33a0:	fb 89       	ldd	r31, Y+19	; 0x13
    33a2:	80 81       	ld	r24, Z
    33a4:	8f 7d       	andi	r24, 0xDF	; 223
    33a6:	80 83       	st	Z, r24
}
    33a8:	df 91       	pop	r29
    33aa:	cf 91       	pop	r28
    33ac:	1f 91       	pop	r17
    33ae:	ff 90       	pop	r15
    33b0:	ef 90       	pop	r14
    33b2:	df 90       	pop	r13
    33b4:	cf 90       	pop	r12
    33b6:	08 95       	ret

000033b8 <__vector_25>:
#elif defined(USART_RXC_vect)
  ISR(USART_RXC_vect) // ATmega8
#else
  #error "Don't know what the Data Received vector is called for Serial"
#endif
  {
    33b8:	1f 92       	push	r1
    33ba:	0f 92       	push	r0
    33bc:	0f b6       	in	r0, 0x3f	; 63
    33be:	0f 92       	push	r0
    33c0:	11 24       	eor	r1, r1
    33c2:	0b b6       	in	r0, 0x3b	; 59
    33c4:	0f 92       	push	r0
    33c6:	2f 93       	push	r18
    33c8:	8f 93       	push	r24
    33ca:	9f 93       	push	r25
    33cc:	ef 93       	push	r30
    33ce:	ff 93       	push	r31

// Actual interrupt handlers //////////////////////////////////////////////////////////////

void HardwareSerial::_rx_complete_irq(void)
{
  if (bit_is_clear(*_ucsra, UPE0)) {
    33d0:	e0 91 a9 05 	lds	r30, 0x05A9	; 0x8005a9 <Serial+0x10>
    33d4:	f0 91 aa 05 	lds	r31, 0x05AA	; 0x8005aa <Serial+0x11>
    33d8:	80 81       	ld	r24, Z
    33da:	e0 91 af 05 	lds	r30, 0x05AF	; 0x8005af <Serial+0x16>
    33de:	f0 91 b0 05 	lds	r31, 0x05B0	; 0x8005b0 <Serial+0x17>
    33e2:	82 fd       	sbrc	r24, 2
    33e4:	12 c0       	rjmp	.+36     	; 0x340a <__vector_25+0x52>
    // No Parity error, read byte and store it in the buffer if there is
    // room
    unsigned char c = *_udr;
    33e6:	90 81       	ld	r25, Z
    rx_buffer_index_t i = (unsigned int)(_rx_buffer_head + 1) % SERIAL_RX_BUFFER_SIZE;
    33e8:	80 91 b2 05 	lds	r24, 0x05B2	; 0x8005b2 <Serial+0x19>
    33ec:	8f 5f       	subi	r24, 0xFF	; 255
    33ee:	8f 73       	andi	r24, 0x3F	; 63

    // if we should be storing the received character into the location
    // just before the tail (meaning that the head would advance to the
    // current location of the tail), we're about to overflow the buffer
    // and so we don't write the character or advance the head.
    if (i != _rx_buffer_tail) {
    33f0:	20 91 b3 05 	lds	r18, 0x05B3	; 0x8005b3 <Serial+0x1a>
    33f4:	82 17       	cp	r24, r18
    33f6:	51 f0       	breq	.+20     	; 0x340c <__vector_25+0x54>
      _rx_buffer[_rx_buffer_head] = c;
    33f8:	e0 91 b2 05 	lds	r30, 0x05B2	; 0x8005b2 <Serial+0x19>
    33fc:	f0 e0       	ldi	r31, 0x00	; 0
    33fe:	e7 56       	subi	r30, 0x67	; 103
    3400:	fa 4f       	sbci	r31, 0xFA	; 250
    3402:	95 8f       	std	Z+29, r25	; 0x1d
      _rx_buffer_head = i;
    3404:	80 93 b2 05 	sts	0x05B2, r24	; 0x8005b2 <Serial+0x19>
    3408:	01 c0       	rjmp	.+2      	; 0x340c <__vector_25+0x54>
    }
  } else {
    // Parity error, read byte but discard it
    *_udr;
    340a:	80 81       	ld	r24, Z
    Serial._rx_complete_irq();
  }
    340c:	ff 91       	pop	r31
    340e:	ef 91       	pop	r30
    3410:	9f 91       	pop	r25
    3412:	8f 91       	pop	r24
    3414:	2f 91       	pop	r18
    3416:	0f 90       	pop	r0
    3418:	0b be       	out	0x3b, r0	; 59
    341a:	0f 90       	pop	r0
    341c:	0f be       	out	0x3f, r0	; 63
    341e:	0f 90       	pop	r0
    3420:	1f 90       	pop	r1
    3422:	18 95       	reti

00003424 <__vector_26>:
#elif defined(USART_UDRE_vect)
ISR(USART_UDRE_vect)
#else
  #error "Don't know what the Data Register Empty vector is called for Serial"
#endif
{
    3424:	1f 92       	push	r1
    3426:	0f 92       	push	r0
    3428:	0f b6       	in	r0, 0x3f	; 63
    342a:	0f 92       	push	r0
    342c:	11 24       	eor	r1, r1
    342e:	0b b6       	in	r0, 0x3b	; 59
    3430:	0f 92       	push	r0
    3432:	2f 93       	push	r18
    3434:	3f 93       	push	r19
    3436:	4f 93       	push	r20
    3438:	5f 93       	push	r21
    343a:	6f 93       	push	r22
    343c:	7f 93       	push	r23
    343e:	8f 93       	push	r24
    3440:	9f 93       	push	r25
    3442:	af 93       	push	r26
    3444:	bf 93       	push	r27
    3446:	ef 93       	push	r30
    3448:	ff 93       	push	r31
  Serial._tx_udr_empty_irq();
    344a:	89 e9       	ldi	r24, 0x99	; 153
    344c:	95 e0       	ldi	r25, 0x05	; 5
    344e:	c7 de       	rcall	.-626    	; 0x31de <_ZN14HardwareSerial17_tx_udr_empty_irqEv>
}
    3450:	ff 91       	pop	r31
    3452:	ef 91       	pop	r30
    3454:	bf 91       	pop	r27
    3456:	af 91       	pop	r26
    3458:	9f 91       	pop	r25
    345a:	8f 91       	pop	r24
    345c:	7f 91       	pop	r23
    345e:	6f 91       	pop	r22
    3460:	5f 91       	pop	r21
    3462:	4f 91       	pop	r20
    3464:	3f 91       	pop	r19
    3466:	2f 91       	pop	r18
    3468:	0f 90       	pop	r0
    346a:	0b be       	out	0x3b, r0	; 59
    346c:	0f 90       	pop	r0
    346e:	0f be       	out	0x3f, r0	; 63
    3470:	0f 90       	pop	r0
    3472:	1f 90       	pop	r1
    3474:	18 95       	reti

00003476 <_Z17Serial0_availablev>:
#endif

// Function that can be weakly referenced by serialEventRun to prevent
// pulling in this file if it's not otherwise used.
bool Serial0_available() {
  return Serial.available();
    3476:	89 e9       	ldi	r24, 0x99	; 153
    3478:	95 e0       	ldi	r25, 0x05	; 5
    347a:	47 de       	rcall	.-882    	; 0x310a <_ZN14HardwareSerial9availableEv>
    347c:	21 e0       	ldi	r18, 0x01	; 1
    347e:	89 2b       	or	r24, r25
    3480:	09 f4       	brne	.+2      	; 0x3484 <_Z17Serial0_availablev+0xe>
    3482:	20 e0       	ldi	r18, 0x00	; 0
}
    3484:	82 2f       	mov	r24, r18
    3486:	08 95       	ret

00003488 <_GLOBAL__sub_I___vector_25>:
    size_t printNumber(unsigned long, uint8_t);
    size_t printFloat(double, uint8_t);
  protected:
    void setWriteError(int err = 1) { write_error = err; }
  public:
    Print() : write_error(0) {}
    3488:	e9 e9       	ldi	r30, 0x99	; 153
    348a:	f5 e0       	ldi	r31, 0x05	; 5
    348c:	13 82       	std	Z+3, r1	; 0x03
    348e:	12 82       	std	Z+2, r1	; 0x02
    virtual int available() = 0;
    virtual int read() = 0;
    virtual int peek() = 0;
    virtual void flush() = 0;

    Stream() {_timeout=1000;}
    3490:	88 ee       	ldi	r24, 0xE8	; 232
    3492:	93 e0       	ldi	r25, 0x03	; 3
    3494:	a0 e0       	ldi	r26, 0x00	; 0
    3496:	b0 e0       	ldi	r27, 0x00	; 0
    3498:	84 83       	std	Z+4, r24	; 0x04
    349a:	95 83       	std	Z+5, r25	; 0x05
    349c:	a6 83       	std	Z+6, r26	; 0x06
    349e:	b7 83       	std	Z+7, r27	; 0x07
  volatile uint8_t *ucsrc, volatile uint8_t *udr) :
    _ubrrh(ubrrh), _ubrrl(ubrrl),
    _ucsra(ucsra), _ucsrb(ucsrb), _ucsrc(ucsrc),
    _udr(udr),
    _rx_buffer_head(0), _rx_buffer_tail(0),
    _tx_buffer_head(0), _tx_buffer_tail(0)
    34a0:	85 e1       	ldi	r24, 0x15	; 21
    34a2:	95 e0       	ldi	r25, 0x05	; 5
    34a4:	91 83       	std	Z+1, r25	; 0x01
    34a6:	80 83       	st	Z, r24
    34a8:	85 ec       	ldi	r24, 0xC5	; 197
    34aa:	90 e0       	ldi	r25, 0x00	; 0
    34ac:	95 87       	std	Z+13, r25	; 0x0d
    34ae:	84 87       	std	Z+12, r24	; 0x0c
    34b0:	84 ec       	ldi	r24, 0xC4	; 196
    34b2:	90 e0       	ldi	r25, 0x00	; 0
    34b4:	97 87       	std	Z+15, r25	; 0x0f
    34b6:	86 87       	std	Z+14, r24	; 0x0e
    34b8:	80 ec       	ldi	r24, 0xC0	; 192
    34ba:	90 e0       	ldi	r25, 0x00	; 0
    34bc:	91 8b       	std	Z+17, r25	; 0x11
    34be:	80 8b       	std	Z+16, r24	; 0x10
    34c0:	81 ec       	ldi	r24, 0xC1	; 193
    34c2:	90 e0       	ldi	r25, 0x00	; 0
    34c4:	93 8b       	std	Z+19, r25	; 0x13
    34c6:	82 8b       	std	Z+18, r24	; 0x12
    34c8:	82 ec       	ldi	r24, 0xC2	; 194
    34ca:	90 e0       	ldi	r25, 0x00	; 0
    34cc:	95 8b       	std	Z+21, r25	; 0x15
    34ce:	84 8b       	std	Z+20, r24	; 0x14
    34d0:	86 ec       	ldi	r24, 0xC6	; 198
    34d2:	90 e0       	ldi	r25, 0x00	; 0
    34d4:	97 8b       	std	Z+23, r25	; 0x17
    34d6:	86 8b       	std	Z+22, r24	; 0x16
    34d8:	11 8e       	std	Z+25, r1	; 0x19
    34da:	12 8e       	std	Z+26, r1	; 0x1a
    34dc:	13 8e       	std	Z+27, r1	; 0x1b
    34de:	14 8e       	std	Z+28, r1	; 0x1c
    34e0:	08 95       	ret

000034e2 <initVariant>:
// May be redefined by variant files.
void initVariant() __attribute__((weak));
void initVariant() { }

void setupUSB() __attribute__((weak));
void setupUSB() { }
    34e2:	08 95       	ret

000034e4 <main>:

int main(void)
{
	init();
    34e4:	5e d6       	rcall	.+3260   	; 0x41a2 <init>

	initVariant();
    34e6:	fd df       	rcall	.-6      	; 0x34e2 <initVariant>

#if defined(USBCON)
	USBDevice.attach();
#endif
	
	setup();
    34e8:	0e 94 8a 0b 	call	0x1714	; 0x1714 <setup>
    
	for (;;) {
		loop();
		if (serialEventRun) serialEventRun();
    34ec:	c3 eb       	ldi	r28, 0xB3	; 179
    34ee:	d8 e1       	ldi	r29, 0x18	; 24
#endif
	
	setup();
    
	for (;;) {
		loop();
    34f0:	0e 94 a0 0b 	call	0x1740	; 0x1740 <loop>
		if (serialEventRun) serialEventRun();
    34f4:	20 97       	sbiw	r28, 0x00	; 0
    34f6:	e1 f3       	breq	.-8      	; 0x34f0 <main+0xc>
    34f8:	36 de       	rcall	.-916    	; 0x3166 <_Z14serialEventRunv>
    34fa:	fa cf       	rjmp	.-12     	; 0x34f0 <main+0xc>

000034fc <_ZN5Print5writeEPKhj>:

// Public Methods //////////////////////////////////////////////////////////////

/* default implementation: may be overridden */
size_t Print::write(const uint8_t *buffer, size_t size)
{
    34fc:	cf 92       	push	r12
    34fe:	df 92       	push	r13
    3500:	ef 92       	push	r14
    3502:	ff 92       	push	r15
    3504:	0f 93       	push	r16
    3506:	1f 93       	push	r17
    3508:	cf 93       	push	r28
    350a:	df 93       	push	r29
    350c:	6c 01       	movw	r12, r24
    350e:	7a 01       	movw	r14, r20
    3510:	8b 01       	movw	r16, r22
  size_t n = 0;
    3512:	c0 e0       	ldi	r28, 0x00	; 0
    3514:	d0 e0       	ldi	r29, 0x00	; 0
  while (size--) {
    3516:	ce 15       	cp	r28, r14
    3518:	df 05       	cpc	r29, r15
    351a:	89 f0       	breq	.+34     	; 0x353e <_ZN5Print5writeEPKhj+0x42>
    if (write(*buffer++)) n++;
    351c:	d8 01       	movw	r26, r16
    351e:	6d 91       	ld	r22, X+
    3520:	8d 01       	movw	r16, r26
    3522:	d6 01       	movw	r26, r12
    3524:	ed 91       	ld	r30, X+
    3526:	fc 91       	ld	r31, X
    3528:	01 90       	ld	r0, Z+
    352a:	f0 81       	ld	r31, Z
    352c:	e0 2d       	mov	r30, r0
    352e:	c6 01       	movw	r24, r12
    3530:	19 95       	eicall
    3532:	89 2b       	or	r24, r25
    3534:	11 f4       	brne	.+4      	; 0x353a <_ZN5Print5writeEPKhj+0x3e>
    3536:	7e 01       	movw	r14, r28
    3538:	02 c0       	rjmp	.+4      	; 0x353e <_ZN5Print5writeEPKhj+0x42>
    353a:	21 96       	adiw	r28, 0x01	; 1
    353c:	ec cf       	rjmp	.-40     	; 0x3516 <_ZN5Print5writeEPKhj+0x1a>
    else break;
  }
  return n;
}
    353e:	c7 01       	movw	r24, r14
    3540:	df 91       	pop	r29
    3542:	cf 91       	pop	r28
    3544:	1f 91       	pop	r17
    3546:	0f 91       	pop	r16
    3548:	ff 90       	pop	r15
    354a:	ef 90       	pop	r14
    354c:	df 90       	pop	r13
    354e:	cf 90       	pop	r12
    3550:	08 95       	ret

00003552 <_Z4tonehjm>:


// frequency (in hertz) and duration (in milliseconds).

void tone(uint8_t _pin, unsigned int frequency, unsigned long duration)
{
    3552:	3f 92       	push	r3
    3554:	4f 92       	push	r4
    3556:	5f 92       	push	r5
    3558:	6f 92       	push	r6
    355a:	7f 92       	push	r7
    355c:	8f 92       	push	r8
    355e:	9f 92       	push	r9
    3560:	af 92       	push	r10
    3562:	bf 92       	push	r11
    3564:	cf 92       	push	r12
    3566:	df 92       	push	r13
    3568:	ef 92       	push	r14
    356a:	ff 92       	push	r15
    356c:	0f 93       	push	r16
    356e:	1f 93       	push	r17
    3570:	cf 93       	push	r28
    3572:	df 93       	push	r29
    3574:	00 d0       	rcall	.+0      	; 0x3576 <_Z4tonehjm+0x24>
    3576:	1f 92       	push	r1
    3578:	cd b7       	in	r28, 0x3d	; 61
    357a:	de b7       	in	r29, 0x3e	; 62
    357c:	29 01       	movw	r4, r18
    357e:	3a 01       	movw	r6, r20
{
  int8_t _timer = -1;

  // if we're already using the pin, the timer should be configured.  
  for (int i = 0; i < AVAILABLE_TONE_PINS; i++) {
    if (tone_pins[i] == _pin) {
    3580:	90 91 c7 02 	lds	r25, 0x02C7	; 0x8002c7 <_ZL9tone_pins>
    3584:	98 17       	cp	r25, r24
    3586:	21 f0       	breq	.+8      	; 0x3590 <_Z4tonehjm+0x3e>
    }
  }
  
  // search for an unused timer.
  for (int i = 0; i < AVAILABLE_TONE_PINS; i++) {
    if (tone_pins[i] == 255) {
    3588:	9f 3f       	cpi	r25, 0xFF	; 255
    358a:	09 f0       	breq	.+2      	; 0x358e <_Z4tonehjm+0x3c>
    358c:	25 c3       	rjmp	.+1610   	; 0x3bd8 <_Z4tonehjm+0x686>
    358e:	04 c0       	rjmp	.+8      	; 0x3598 <_Z4tonehjm+0x46>
  int8_t _timer = -1;

  // if we're already using the pin, the timer should be configured.  
  for (int i = 0; i < AVAILABLE_TONE_PINS; i++) {
    if (tone_pins[i] == _pin) {
      return pgm_read_byte(tone_pin_to_timer_PGM + i);
    3590:	e8 e6       	ldi	r30, 0x68	; 104
    3592:	f1 e0       	ldi	r31, 0x01	; 1
    3594:	34 90       	lpm	r3, Z
    3596:	04 c1       	rjmp	.+520    	; 0x37a0 <_Z4tonehjm+0x24e>
  }
  
  // search for an unused timer.
  for (int i = 0; i < AVAILABLE_TONE_PINS; i++) {
    if (tone_pins[i] == 255) {
      tone_pins[i] = _pin;
    3598:	80 93 c7 02 	sts	0x02C7, r24	; 0x8002c7 <_ZL9tone_pins>
      _timer = pgm_read_byte(tone_pin_to_timer_PGM + i);
    359c:	e8 e6       	ldi	r30, 0x68	; 104
    359e:	f1 e0       	ldi	r31, 0x01	; 1
    35a0:	e4 91       	lpm	r30, Z
      break;
    }
  }
  
  if (_timer != -1)
    35a2:	ef 3f       	cpi	r30, 0xFF	; 255
    35a4:	09 f4       	brne	.+2      	; 0x35a8 <_Z4tonehjm+0x56>
    35a6:	18 c3       	rjmp	.+1584   	; 0x3bd8 <_Z4tonehjm+0x686>
  {
    // Set timer specific stuff
    // All timers in CTC mode
    // 8 bit timers will require changing prescalar values,
    // whereas 16 bit timers are set to either ck/1 or ck/64 prescalar
    switch (_timer)
    35a8:	e2 30       	cpi	r30, 0x02	; 2
    35aa:	09 f4       	brne	.+2      	; 0x35ae <_Z4tonehjm+0x5c>
    35ac:	80 c0       	rjmp	.+256    	; 0x36ae <_Z4tonehjm+0x15c>
    35ae:	74 f5       	brge	.+92     	; 0x360c <_Z4tonehjm+0xba>
    35b0:	ee 23       	and	r30, r30
    35b2:	09 f4       	brne	.+2      	; 0x35b6 <_Z4tonehjm+0x64>
    35b4:	5b c0       	rjmp	.+182    	; 0x366c <_Z4tonehjm+0x11a>
    35b6:	e1 30       	cpi	r30, 0x01	; 1
    35b8:	09 f0       	breq	.+2      	; 0x35bc <_Z4tonehjm+0x6a>
    35ba:	f1 c0       	rjmp	.+482    	; 0x379e <_Z4tonehjm+0x24c>
      #endif

      #if defined(TCCR1A) && defined(TCCR1B) && defined(WGM12)
      case 1:
        // 16 bit timer
        TCCR1A = 0;
    35bc:	10 92 80 00 	sts	0x0080, r1	; 0x800080 <__TEXT_REGION_LENGTH__+0x700080>
        TCCR1B = 0;
    35c0:	10 92 81 00 	sts	0x0081, r1	; 0x800081 <__TEXT_REGION_LENGTH__+0x700081>
        bitWrite(TCCR1B, WGM12, 1);
    35c4:	90 91 81 00 	lds	r25, 0x0081	; 0x800081 <__TEXT_REGION_LENGTH__+0x700081>
    35c8:	98 60       	ori	r25, 0x08	; 8
    35ca:	90 93 81 00 	sts	0x0081, r25	; 0x800081 <__TEXT_REGION_LENGTH__+0x700081>
        bitWrite(TCCR1B, CS10, 1);
    35ce:	90 91 81 00 	lds	r25, 0x0081	; 0x800081 <__TEXT_REGION_LENGTH__+0x700081>
    35d2:	91 60       	ori	r25, 0x01	; 1
    35d4:	90 93 81 00 	sts	0x0081, r25	; 0x800081 <__TEXT_REGION_LENGTH__+0x700081>
        timer1_pin_port = portOutputRegister(digitalPinToPort(_pin));
    35d8:	28 2f       	mov	r18, r24
    35da:	30 e0       	ldi	r19, 0x00	; 0
    35dc:	f9 01       	movw	r30, r18
    35de:	eb 50       	subi	r30, 0x0B	; 11
    35e0:	fe 4f       	sbci	r31, 0xFE	; 254
    35e2:	e4 91       	lpm	r30, Z
    35e4:	f0 e0       	ldi	r31, 0x00	; 0
    35e6:	ee 0f       	add	r30, r30
    35e8:	ff 1f       	adc	r31, r31
    35ea:	e5 5c       	subi	r30, 0xC5	; 197
    35ec:	fd 4f       	sbci	r31, 0xFD	; 253
    35ee:	45 91       	lpm	r20, Z+
    35f0:	54 91       	lpm	r21, Z
    35f2:	50 93 54 06 	sts	0x0654, r21	; 0x800654 <timer1_pin_port+0x1>
    35f6:	40 93 53 06 	sts	0x0653, r20	; 0x800653 <timer1_pin_port>
        timer1_pin_mask = digitalPinToBitMask(_pin);
    35fa:	f9 01       	movw	r30, r18
    35fc:	e1 55       	subi	r30, 0x51	; 81
    35fe:	fe 4f       	sbci	r31, 0xFE	; 254
    3600:	e4 91       	lpm	r30, Z
    3602:	e0 93 52 06 	sts	0x0652, r30	; 0x800652 <timer1_pin_mask>
    3606:	33 24       	eor	r3, r3
    3608:	33 94       	inc	r3
    360a:	cc c0       	rjmp	.+408    	; 0x37a4 <_Z4tonehjm+0x252>
  {
    // Set timer specific stuff
    // All timers in CTC mode
    // 8 bit timers will require changing prescalar values,
    // whereas 16 bit timers are set to either ck/1 or ck/64 prescalar
    switch (_timer)
    360c:	e4 30       	cpi	r30, 0x04	; 4
    360e:	09 f4       	brne	.+2      	; 0x3612 <_Z4tonehjm+0xc0>
    3610:	9e c0       	rjmp	.+316    	; 0x374e <_Z4tonehjm+0x1fc>
    3612:	0c f4       	brge	.+2      	; 0x3616 <_Z4tonehjm+0xc4>
    3614:	74 c0       	rjmp	.+232    	; 0x36fe <_Z4tonehjm+0x1ac>
    3616:	e5 30       	cpi	r30, 0x05	; 5
    3618:	09 f0       	breq	.+2      	; 0x361c <_Z4tonehjm+0xca>
    361a:	c1 c0       	rjmp	.+386    	; 0x379e <_Z4tonehjm+0x24c>
      #endif

      #if defined(TCCR5A) && defined(TCCR5B) &&  defined(TIMSK5)
      case 5:
        // 16 bit timer
        TCCR5A = 0;
    361c:	10 92 20 01 	sts	0x0120, r1	; 0x800120 <__TEXT_REGION_LENGTH__+0x700120>
        TCCR5B = 0;
    3620:	10 92 21 01 	sts	0x0121, r1	; 0x800121 <__TEXT_REGION_LENGTH__+0x700121>
        bitWrite(TCCR5B, WGM52, 1);
    3624:	90 91 21 01 	lds	r25, 0x0121	; 0x800121 <__TEXT_REGION_LENGTH__+0x700121>
    3628:	98 60       	ori	r25, 0x08	; 8
    362a:	90 93 21 01 	sts	0x0121, r25	; 0x800121 <__TEXT_REGION_LENGTH__+0x700121>
        bitWrite(TCCR5B, CS50, 1);
    362e:	90 91 21 01 	lds	r25, 0x0121	; 0x800121 <__TEXT_REGION_LENGTH__+0x700121>
    3632:	91 60       	ori	r25, 0x01	; 1
    3634:	90 93 21 01 	sts	0x0121, r25	; 0x800121 <__TEXT_REGION_LENGTH__+0x700121>
        timer5_pin_port = portOutputRegister(digitalPinToPort(_pin));
    3638:	48 2f       	mov	r20, r24
    363a:	50 e0       	ldi	r21, 0x00	; 0
    363c:	fa 01       	movw	r30, r20
    363e:	eb 50       	subi	r30, 0x0B	; 11
    3640:	fe 4f       	sbci	r31, 0xFE	; 254
    3642:	e4 91       	lpm	r30, Z
    3644:	f0 e0       	ldi	r31, 0x00	; 0
    3646:	ee 0f       	add	r30, r30
    3648:	ff 1f       	adc	r31, r31
    364a:	e5 5c       	subi	r30, 0xC5	; 197
    364c:	fd 4f       	sbci	r31, 0xFD	; 253
    364e:	25 91       	lpm	r18, Z+
    3650:	34 91       	lpm	r19, Z
    3652:	30 93 38 06 	sts	0x0638, r19	; 0x800638 <timer5_pin_port+0x1>
    3656:	20 93 37 06 	sts	0x0637, r18	; 0x800637 <timer5_pin_port>
        timer5_pin_mask = digitalPinToBitMask(_pin);
    365a:	fa 01       	movw	r30, r20
    365c:	e1 55       	subi	r30, 0x51	; 81
    365e:	fe 4f       	sbci	r31, 0xFE	; 254
    3660:	e4 91       	lpm	r30, Z
    3662:	e0 93 36 06 	sts	0x0636, r30	; 0x800636 <timer5_pin_mask>
    3666:	b5 e0       	ldi	r27, 0x05	; 5
    3668:	3b 2e       	mov	r3, r27
    366a:	9c c0       	rjmp	.+312    	; 0x37a4 <_Z4tonehjm+0x252>
    switch (_timer)
    {
      #if defined(TCCR0A) && defined(TCCR0B) && defined(WGM01)
      case 0:
        // 8 bit timer
        TCCR0A = 0;
    366c:	14 bc       	out	0x24, r1	; 36
        TCCR0B = 0;
    366e:	15 bc       	out	0x25, r1	; 37
        bitWrite(TCCR0A, WGM01, 1);
    3670:	94 b5       	in	r25, 0x24	; 36
    3672:	92 60       	ori	r25, 0x02	; 2
    3674:	94 bd       	out	0x24, r25	; 36
        bitWrite(TCCR0B, CS00, 1);
    3676:	95 b5       	in	r25, 0x25	; 37
    3678:	91 60       	ori	r25, 0x01	; 1
    367a:	95 bd       	out	0x25, r25	; 37
        timer0_pin_port = portOutputRegister(digitalPinToPort(_pin));
    367c:	28 2f       	mov	r18, r24
    367e:	30 e0       	ldi	r19, 0x00	; 0
    3680:	f9 01       	movw	r30, r18
    3682:	eb 50       	subi	r30, 0x0B	; 11
    3684:	fe 4f       	sbci	r31, 0xFE	; 254
    3686:	e4 91       	lpm	r30, Z
    3688:	f0 e0       	ldi	r31, 0x00	; 0
    368a:	ee 0f       	add	r30, r30
    368c:	ff 1f       	adc	r31, r31
    368e:	e5 5c       	subi	r30, 0xC5	; 197
    3690:	fd 4f       	sbci	r31, 0xFD	; 253
    3692:	45 91       	lpm	r20, Z+
    3694:	54 91       	lpm	r21, Z
    3696:	50 93 5b 06 	sts	0x065B, r21	; 0x80065b <timer0_pin_port+0x1>
    369a:	40 93 5a 06 	sts	0x065A, r20	; 0x80065a <timer0_pin_port>
        timer0_pin_mask = digitalPinToBitMask(_pin);
    369e:	f9 01       	movw	r30, r18
    36a0:	e1 55       	subi	r30, 0x51	; 81
    36a2:	fe 4f       	sbci	r31, 0xFE	; 254
    36a4:	e4 91       	lpm	r30, Z
    36a6:	e0 93 59 06 	sts	0x0659, r30	; 0x800659 <timer0_pin_mask>
    36aa:	31 2c       	mov	r3, r1
    36ac:	7b c0       	rjmp	.+246    	; 0x37a4 <_Z4tonehjm+0x252>
      #endif

      #if defined(TCCR2A) && defined(TCCR2B)
      case 2:
        // 8 bit timer
        TCCR2A = 0;
    36ae:	10 92 b0 00 	sts	0x00B0, r1	; 0x8000b0 <__TEXT_REGION_LENGTH__+0x7000b0>
        TCCR2B = 0;
    36b2:	10 92 b1 00 	sts	0x00B1, r1	; 0x8000b1 <__TEXT_REGION_LENGTH__+0x7000b1>
        bitWrite(TCCR2A, WGM21, 1);
    36b6:	90 91 b0 00 	lds	r25, 0x00B0	; 0x8000b0 <__TEXT_REGION_LENGTH__+0x7000b0>
    36ba:	92 60       	ori	r25, 0x02	; 2
    36bc:	90 93 b0 00 	sts	0x00B0, r25	; 0x8000b0 <__TEXT_REGION_LENGTH__+0x7000b0>
        bitWrite(TCCR2B, CS20, 1);
    36c0:	90 91 b1 00 	lds	r25, 0x00B1	; 0x8000b1 <__TEXT_REGION_LENGTH__+0x7000b1>
    36c4:	91 60       	ori	r25, 0x01	; 1
    36c6:	90 93 b1 00 	sts	0x00B1, r25	; 0x8000b1 <__TEXT_REGION_LENGTH__+0x7000b1>
        timer2_pin_port = portOutputRegister(digitalPinToPort(_pin));
    36ca:	28 2f       	mov	r18, r24
    36cc:	30 e0       	ldi	r19, 0x00	; 0
    36ce:	f9 01       	movw	r30, r18
    36d0:	eb 50       	subi	r30, 0x0B	; 11
    36d2:	fe 4f       	sbci	r31, 0xFE	; 254
    36d4:	e4 91       	lpm	r30, Z
    36d6:	f0 e0       	ldi	r31, 0x00	; 0
    36d8:	ee 0f       	add	r30, r30
    36da:	ff 1f       	adc	r31, r31
    36dc:	e5 5c       	subi	r30, 0xC5	; 197
    36de:	fd 4f       	sbci	r31, 0xFD	; 253
    36e0:	45 91       	lpm	r20, Z+
    36e2:	54 91       	lpm	r21, Z
    36e4:	50 93 4d 06 	sts	0x064D, r21	; 0x80064d <timer2_pin_port+0x1>
    36e8:	40 93 4c 06 	sts	0x064C, r20	; 0x80064c <timer2_pin_port>
        timer2_pin_mask = digitalPinToBitMask(_pin);
    36ec:	f9 01       	movw	r30, r18
    36ee:	e1 55       	subi	r30, 0x51	; 81
    36f0:	fe 4f       	sbci	r31, 0xFE	; 254
    36f2:	e4 91       	lpm	r30, Z
    36f4:	e0 93 4b 06 	sts	0x064B, r30	; 0x80064b <timer2_pin_mask>
    36f8:	52 e0       	ldi	r21, 0x02	; 2
    36fa:	35 2e       	mov	r3, r21
    36fc:	53 c0       	rjmp	.+166    	; 0x37a4 <_Z4tonehjm+0x252>
      #endif

      #if defined(TCCR3A) && defined(TCCR3B) &&  defined(TIMSK3)
      case 3:
        // 16 bit timer
        TCCR3A = 0;
    36fe:	10 92 90 00 	sts	0x0090, r1	; 0x800090 <__TEXT_REGION_LENGTH__+0x700090>
        TCCR3B = 0;
    3702:	10 92 91 00 	sts	0x0091, r1	; 0x800091 <__TEXT_REGION_LENGTH__+0x700091>
        bitWrite(TCCR3B, WGM32, 1);
    3706:	90 91 91 00 	lds	r25, 0x0091	; 0x800091 <__TEXT_REGION_LENGTH__+0x700091>
    370a:	98 60       	ori	r25, 0x08	; 8
    370c:	90 93 91 00 	sts	0x0091, r25	; 0x800091 <__TEXT_REGION_LENGTH__+0x700091>
        bitWrite(TCCR3B, CS30, 1);
    3710:	90 91 91 00 	lds	r25, 0x0091	; 0x800091 <__TEXT_REGION_LENGTH__+0x700091>
    3714:	91 60       	ori	r25, 0x01	; 1
    3716:	90 93 91 00 	sts	0x0091, r25	; 0x800091 <__TEXT_REGION_LENGTH__+0x700091>
        timer3_pin_port = portOutputRegister(digitalPinToPort(_pin));
    371a:	28 2f       	mov	r18, r24
    371c:	30 e0       	ldi	r19, 0x00	; 0
    371e:	f9 01       	movw	r30, r18
    3720:	eb 50       	subi	r30, 0x0B	; 11
    3722:	fe 4f       	sbci	r31, 0xFE	; 254
    3724:	e4 91       	lpm	r30, Z
    3726:	f0 e0       	ldi	r31, 0x00	; 0
    3728:	ee 0f       	add	r30, r30
    372a:	ff 1f       	adc	r31, r31
    372c:	e5 5c       	subi	r30, 0xC5	; 197
    372e:	fd 4f       	sbci	r31, 0xFD	; 253
    3730:	45 91       	lpm	r20, Z+
    3732:	54 91       	lpm	r21, Z
    3734:	50 93 46 06 	sts	0x0646, r21	; 0x800646 <timer3_pin_port+0x1>
    3738:	40 93 45 06 	sts	0x0645, r20	; 0x800645 <timer3_pin_port>
        timer3_pin_mask = digitalPinToBitMask(_pin);
    373c:	f9 01       	movw	r30, r18
    373e:	e1 55       	subi	r30, 0x51	; 81
    3740:	fe 4f       	sbci	r31, 0xFE	; 254
    3742:	e4 91       	lpm	r30, Z
    3744:	e0 93 44 06 	sts	0x0644, r30	; 0x800644 <timer3_pin_mask>
    3748:	23 e0       	ldi	r18, 0x03	; 3
    374a:	32 2e       	mov	r3, r18
    374c:	2b c0       	rjmp	.+86     	; 0x37a4 <_Z4tonehjm+0x252>
      #endif

      #if defined(TCCR4A) && defined(TCCR4B) &&  defined(TIMSK4)
      case 4:
        // 16 bit timer
        TCCR4A = 0;
    374e:	10 92 a0 00 	sts	0x00A0, r1	; 0x8000a0 <__TEXT_REGION_LENGTH__+0x7000a0>
        TCCR4B = 0;
    3752:	10 92 a1 00 	sts	0x00A1, r1	; 0x8000a1 <__TEXT_REGION_LENGTH__+0x7000a1>
        #if defined(WGM42)
          bitWrite(TCCR4B, WGM42, 1);
    3756:	90 91 a1 00 	lds	r25, 0x00A1	; 0x8000a1 <__TEXT_REGION_LENGTH__+0x7000a1>
    375a:	98 60       	ori	r25, 0x08	; 8
    375c:	90 93 a1 00 	sts	0x00A1, r25	; 0x8000a1 <__TEXT_REGION_LENGTH__+0x7000a1>
        #elif defined(CS43)
          // TODO this may not be correct
          // atmega32u4
          bitWrite(TCCR4B, CS43, 1);
        #endif
        bitWrite(TCCR4B, CS40, 1);
    3760:	90 91 a1 00 	lds	r25, 0x00A1	; 0x8000a1 <__TEXT_REGION_LENGTH__+0x7000a1>
    3764:	91 60       	ori	r25, 0x01	; 1
    3766:	90 93 a1 00 	sts	0x00A1, r25	; 0x8000a1 <__TEXT_REGION_LENGTH__+0x7000a1>
        timer4_pin_port = portOutputRegister(digitalPinToPort(_pin));
    376a:	28 2f       	mov	r18, r24
    376c:	30 e0       	ldi	r19, 0x00	; 0
    376e:	f9 01       	movw	r30, r18
    3770:	eb 50       	subi	r30, 0x0B	; 11
    3772:	fe 4f       	sbci	r31, 0xFE	; 254
    3774:	e4 91       	lpm	r30, Z
    3776:	f0 e0       	ldi	r31, 0x00	; 0
    3778:	ee 0f       	add	r30, r30
    377a:	ff 1f       	adc	r31, r31
    377c:	e5 5c       	subi	r30, 0xC5	; 197
    377e:	fd 4f       	sbci	r31, 0xFD	; 253
    3780:	45 91       	lpm	r20, Z+
    3782:	54 91       	lpm	r21, Z
    3784:	50 93 3f 06 	sts	0x063F, r21	; 0x80063f <timer4_pin_port+0x1>
    3788:	40 93 3e 06 	sts	0x063E, r20	; 0x80063e <timer4_pin_port>
        timer4_pin_mask = digitalPinToBitMask(_pin);
    378c:	f9 01       	movw	r30, r18
    378e:	e1 55       	subi	r30, 0x51	; 81
    3790:	fe 4f       	sbci	r31, 0xFE	; 254
    3792:	e4 91       	lpm	r30, Z
    3794:	e0 93 3d 06 	sts	0x063D, r30	; 0x80063d <timer4_pin_mask>
    3798:	04 e0       	ldi	r16, 0x04	; 4
    379a:	30 2e       	mov	r3, r16
    379c:	03 c0       	rjmp	.+6      	; 0x37a4 <_Z4tonehjm+0x252>
  {
    // Set timer specific stuff
    // All timers in CTC mode
    // 8 bit timers will require changing prescalar values,
    // whereas 16 bit timers are set to either ck/1 or ck/64 prescalar
    switch (_timer)
    379e:	3e 2e       	mov	r3, r30
  uint32_t ocr = 0;
  int8_t _timer;

  _timer = toneBegin(_pin);

  if (_timer >= 0)
    37a0:	37 fc       	sbrc	r3, 7
    37a2:	1a c2       	rjmp	.+1076   	; 0x3bd8 <_Z4tonehjm+0x686>
    37a4:	8b 01       	movw	r16, r22
  {
    // Set the pinMode as OUTPUT
    pinMode(_pin, OUTPUT);
    37a6:	61 e0       	ldi	r22, 0x01	; 1
    37a8:	79 d6       	rcall	.+3314   	; 0x449c <pinMode>
    37aa:	48 01       	movw	r8, r16
    37ac:	a1 2c       	mov	r10, r1
    37ae:	b1 2c       	mov	r11, r1
    
    // if we are using an 8 bit timer, scan through prescalars to find the best fit
    if (_timer == 0 || _timer == 2)
    37b0:	83 2d       	mov	r24, r3
    37b2:	8d 7f       	andi	r24, 0xFD	; 253
    37b4:	09 f0       	breq	.+2      	; 0x37b8 <_Z4tonehjm+0x266>
    37b6:	b5 c0       	rjmp	.+362    	; 0x3922 <_Z4tonehjm+0x3d0>
    {
      ocr = F_CPU / frequency / 2 - 1;
    37b8:	60 e0       	ldi	r22, 0x00	; 0
    37ba:	72 e1       	ldi	r23, 0x12	; 18
    37bc:	8a e7       	ldi	r24, 0x7A	; 122
    37be:	90 e0       	ldi	r25, 0x00	; 0
    37c0:	a5 01       	movw	r20, r10
    37c2:	94 01       	movw	r18, r8
    37c4:	5a d7       	rcall	.+3764   	; 0x467a <__divmodsi4>
    37c6:	29 83       	std	Y+1, r18	; 0x01
    37c8:	3a 83       	std	Y+2, r19	; 0x02
    37ca:	4b 83       	std	Y+3, r20	; 0x03
    37cc:	5c 83       	std	Y+4, r21	; 0x04
    37ce:	69 01       	movw	r12, r18
    37d0:	7a 01       	movw	r14, r20
    37d2:	21 e0       	ldi	r18, 0x01	; 1
    37d4:	c2 1a       	sub	r12, r18
    37d6:	d1 08       	sbc	r13, r1
    37d8:	e1 08       	sbc	r14, r1
    37da:	f1 08       	sbc	r15, r1
      prescalarbits = 0b001;  // ck/1: same for both timers
      if (ocr > 255)
    37dc:	8f ef       	ldi	r24, 0xFF	; 255
    37de:	c8 16       	cp	r12, r24
    37e0:	d1 04       	cpc	r13, r1
    37e2:	e1 04       	cpc	r14, r1
    37e4:	f1 04       	cpc	r15, r1
    37e6:	09 f0       	breq	.+2      	; 0x37ea <_Z4tonehjm+0x298>
    37e8:	08 f4       	brcc	.+2      	; 0x37ec <_Z4tonehjm+0x29a>
    37ea:	49 c0       	rjmp	.+146    	; 0x387e <_Z4tonehjm+0x32c>
      {
        ocr = F_CPU / frequency / 2 / 8 - 1;
    37ec:	60 e4       	ldi	r22, 0x40	; 64
    37ee:	72 e4       	ldi	r23, 0x42	; 66
    37f0:	8f e0       	ldi	r24, 0x0F	; 15
    37f2:	90 e0       	ldi	r25, 0x00	; 0
    37f4:	a5 01       	movw	r20, r10
    37f6:	94 01       	movw	r18, r8
    37f8:	40 d7       	rcall	.+3712   	; 0x467a <__divmodsi4>
    37fa:	69 01       	movw	r12, r18
    37fc:	7a 01       	movw	r14, r20
    37fe:	91 e0       	ldi	r25, 0x01	; 1
    3800:	c9 1a       	sub	r12, r25
    3802:	d1 08       	sbc	r13, r1
    3804:	e1 08       	sbc	r14, r1
    3806:	f1 08       	sbc	r15, r1
        prescalarbits = 0b010;  // ck/8: same for both timers

        if (_timer == 2 && ocr > 255)
    3808:	e2 e0       	ldi	r30, 0x02	; 2
    380a:	3e 12       	cpse	r3, r30
    380c:	1f c0       	rjmp	.+62     	; 0x384c <_Z4tonehjm+0x2fa>
    380e:	ff ef       	ldi	r31, 0xFF	; 255
    3810:	cf 16       	cp	r12, r31
    3812:	d1 04       	cpc	r13, r1
    3814:	e1 04       	cpc	r14, r1
    3816:	f1 04       	cpc	r15, r1
    3818:	09 f0       	breq	.+2      	; 0x381c <_Z4tonehjm+0x2ca>
    381a:	08 f4       	brcc	.+2      	; 0x381e <_Z4tonehjm+0x2cc>
    381c:	db c1       	rjmp	.+950    	; 0x3bd4 <_Z4tonehjm+0x682>
        {
          ocr = F_CPU / frequency / 2 / 32 - 1;
    381e:	60 e9       	ldi	r22, 0x90	; 144
    3820:	70 ed       	ldi	r23, 0xD0	; 208
    3822:	83 e0       	ldi	r24, 0x03	; 3
    3824:	90 e0       	ldi	r25, 0x00	; 0
    3826:	a5 01       	movw	r20, r10
    3828:	94 01       	movw	r18, r8
    382a:	27 d7       	rcall	.+3662   	; 0x467a <__divmodsi4>
    382c:	69 01       	movw	r12, r18
    382e:	7a 01       	movw	r14, r20
    3830:	81 e0       	ldi	r24, 0x01	; 1
    3832:	c8 1a       	sub	r12, r24
    3834:	d1 08       	sbc	r13, r1
    3836:	e1 08       	sbc	r14, r1
    3838:	f1 08       	sbc	r15, r1
          prescalarbits = 0b011;
        }

        if (ocr > 255)
    383a:	9f ef       	ldi	r25, 0xFF	; 255
    383c:	c9 16       	cp	r12, r25
    383e:	d1 04       	cpc	r13, r1
    3840:	e1 04       	cpc	r14, r1
    3842:	f1 04       	cpc	r15, r1
    3844:	09 f0       	breq	.+2      	; 0x3848 <_Z4tonehjm+0x2f6>
    3846:	c8 f5       	brcc	.+114    	; 0x38ba <_Z4tonehjm+0x368>
        prescalarbits = 0b010;  // ck/8: same for both timers

        if (_timer == 2 && ocr > 255)
        {
          ocr = F_CPU / frequency / 2 / 32 - 1;
          prescalarbits = 0b011;
    3848:	83 e0       	ldi	r24, 0x03	; 3
    384a:	64 c0       	rjmp	.+200    	; 0x3914 <_Z4tonehjm+0x3c2>
        }

        if (ocr > 255)
    384c:	ef ef       	ldi	r30, 0xFF	; 255
    384e:	ce 16       	cp	r12, r30
    3850:	d1 04       	cpc	r13, r1
    3852:	e1 04       	cpc	r14, r1
    3854:	f1 04       	cpc	r15, r1
    3856:	a9 f0       	breq	.+42     	; 0x3882 <_Z4tonehjm+0x330>
    3858:	a0 f0       	brcs	.+40     	; 0x3882 <_Z4tonehjm+0x330>
        {
          ocr = F_CPU / frequency / 2 / 64 - 1;
    385a:	68 e4       	ldi	r22, 0x48	; 72
    385c:	78 ee       	ldi	r23, 0xE8	; 232
    385e:	81 e0       	ldi	r24, 0x01	; 1
    3860:	90 e0       	ldi	r25, 0x00	; 0
    3862:	a5 01       	movw	r20, r10
    3864:	94 01       	movw	r18, r8
    3866:	09 d7       	rcall	.+3602   	; 0x467a <__divmodsi4>
    3868:	69 01       	movw	r12, r18
    386a:	7a 01       	movw	r14, r20
    386c:	f1 e0       	ldi	r31, 0x01	; 1
    386e:	cf 1a       	sub	r12, r31
    3870:	d1 08       	sbc	r13, r1
    3872:	e1 08       	sbc	r14, r1
    3874:	f1 08       	sbc	r15, r1
          prescalarbits = _timer == 0 ? 0b011 : 0b100;
    3876:	33 20       	and	r3, r3
    3878:	09 f4       	brne	.+2      	; 0x387c <_Z4tonehjm+0x32a>
    387a:	54 c1       	rjmp	.+680    	; 0x3b24 <_Z4tonehjm+0x5d2>
    387c:	a2 c1       	rjmp	.+836    	; 0x3bc2 <_Z4tonehjm+0x670>
    
    // if we are using an 8 bit timer, scan through prescalars to find the best fit
    if (_timer == 0 || _timer == 2)
    {
      ocr = F_CPU / frequency / 2 - 1;
      prescalarbits = 0b001;  // ck/1: same for both timers
    387e:	81 e0       	ldi	r24, 0x01	; 1
    3880:	01 c0       	rjmp	.+2      	; 0x3884 <_Z4tonehjm+0x332>
      if (ocr > 255)
      {
        ocr = F_CPU / frequency / 2 / 8 - 1;
        prescalarbits = 0b010;  // ck/8: same for both timers
    3882:	82 e0       	ldi	r24, 0x02	; 2
          }
        }
      }

#if defined(TCCR0B)
      if (_timer == 0)
    3884:	33 20       	and	r3, r3
    3886:	a1 f0       	breq	.+40     	; 0x38b0 <_Z4tonehjm+0x35e>
    3888:	45 c0       	rjmp	.+138    	; 0x3914 <_Z4tonehjm+0x3c2>
            ocr = F_CPU / frequency / 2 / 256 - 1;
            prescalarbits = _timer == 0 ? 0b100 : 0b110;
            if (ocr > 255)
            {
              // can't do any better than /1024
              ocr = F_CPU / frequency / 2 / 1024 - 1;
    388a:	89 81       	ldd	r24, Y+1	; 0x01
    388c:	9a 81       	ldd	r25, Y+2	; 0x02
    388e:	ab 81       	ldd	r26, Y+3	; 0x03
    3890:	bc 81       	ldd	r27, Y+4	; 0x04
    3892:	2a e0       	ldi	r18, 0x0A	; 10
    3894:	b5 95       	asr	r27
    3896:	a7 95       	ror	r26
    3898:	97 95       	ror	r25
    389a:	87 95       	ror	r24
    389c:	2a 95       	dec	r18
    389e:	d1 f7       	brne	.-12     	; 0x3894 <_Z4tonehjm+0x342>
    38a0:	6c 01       	movw	r12, r24
    38a2:	7d 01       	movw	r14, r26
    38a4:	f1 e0       	ldi	r31, 0x01	; 1
    38a6:	cf 1a       	sub	r12, r31
    38a8:	d1 08       	sbc	r13, r1
    38aa:	e1 08       	sbc	r14, r1
    38ac:	f1 08       	sbc	r15, r1
              prescalarbits = _timer == 0 ? 0b101 : 0b111;
    38ae:	85 e0       	ldi	r24, 0x05	; 5
      }

#if defined(TCCR0B)
      if (_timer == 0)
      {
        TCCR0B = (TCCR0B & 0b11111000) | prescalarbits;
    38b0:	95 b5       	in	r25, 0x25	; 37
    38b2:	98 7f       	andi	r25, 0xF8	; 248
    38b4:	89 2b       	or	r24, r25
    38b6:	85 bd       	out	0x25, r24	; 37
    38b8:	a2 c0       	rjmp	.+324    	; 0x39fe <_Z4tonehjm+0x4ac>
          prescalarbits = 0b011;
        }

        if (ocr > 255)
        {
          ocr = F_CPU / frequency / 2 / 64 - 1;
    38ba:	68 e4       	ldi	r22, 0x48	; 72
    38bc:	78 ee       	ldi	r23, 0xE8	; 232
    38be:	81 e0       	ldi	r24, 0x01	; 1
    38c0:	90 e0       	ldi	r25, 0x00	; 0
    38c2:	a5 01       	movw	r20, r10
    38c4:	94 01       	movw	r18, r8
    38c6:	d9 d6       	rcall	.+3506   	; 0x467a <__divmodsi4>
    38c8:	69 01       	movw	r12, r18
    38ca:	7a 01       	movw	r14, r20
    38cc:	81 e0       	ldi	r24, 0x01	; 1
    38ce:	c8 1a       	sub	r12, r24
    38d0:	d1 08       	sbc	r13, r1
    38d2:	e1 08       	sbc	r14, r1
    38d4:	f1 08       	sbc	r15, r1
          prescalarbits = _timer == 0 ? 0b011 : 0b100;

          if (_timer == 2 && ocr > 255)
    38d6:	9f ef       	ldi	r25, 0xFF	; 255
    38d8:	c9 16       	cp	r12, r25
    38da:	d1 04       	cpc	r13, r1
    38dc:	e1 04       	cpc	r14, r1
    38de:	f1 04       	cpc	r15, r1
    38e0:	09 f0       	breq	.+2      	; 0x38e4 <_Z4tonehjm+0x392>
    38e2:	08 f4       	brcc	.+2      	; 0x38e6 <_Z4tonehjm+0x394>
    38e4:	1d c1       	rjmp	.+570    	; 0x3b20 <_Z4tonehjm+0x5ce>
          {
            ocr = F_CPU / frequency / 2 / 128 - 1;
    38e6:	64 e2       	ldi	r22, 0x24	; 36
    38e8:	74 ef       	ldi	r23, 0xF4	; 244
    38ea:	80 e0       	ldi	r24, 0x00	; 0
    38ec:	90 e0       	ldi	r25, 0x00	; 0
    38ee:	a5 01       	movw	r20, r10
    38f0:	94 01       	movw	r18, r8
    38f2:	c3 d6       	rcall	.+3462   	; 0x467a <__divmodsi4>
    38f4:	69 01       	movw	r12, r18
    38f6:	7a 01       	movw	r14, r20
    38f8:	81 e0       	ldi	r24, 0x01	; 1
    38fa:	c8 1a       	sub	r12, r24
    38fc:	d1 08       	sbc	r13, r1
    38fe:	e1 08       	sbc	r14, r1
    3900:	f1 08       	sbc	r15, r1
            prescalarbits = 0b101;
          }

          if (ocr > 255)
    3902:	9f ef       	ldi	r25, 0xFF	; 255
    3904:	c9 16       	cp	r12, r25
    3906:	d1 04       	cpc	r13, r1
    3908:	e1 04       	cpc	r14, r1
    390a:	f1 04       	cpc	r15, r1
    390c:	11 f0       	breq	.+4      	; 0x3912 <_Z4tonehjm+0x3c0>
    390e:	08 f0       	brcs	.+2      	; 0x3912 <_Z4tonehjm+0x3c0>
    3910:	2a c1       	rjmp	.+596    	; 0x3b66 <_Z4tonehjm+0x614>
          prescalarbits = _timer == 0 ? 0b011 : 0b100;

          if (_timer == 2 && ocr > 255)
          {
            ocr = F_CPU / frequency / 2 / 128 - 1;
            prescalarbits = 0b101;
    3912:	85 e0       	ldi	r24, 0x05	; 5
      }
      else
#endif
#if defined(TCCR2B)
      {
        TCCR2B = (TCCR2B & 0b11111000) | prescalarbits;
    3914:	90 91 b1 00 	lds	r25, 0x00B1	; 0x8000b1 <__TEXT_REGION_LENGTH__+0x7000b1>
    3918:	98 7f       	andi	r25, 0xF8	; 248
    391a:	89 2b       	or	r24, r25
    391c:	80 93 b1 00 	sts	0x00B1, r24	; 0x8000b1 <__TEXT_REGION_LENGTH__+0x7000b1>
    3920:	6e c0       	rjmp	.+220    	; 0x39fe <_Z4tonehjm+0x4ac>
#endif
    }
    else
    {
      // two choices for the 16 bit timers: ck/1 or ck/64
      ocr = F_CPU / frequency / 2 - 1;
    3922:	60 e0       	ldi	r22, 0x00	; 0
    3924:	72 e1       	ldi	r23, 0x12	; 18
    3926:	8a e7       	ldi	r24, 0x7A	; 122
    3928:	90 e0       	ldi	r25, 0x00	; 0
    392a:	a5 01       	movw	r20, r10
    392c:	94 01       	movw	r18, r8
    392e:	a5 d6       	rcall	.+3402   	; 0x467a <__divmodsi4>
    3930:	69 01       	movw	r12, r18
    3932:	7a 01       	movw	r14, r20
    3934:	f1 e0       	ldi	r31, 0x01	; 1
    3936:	cf 1a       	sub	r12, r31
    3938:	d1 08       	sbc	r13, r1
    393a:	e1 08       	sbc	r14, r1
    393c:	f1 08       	sbc	r15, r1

      prescalarbits = 0b001;
      if (ocr > 0xffff)
    393e:	c1 14       	cp	r12, r1
    3940:	d1 04       	cpc	r13, r1
    3942:	21 e0       	ldi	r18, 0x01	; 1
    3944:	e2 06       	cpc	r14, r18
    3946:	f1 04       	cpc	r15, r1
    3948:	80 f0       	brcs	.+32     	; 0x396a <_Z4tonehjm+0x418>
      {
        ocr = F_CPU / frequency / 2 / 64 - 1;
    394a:	68 e4       	ldi	r22, 0x48	; 72
    394c:	78 ee       	ldi	r23, 0xE8	; 232
    394e:	81 e0       	ldi	r24, 0x01	; 1
    3950:	90 e0       	ldi	r25, 0x00	; 0
    3952:	a5 01       	movw	r20, r10
    3954:	94 01       	movw	r18, r8
    3956:	91 d6       	rcall	.+3362   	; 0x467a <__divmodsi4>
    3958:	69 01       	movw	r12, r18
    395a:	7a 01       	movw	r14, r20
    395c:	81 e0       	ldi	r24, 0x01	; 1
    395e:	c8 1a       	sub	r12, r24
    3960:	d1 08       	sbc	r13, r1
    3962:	e1 08       	sbc	r14, r1
    3964:	f1 08       	sbc	r15, r1
        prescalarbits = 0b011;
    3966:	83 e0       	ldi	r24, 0x03	; 3
    3968:	01 c0       	rjmp	.+2      	; 0x396c <_Z4tonehjm+0x41a>
    else
    {
      // two choices for the 16 bit timers: ck/1 or ck/64
      ocr = F_CPU / frequency / 2 - 1;

      prescalarbits = 0b001;
    396a:	81 e0       	ldi	r24, 0x01	; 1
      {
        ocr = F_CPU / frequency / 2 / 64 - 1;
        prescalarbits = 0b011;
      }

      if (_timer == 1)
    396c:	91 e0       	ldi	r25, 0x01	; 1
    396e:	39 12       	cpse	r3, r25
    3970:	10 c0       	rjmp	.+32     	; 0x3992 <_Z4tonehjm+0x440>
      {
#if defined(TCCR1B)
        TCCR1B = (TCCR1B & 0b11111000) | prescalarbits;
    3972:	90 91 81 00 	lds	r25, 0x0081	; 0x800081 <__TEXT_REGION_LENGTH__+0x700081>
    3976:	98 7f       	andi	r25, 0xF8	; 248
    3978:	89 2b       	or	r24, r25
    397a:	80 93 81 00 	sts	0x0081, r24	; 0x800081 <__TEXT_REGION_LENGTH__+0x700081>

    }
    

    // Calculate the toggle count
    if (duration > 0)
    397e:	41 14       	cp	r4, r1
    3980:	51 04       	cpc	r5, r1
    3982:	61 04       	cpc	r6, r1
    3984:	71 04       	cpc	r7, r1
    3986:	09 f0       	breq	.+2      	; 0x398a <_Z4tonehjm+0x438>
    3988:	3f c0       	rjmp	.+126    	; 0x3a08 <_Z4tonehjm+0x4b6>
    {
      toggle_count = 2 * frequency * duration / 1000;
    }
    else
    {
      toggle_count = -1;
    398a:	2f ef       	ldi	r18, 0xFF	; 255
    398c:	3f ef       	ldi	r19, 0xFF	; 255
    398e:	a9 01       	movw	r20, r18
    3990:	6f c0       	rjmp	.+222    	; 0x3a70 <_Z4tonehjm+0x51e>
#if defined(TCCR1B)
        TCCR1B = (TCCR1B & 0b11111000) | prescalarbits;
#endif
      }
#if defined(TCCR3B)
      else if (_timer == 3)
    3992:	e3 e0       	ldi	r30, 0x03	; 3
    3994:	3e 12       	cpse	r3, r30
    3996:	0f c0       	rjmp	.+30     	; 0x39b6 <_Z4tonehjm+0x464>
        TCCR3B = (TCCR3B & 0b11111000) | prescalarbits;
    3998:	90 91 91 00 	lds	r25, 0x0091	; 0x800091 <__TEXT_REGION_LENGTH__+0x700091>
    399c:	98 7f       	andi	r25, 0xF8	; 248
    399e:	89 2b       	or	r24, r25
    39a0:	80 93 91 00 	sts	0x0091, r24	; 0x800091 <__TEXT_REGION_LENGTH__+0x700091>

    }
    

    // Calculate the toggle count
    if (duration > 0)
    39a4:	41 14       	cp	r4, r1
    39a6:	51 04       	cpc	r5, r1
    39a8:	61 04       	cpc	r6, r1
    39aa:	71 04       	cpc	r7, r1
    39ac:	69 f5       	brne	.+90     	; 0x3a08 <_Z4tonehjm+0x4b6>
    {
      toggle_count = 2 * frequency * duration / 1000;
    }
    else
    {
      toggle_count = -1;
    39ae:	2f ef       	ldi	r18, 0xFF	; 255
    39b0:	3f ef       	ldi	r19, 0xFF	; 255
    39b2:	a9 01       	movw	r20, r18
    39b4:	7f c0       	rjmp	.+254    	; 0x3ab4 <_Z4tonehjm+0x562>
#if defined(TCCR3B)
      else if (_timer == 3)
        TCCR3B = (TCCR3B & 0b11111000) | prescalarbits;
#endif
#if defined(TCCR4B)
      else if (_timer == 4)
    39b6:	f4 e0       	ldi	r31, 0x04	; 4
    39b8:	3f 12       	cpse	r3, r31
    39ba:	0f c0       	rjmp	.+30     	; 0x39da <_Z4tonehjm+0x488>
        TCCR4B = (TCCR4B & 0b11111000) | prescalarbits;
    39bc:	90 91 a1 00 	lds	r25, 0x00A1	; 0x8000a1 <__TEXT_REGION_LENGTH__+0x7000a1>
    39c0:	98 7f       	andi	r25, 0xF8	; 248
    39c2:	89 2b       	or	r24, r25
    39c4:	80 93 a1 00 	sts	0x00A1, r24	; 0x8000a1 <__TEXT_REGION_LENGTH__+0x7000a1>

    }
    

    // Calculate the toggle count
    if (duration > 0)
    39c8:	41 14       	cp	r4, r1
    39ca:	51 04       	cpc	r5, r1
    39cc:	61 04       	cpc	r6, r1
    39ce:	71 04       	cpc	r7, r1
    39d0:	d9 f4       	brne	.+54     	; 0x3a08 <_Z4tonehjm+0x4b6>
    {
      toggle_count = 2 * frequency * duration / 1000;
    }
    else
    {
      toggle_count = -1;
    39d2:	2f ef       	ldi	r18, 0xFF	; 255
    39d4:	3f ef       	ldi	r19, 0xFF	; 255
    39d6:	a9 01       	movw	r20, r18
    39d8:	7f c0       	rjmp	.+254    	; 0x3ad8 <_Z4tonehjm+0x586>
#if defined(TCCR4B)
      else if (_timer == 4)
        TCCR4B = (TCCR4B & 0b11111000) | prescalarbits;
#endif
#if defined(TCCR5B)
      else if (_timer == 5)
    39da:	25 e0       	ldi	r18, 0x05	; 5
    39dc:	32 12       	cpse	r3, r18
    39de:	0f c0       	rjmp	.+30     	; 0x39fe <_Z4tonehjm+0x4ac>
        TCCR5B = (TCCR5B & 0b11111000) | prescalarbits;
    39e0:	90 91 21 01 	lds	r25, 0x0121	; 0x800121 <__TEXT_REGION_LENGTH__+0x700121>
    39e4:	98 7f       	andi	r25, 0xF8	; 248
    39e6:	89 2b       	or	r24, r25
    39e8:	80 93 21 01 	sts	0x0121, r24	; 0x800121 <__TEXT_REGION_LENGTH__+0x700121>

    }
    

    // Calculate the toggle count
    if (duration > 0)
    39ec:	41 14       	cp	r4, r1
    39ee:	51 04       	cpc	r5, r1
    39f0:	61 04       	cpc	r6, r1
    39f2:	71 04       	cpc	r7, r1
    39f4:	49 f4       	brne	.+18     	; 0x3a08 <_Z4tonehjm+0x4b6>
    {
      toggle_count = 2 * frequency * duration / 1000;
    }
    else
    {
      toggle_count = -1;
    39f6:	2f ef       	ldi	r18, 0xFF	; 255
    39f8:	3f ef       	ldi	r19, 0xFF	; 255
    39fa:	a9 01       	movw	r20, r18
    39fc:	7f c0       	rjmp	.+254    	; 0x3afc <_Z4tonehjm+0x5aa>

    }
    

    // Calculate the toggle count
    if (duration > 0)
    39fe:	41 14       	cp	r4, r1
    3a00:	51 04       	cpc	r5, r1
    3a02:	61 04       	cpc	r6, r1
    3a04:	71 04       	cpc	r7, r1
    3a06:	61 f0       	breq	.+24     	; 0x3a20 <_Z4tonehjm+0x4ce>
    {
      toggle_count = 2 * frequency * duration / 1000;
    3a08:	d8 01       	movw	r26, r16
    3a0a:	aa 0f       	add	r26, r26
    3a0c:	bb 1f       	adc	r27, r27
    3a0e:	a3 01       	movw	r20, r6
    3a10:	92 01       	movw	r18, r4
    3a12:	57 d6       	rcall	.+3246   	; 0x46c2 <__muluhisi3>
    3a14:	28 ee       	ldi	r18, 0xE8	; 232
    3a16:	33 e0       	ldi	r19, 0x03	; 3
    3a18:	40 e0       	ldi	r20, 0x00	; 0
    3a1a:	50 e0       	ldi	r21, 0x00	; 0
    3a1c:	0c d6       	rcall	.+3096   	; 0x4636 <__udivmodsi4>
    3a1e:	03 c0       	rjmp	.+6      	; 0x3a26 <_Z4tonehjm+0x4d4>
    }
    else
    {
      toggle_count = -1;
    3a20:	2f ef       	ldi	r18, 0xFF	; 255
    3a22:	3f ef       	ldi	r19, 0xFF	; 255
    3a24:	a9 01       	movw	r20, r18
    }

    // Set the OCR for the given timer,
    // set the toggle count,
    // then turn on the interrupts
    switch (_timer)
    3a26:	82 e0       	ldi	r24, 0x02	; 2
    3a28:	38 16       	cp	r3, r24
    3a2a:	a1 f1       	breq	.+104    	; 0x3a94 <_Z4tonehjm+0x542>
    3a2c:	83 15       	cp	r24, r3
    3a2e:	34 f0       	brlt	.+12     	; 0x3a3c <_Z4tonehjm+0x4ea>
    3a30:	33 20       	and	r3, r3
    3a32:	79 f0       	breq	.+30     	; 0x3a52 <_Z4tonehjm+0x500>
    3a34:	91 e0       	ldi	r25, 0x01	; 1
    3a36:	39 16       	cp	r3, r25
    3a38:	d9 f0       	breq	.+54     	; 0x3a70 <_Z4tonehjm+0x51e>
    3a3a:	ce c0       	rjmp	.+412    	; 0x3bd8 <_Z4tonehjm+0x686>
    3a3c:	e4 e0       	ldi	r30, 0x04	; 4
    3a3e:	3e 16       	cp	r3, r30
    3a40:	09 f4       	brne	.+2      	; 0x3a44 <_Z4tonehjm+0x4f2>
    3a42:	4a c0       	rjmp	.+148    	; 0x3ad8 <_Z4tonehjm+0x586>
    3a44:	3e 16       	cp	r3, r30
    3a46:	b4 f1       	brlt	.+108    	; 0x3ab4 <_Z4tonehjm+0x562>
    3a48:	f5 e0       	ldi	r31, 0x05	; 5
    3a4a:	3f 16       	cp	r3, r31
    3a4c:	09 f4       	brne	.+2      	; 0x3a50 <_Z4tonehjm+0x4fe>
    3a4e:	56 c0       	rjmp	.+172    	; 0x3afc <_Z4tonehjm+0x5aa>
    3a50:	c3 c0       	rjmp	.+390    	; 0x3bd8 <_Z4tonehjm+0x686>
    {

#if defined(OCR0A) && defined(TIMSK0) && defined(OCIE0A)
      case 0:
        OCR0A = ocr;
    3a52:	c7 bc       	out	0x27, r12	; 39
        timer0_toggle_count = toggle_count;
    3a54:	20 93 5c 06 	sts	0x065C, r18	; 0x80065c <timer0_toggle_count>
    3a58:	30 93 5d 06 	sts	0x065D, r19	; 0x80065d <timer0_toggle_count+0x1>
    3a5c:	40 93 5e 06 	sts	0x065E, r20	; 0x80065e <timer0_toggle_count+0x2>
    3a60:	50 93 5f 06 	sts	0x065F, r21	; 0x80065f <timer0_toggle_count+0x3>
        bitWrite(TIMSK0, OCIE0A, 1);
    3a64:	80 91 6e 00 	lds	r24, 0x006E	; 0x80006e <__TEXT_REGION_LENGTH__+0x70006e>
    3a68:	82 60       	ori	r24, 0x02	; 2
    3a6a:	80 93 6e 00 	sts	0x006E, r24	; 0x80006e <__TEXT_REGION_LENGTH__+0x70006e>
        break;
    3a6e:	b4 c0       	rjmp	.+360    	; 0x3bd8 <_Z4tonehjm+0x686>
#endif

      case 1:
#if defined(OCR1A) && defined(TIMSK1) && defined(OCIE1A)
        OCR1A = ocr;
    3a70:	d0 92 89 00 	sts	0x0089, r13	; 0x800089 <__TEXT_REGION_LENGTH__+0x700089>
    3a74:	c0 92 88 00 	sts	0x0088, r12	; 0x800088 <__TEXT_REGION_LENGTH__+0x700088>
        timer1_toggle_count = toggle_count;
    3a78:	20 93 55 06 	sts	0x0655, r18	; 0x800655 <timer1_toggle_count>
    3a7c:	30 93 56 06 	sts	0x0656, r19	; 0x800656 <timer1_toggle_count+0x1>
    3a80:	40 93 57 06 	sts	0x0657, r20	; 0x800657 <timer1_toggle_count+0x2>
    3a84:	50 93 58 06 	sts	0x0658, r21	; 0x800658 <timer1_toggle_count+0x3>
        bitWrite(TIMSK1, OCIE1A, 1);
    3a88:	80 91 6f 00 	lds	r24, 0x006F	; 0x80006f <__TEXT_REGION_LENGTH__+0x70006f>
    3a8c:	82 60       	ori	r24, 0x02	; 2
    3a8e:	80 93 6f 00 	sts	0x006F, r24	; 0x80006f <__TEXT_REGION_LENGTH__+0x70006f>
        // this combination is for at least the ATmega32
        OCR1A = ocr;
        timer1_toggle_count = toggle_count;
        bitWrite(TIMSK, OCIE1A, 1);
#endif
        break;
    3a92:	a2 c0       	rjmp	.+324    	; 0x3bd8 <_Z4tonehjm+0x686>

#if defined(OCR2A) && defined(TIMSK2) && defined(OCIE2A)
      case 2:
        OCR2A = ocr;
    3a94:	c0 92 b3 00 	sts	0x00B3, r12	; 0x8000b3 <__TEXT_REGION_LENGTH__+0x7000b3>
        timer2_toggle_count = toggle_count;
    3a98:	20 93 4e 06 	sts	0x064E, r18	; 0x80064e <timer2_toggle_count>
    3a9c:	30 93 4f 06 	sts	0x064F, r19	; 0x80064f <timer2_toggle_count+0x1>
    3aa0:	40 93 50 06 	sts	0x0650, r20	; 0x800650 <timer2_toggle_count+0x2>
    3aa4:	50 93 51 06 	sts	0x0651, r21	; 0x800651 <timer2_toggle_count+0x3>
        bitWrite(TIMSK2, OCIE2A, 1);
    3aa8:	80 91 70 00 	lds	r24, 0x0070	; 0x800070 <__TEXT_REGION_LENGTH__+0x700070>
    3aac:	82 60       	ori	r24, 0x02	; 2
    3aae:	80 93 70 00 	sts	0x0070, r24	; 0x800070 <__TEXT_REGION_LENGTH__+0x700070>
        break;
    3ab2:	92 c0       	rjmp	.+292    	; 0x3bd8 <_Z4tonehjm+0x686>
#endif

#if defined(OCR3A) && defined(TIMSK3) && defined(OCIE3A)
      case 3:
        OCR3A = ocr;
    3ab4:	d0 92 99 00 	sts	0x0099, r13	; 0x800099 <__TEXT_REGION_LENGTH__+0x700099>
    3ab8:	c0 92 98 00 	sts	0x0098, r12	; 0x800098 <__TEXT_REGION_LENGTH__+0x700098>
        timer3_toggle_count = toggle_count;
    3abc:	20 93 47 06 	sts	0x0647, r18	; 0x800647 <timer3_toggle_count>
    3ac0:	30 93 48 06 	sts	0x0648, r19	; 0x800648 <timer3_toggle_count+0x1>
    3ac4:	40 93 49 06 	sts	0x0649, r20	; 0x800649 <timer3_toggle_count+0x2>
    3ac8:	50 93 4a 06 	sts	0x064A, r21	; 0x80064a <timer3_toggle_count+0x3>
        bitWrite(TIMSK3, OCIE3A, 1);
    3acc:	80 91 71 00 	lds	r24, 0x0071	; 0x800071 <__TEXT_REGION_LENGTH__+0x700071>
    3ad0:	82 60       	ori	r24, 0x02	; 2
    3ad2:	80 93 71 00 	sts	0x0071, r24	; 0x800071 <__TEXT_REGION_LENGTH__+0x700071>
        break;
    3ad6:	80 c0       	rjmp	.+256    	; 0x3bd8 <_Z4tonehjm+0x686>
#endif

#if defined(OCR4A) && defined(TIMSK4) && defined(OCIE4A)
      case 4:
        OCR4A = ocr;
    3ad8:	d0 92 a9 00 	sts	0x00A9, r13	; 0x8000a9 <__TEXT_REGION_LENGTH__+0x7000a9>
    3adc:	c0 92 a8 00 	sts	0x00A8, r12	; 0x8000a8 <__TEXT_REGION_LENGTH__+0x7000a8>
        timer4_toggle_count = toggle_count;
    3ae0:	20 93 40 06 	sts	0x0640, r18	; 0x800640 <timer4_toggle_count>
    3ae4:	30 93 41 06 	sts	0x0641, r19	; 0x800641 <timer4_toggle_count+0x1>
    3ae8:	40 93 42 06 	sts	0x0642, r20	; 0x800642 <timer4_toggle_count+0x2>
    3aec:	50 93 43 06 	sts	0x0643, r21	; 0x800643 <timer4_toggle_count+0x3>
        bitWrite(TIMSK4, OCIE4A, 1);
    3af0:	80 91 72 00 	lds	r24, 0x0072	; 0x800072 <__TEXT_REGION_LENGTH__+0x700072>
    3af4:	82 60       	ori	r24, 0x02	; 2
    3af6:	80 93 72 00 	sts	0x0072, r24	; 0x800072 <__TEXT_REGION_LENGTH__+0x700072>
        break;
    3afa:	6e c0       	rjmp	.+220    	; 0x3bd8 <_Z4tonehjm+0x686>
#endif

#if defined(OCR5A) && defined(TIMSK5) && defined(OCIE5A)
      case 5:
        OCR5A = ocr;
    3afc:	d0 92 29 01 	sts	0x0129, r13	; 0x800129 <__TEXT_REGION_LENGTH__+0x700129>
    3b00:	c0 92 28 01 	sts	0x0128, r12	; 0x800128 <__TEXT_REGION_LENGTH__+0x700128>
        timer5_toggle_count = toggle_count;
    3b04:	20 93 39 06 	sts	0x0639, r18	; 0x800639 <timer5_toggle_count>
    3b08:	30 93 3a 06 	sts	0x063A, r19	; 0x80063a <timer5_toggle_count+0x1>
    3b0c:	40 93 3b 06 	sts	0x063B, r20	; 0x80063b <timer5_toggle_count+0x2>
    3b10:	50 93 3c 06 	sts	0x063C, r21	; 0x80063c <timer5_toggle_count+0x3>
        bitWrite(TIMSK5, OCIE5A, 1);
    3b14:	80 91 73 00 	lds	r24, 0x0073	; 0x800073 <__TEXT_REGION_LENGTH__+0x700073>
    3b18:	82 60       	ori	r24, 0x02	; 2
    3b1a:	80 93 73 00 	sts	0x0073, r24	; 0x800073 <__TEXT_REGION_LENGTH__+0x700073>
        break;
    3b1e:	5c c0       	rjmp	.+184    	; 0x3bd8 <_Z4tonehjm+0x686>
        }

        if (ocr > 255)
        {
          ocr = F_CPU / frequency / 2 / 64 - 1;
          prescalarbits = _timer == 0 ? 0b011 : 0b100;
    3b20:	84 e0       	ldi	r24, 0x04	; 4
    3b22:	f8 ce       	rjmp	.-528    	; 0x3914 <_Z4tonehjm+0x3c2>
          {
            ocr = F_CPU / frequency / 2 / 128 - 1;
            prescalarbits = 0b101;
          }

          if (ocr > 255)
    3b24:	2f ef       	ldi	r18, 0xFF	; 255
    3b26:	c2 16       	cp	r12, r18
    3b28:	d1 04       	cpc	r13, r1
    3b2a:	e1 04       	cpc	r14, r1
    3b2c:	f1 04       	cpc	r15, r1
    3b2e:	c9 f0       	breq	.+50     	; 0x3b62 <_Z4tonehjm+0x610>
    3b30:	c0 f0       	brcs	.+48     	; 0x3b62 <_Z4tonehjm+0x610>
          {
            ocr = F_CPU / frequency / 2 / 256 - 1;
    3b32:	62 e1       	ldi	r22, 0x12	; 18
    3b34:	7a e7       	ldi	r23, 0x7A	; 122
    3b36:	80 e0       	ldi	r24, 0x00	; 0
    3b38:	90 e0       	ldi	r25, 0x00	; 0
    3b3a:	a5 01       	movw	r20, r10
    3b3c:	94 01       	movw	r18, r8
    3b3e:	9d d5       	rcall	.+2874   	; 0x467a <__divmodsi4>
    3b40:	69 01       	movw	r12, r18
    3b42:	7a 01       	movw	r14, r20
    3b44:	e1 e0       	ldi	r30, 0x01	; 1
    3b46:	ce 1a       	sub	r12, r30
    3b48:	d1 08       	sbc	r13, r1
    3b4a:	e1 08       	sbc	r14, r1
    3b4c:	f1 08       	sbc	r15, r1
            prescalarbits = _timer == 0 ? 0b100 : 0b110;
            if (ocr > 255)
    3b4e:	ff ef       	ldi	r31, 0xFF	; 255
    3b50:	cf 16       	cp	r12, r31
    3b52:	d1 04       	cpc	r13, r1
    3b54:	e1 04       	cpc	r14, r1
    3b56:	f1 04       	cpc	r15, r1
    3b58:	11 f0       	breq	.+4      	; 0x3b5e <_Z4tonehjm+0x60c>
    3b5a:	08 f0       	brcs	.+2      	; 0x3b5e <_Z4tonehjm+0x60c>
    3b5c:	96 ce       	rjmp	.-724    	; 0x388a <_Z4tonehjm+0x338>
          }

          if (ocr > 255)
          {
            ocr = F_CPU / frequency / 2 / 256 - 1;
            prescalarbits = _timer == 0 ? 0b100 : 0b110;
    3b5e:	84 e0       	ldi	r24, 0x04	; 4
    3b60:	a7 ce       	rjmp	.-690    	; 0x38b0 <_Z4tonehjm+0x35e>
        }

        if (ocr > 255)
        {
          ocr = F_CPU / frequency / 2 / 64 - 1;
          prescalarbits = _timer == 0 ? 0b011 : 0b100;
    3b62:	83 e0       	ldi	r24, 0x03	; 3
    3b64:	a5 ce       	rjmp	.-694    	; 0x38b0 <_Z4tonehjm+0x35e>
            prescalarbits = 0b101;
          }

          if (ocr > 255)
          {
            ocr = F_CPU / frequency / 2 / 256 - 1;
    3b66:	62 e1       	ldi	r22, 0x12	; 18
    3b68:	7a e7       	ldi	r23, 0x7A	; 122
    3b6a:	80 e0       	ldi	r24, 0x00	; 0
    3b6c:	90 e0       	ldi	r25, 0x00	; 0
    3b6e:	a5 01       	movw	r20, r10
    3b70:	94 01       	movw	r18, r8
    3b72:	83 d5       	rcall	.+2822   	; 0x467a <__divmodsi4>
    3b74:	69 01       	movw	r12, r18
    3b76:	7a 01       	movw	r14, r20
    3b78:	81 e0       	ldi	r24, 0x01	; 1
    3b7a:	c8 1a       	sub	r12, r24
    3b7c:	d1 08       	sbc	r13, r1
    3b7e:	e1 08       	sbc	r14, r1
    3b80:	f1 08       	sbc	r15, r1
            prescalarbits = _timer == 0 ? 0b100 : 0b110;
            if (ocr > 255)
    3b82:	9f ef       	ldi	r25, 0xFF	; 255
    3b84:	c9 16       	cp	r12, r25
    3b86:	d1 04       	cpc	r13, r1
    3b88:	e1 04       	cpc	r14, r1
    3b8a:	f1 04       	cpc	r15, r1
    3b8c:	c1 f0       	breq	.+48     	; 0x3bbe <_Z4tonehjm+0x66c>
    3b8e:	b8 f0       	brcs	.+46     	; 0x3bbe <_Z4tonehjm+0x66c>
            {
              // can't do any better than /1024
              ocr = F_CPU / frequency / 2 / 1024 - 1;
    3b90:	89 81       	ldd	r24, Y+1	; 0x01
    3b92:	9a 81       	ldd	r25, Y+2	; 0x02
    3b94:	ab 81       	ldd	r26, Y+3	; 0x03
    3b96:	bc 81       	ldd	r27, Y+4	; 0x04
    3b98:	4a e0       	ldi	r20, 0x0A	; 10
    3b9a:	b5 95       	asr	r27
    3b9c:	a7 95       	ror	r26
    3b9e:	97 95       	ror	r25
    3ba0:	87 95       	ror	r24
    3ba2:	4a 95       	dec	r20
    3ba4:	d1 f7       	brne	.-12     	; 0x3b9a <_Z4tonehjm+0x648>
    3ba6:	6c 01       	movw	r12, r24
    3ba8:	7d 01       	movw	r14, r26
    3baa:	e1 e0       	ldi	r30, 0x01	; 1
    3bac:	ce 1a       	sub	r12, r30
    3bae:	d1 08       	sbc	r13, r1
    3bb0:	e1 08       	sbc	r14, r1
    3bb2:	f1 08       	sbc	r15, r1
              prescalarbits = _timer == 0 ? 0b101 : 0b111;
    3bb4:	33 20       	and	r3, r3
    3bb6:	09 f4       	brne	.+2      	; 0x3bba <_Z4tonehjm+0x668>
    3bb8:	7a ce       	rjmp	.-780    	; 0x38ae <_Z4tonehjm+0x35c>
    3bba:	87 e0       	ldi	r24, 0x07	; 7
    3bbc:	ab ce       	rjmp	.-682    	; 0x3914 <_Z4tonehjm+0x3c2>
          }

          if (ocr > 255)
          {
            ocr = F_CPU / frequency / 2 / 256 - 1;
            prescalarbits = _timer == 0 ? 0b100 : 0b110;
    3bbe:	86 e0       	ldi	r24, 0x06	; 6
    3bc0:	61 ce       	rjmp	.-830    	; 0x3884 <_Z4tonehjm+0x332>
          {
            ocr = F_CPU / frequency / 2 / 128 - 1;
            prescalarbits = 0b101;
          }

          if (ocr > 255)
    3bc2:	ef ef       	ldi	r30, 0xFF	; 255
    3bc4:	ce 16       	cp	r12, r30
    3bc6:	d1 04       	cpc	r13, r1
    3bc8:	e1 04       	cpc	r14, r1
    3bca:	f1 04       	cpc	r15, r1
    3bcc:	09 f0       	breq	.+2      	; 0x3bd0 <_Z4tonehjm+0x67e>
    3bce:	58 f6       	brcc	.-106    	; 0x3b66 <_Z4tonehjm+0x614>
        }

        if (ocr > 255)
        {
          ocr = F_CPU / frequency / 2 / 64 - 1;
          prescalarbits = _timer == 0 ? 0b011 : 0b100;
    3bd0:	84 e0       	ldi	r24, 0x04	; 4
    3bd2:	58 ce       	rjmp	.-848    	; 0x3884 <_Z4tonehjm+0x332>
      ocr = F_CPU / frequency / 2 - 1;
      prescalarbits = 0b001;  // ck/1: same for both timers
      if (ocr > 255)
      {
        ocr = F_CPU / frequency / 2 / 8 - 1;
        prescalarbits = 0b010;  // ck/8: same for both timers
    3bd4:	82 e0       	ldi	r24, 0x02	; 2
    3bd6:	9e ce       	rjmp	.-708    	; 0x3914 <_Z4tonehjm+0x3c2>
        break;
#endif

    }
  }
}
    3bd8:	0f 90       	pop	r0
    3bda:	0f 90       	pop	r0
    3bdc:	0f 90       	pop	r0
    3bde:	0f 90       	pop	r0
    3be0:	df 91       	pop	r29
    3be2:	cf 91       	pop	r28
    3be4:	1f 91       	pop	r17
    3be6:	0f 91       	pop	r16
    3be8:	ff 90       	pop	r15
    3bea:	ef 90       	pop	r14
    3bec:	df 90       	pop	r13
    3bee:	cf 90       	pop	r12
    3bf0:	bf 90       	pop	r11
    3bf2:	af 90       	pop	r10
    3bf4:	9f 90       	pop	r9
    3bf6:	8f 90       	pop	r8
    3bf8:	7f 90       	pop	r7
    3bfa:	6f 90       	pop	r6
    3bfc:	5f 90       	pop	r5
    3bfe:	4f 90       	pop	r4
    3c00:	3f 90       	pop	r3
    3c02:	08 95       	ret

00003c04 <_Z12disableTimerh>:
// XXX: this function only works properly for timer 2 (the only one we use
// currently).  for the others, it should end the tone, but won't restore
// proper PWM functionality for the timer.
void disableTimer(uint8_t _timer)
{
  switch (_timer)
    3c04:	82 30       	cpi	r24, 0x02	; 2
    3c06:	a9 f0       	breq	.+42     	; 0x3c32 <_Z12disableTimerh+0x2e>
    3c08:	28 f4       	brcc	.+10     	; 0x3c14 <_Z12disableTimerh+0x10>
    3c0a:	88 23       	and	r24, r24
    3c0c:	49 f0       	breq	.+18     	; 0x3c20 <_Z12disableTimerh+0x1c>
    3c0e:	81 30       	cpi	r24, 0x01	; 1
    3c10:	51 f0       	breq	.+20     	; 0x3c26 <_Z12disableTimerh+0x22>
    3c12:	08 95       	ret
    3c14:	84 30       	cpi	r24, 0x04	; 4
    3c16:	21 f1       	breq	.+72     	; 0x3c60 <_Z12disableTimerh+0x5c>
    3c18:	e8 f0       	brcs	.+58     	; 0x3c54 <_Z12disableTimerh+0x50>
    3c1a:	85 30       	cpi	r24, 0x05	; 5
    3c1c:	39 f1       	breq	.+78     	; 0x3c6c <_Z12disableTimerh+0x68>
    3c1e:	08 95       	ret
  {
    case 0:
      #if defined(TIMSK0)
        TIMSK0 = 0;
    3c20:	10 92 6e 00 	sts	0x006E, r1	; 0x80006e <__TEXT_REGION_LENGTH__+0x70006e>
      #elif defined(TIMSK)
        TIMSK = 0; // atmega32
      #endif
      break;
    3c24:	08 95       	ret

#if defined(TIMSK1) && defined(OCIE1A)
    case 1:
      bitWrite(TIMSK1, OCIE1A, 0);
    3c26:	80 91 6f 00 	lds	r24, 0x006F	; 0x80006f <__TEXT_REGION_LENGTH__+0x70006f>
    3c2a:	8d 7f       	andi	r24, 0xFD	; 253
    3c2c:	80 93 6f 00 	sts	0x006F, r24	; 0x80006f <__TEXT_REGION_LENGTH__+0x70006f>
      break;
    3c30:	08 95       	ret
#endif

    case 2:
      #if defined(TIMSK2) && defined(OCIE2A)
        bitWrite(TIMSK2, OCIE2A, 0); // disable interrupt
    3c32:	80 91 70 00 	lds	r24, 0x0070	; 0x800070 <__TEXT_REGION_LENGTH__+0x700070>
    3c36:	8d 7f       	andi	r24, 0xFD	; 253
    3c38:	80 93 70 00 	sts	0x0070, r24	; 0x800070 <__TEXT_REGION_LENGTH__+0x700070>
      #endif
      #if defined(TCCR2A) && defined(WGM20)
        TCCR2A = (1 << WGM20);
    3c3c:	81 e0       	ldi	r24, 0x01	; 1
    3c3e:	80 93 b0 00 	sts	0x00B0, r24	; 0x8000b0 <__TEXT_REGION_LENGTH__+0x7000b0>
      #endif
      #if defined(TCCR2B) && defined(CS22)
        TCCR2B = (TCCR2B & 0b11111000) | (1 << CS22);
    3c42:	80 91 b1 00 	lds	r24, 0x00B1	; 0x8000b1 <__TEXT_REGION_LENGTH__+0x7000b1>
    3c46:	88 7f       	andi	r24, 0xF8	; 248
    3c48:	84 60       	ori	r24, 0x04	; 4
    3c4a:	80 93 b1 00 	sts	0x00B1, r24	; 0x8000b1 <__TEXT_REGION_LENGTH__+0x7000b1>
      #endif
      #if defined(OCR2A)
        OCR2A = 0;
    3c4e:	10 92 b3 00 	sts	0x00B3, r1	; 0x8000b3 <__TEXT_REGION_LENGTH__+0x7000b3>
    3c52:	08 95       	ret
      #endif
      break;

#if defined(TIMSK3) && defined(OCIE3A)
    case 3:
      bitWrite(TIMSK3, OCIE3A, 0);
    3c54:	80 91 71 00 	lds	r24, 0x0071	; 0x800071 <__TEXT_REGION_LENGTH__+0x700071>
    3c58:	8d 7f       	andi	r24, 0xFD	; 253
    3c5a:	80 93 71 00 	sts	0x0071, r24	; 0x800071 <__TEXT_REGION_LENGTH__+0x700071>
      break;
    3c5e:	08 95       	ret
#endif

#if defined(TIMSK4) && defined(OCIE4A)
    case 4:
      bitWrite(TIMSK4, OCIE4A, 0);
    3c60:	80 91 72 00 	lds	r24, 0x0072	; 0x800072 <__TEXT_REGION_LENGTH__+0x700072>
    3c64:	8d 7f       	andi	r24, 0xFD	; 253
    3c66:	80 93 72 00 	sts	0x0072, r24	; 0x800072 <__TEXT_REGION_LENGTH__+0x700072>
      break;
    3c6a:	08 95       	ret
#endif

#if defined(TIMSK5) && defined(OCIE5A)
    case 5:
      bitWrite(TIMSK5, OCIE5A, 0);
    3c6c:	80 91 73 00 	lds	r24, 0x0073	; 0x800073 <__TEXT_REGION_LENGTH__+0x700073>
    3c70:	8d 7f       	andi	r24, 0xFD	; 253
    3c72:	80 93 73 00 	sts	0x0073, r24	; 0x800073 <__TEXT_REGION_LENGTH__+0x700073>
    3c76:	08 95       	ret

00003c78 <_Z6noToneh>:
  }
}


void noTone(uint8_t _pin)
{
    3c78:	cf 93       	push	r28
    3c7a:	c8 2f       	mov	r28, r24
  int8_t _timer = -1;
  
  for (int i = 0; i < AVAILABLE_TONE_PINS; i++) {
    if (tone_pins[i] == _pin) {
    3c7c:	80 91 c7 02 	lds	r24, 0x02C7	; 0x8002c7 <_ZL9tone_pins>
    3c80:	8c 13       	cpse	r24, r28
    3c82:	07 c0       	rjmp	.+14     	; 0x3c92 <_Z6noToneh+0x1a>
      _timer = pgm_read_byte(tone_pin_to_timer_PGM + i);
    3c84:	e8 e6       	ldi	r30, 0x68	; 104
    3c86:	f1 e0       	ldi	r31, 0x01	; 1
    3c88:	e4 91       	lpm	r30, Z
      tone_pins[i] = 255;
    3c8a:	8f ef       	ldi	r24, 0xFF	; 255
    3c8c:	80 93 c7 02 	sts	0x02C7, r24	; 0x8002c7 <_ZL9tone_pins>
      break;
    3c90:	01 c0       	rjmp	.+2      	; 0x3c94 <_Z6noToneh+0x1c>
}


void noTone(uint8_t _pin)
{
  int8_t _timer = -1;
    3c92:	ef ef       	ldi	r30, 0xFF	; 255
      tone_pins[i] = 255;
      break;
    }
  }
  
  disableTimer(_timer);
    3c94:	8e 2f       	mov	r24, r30
    3c96:	b6 df       	rcall	.-148    	; 0x3c04 <_Z12disableTimerh>

  digitalWrite(_pin, 0);
    3c98:	60 e0       	ldi	r22, 0x00	; 0
    3c9a:	8c 2f       	mov	r24, r28
}
    3c9c:	cf 91       	pop	r28
    }
  }
  
  disableTimer(_timer);

  digitalWrite(_pin, 0);
    3c9e:	3a c4       	rjmp	.+2164   	; 0x4514 <digitalWrite>

00003ca0 <__vector_13>:
#endif


#ifdef USE_TIMER2
ISR(TIMER2_COMPA_vect)
{
    3ca0:	1f 92       	push	r1
    3ca2:	0f 92       	push	r0
    3ca4:	0f b6       	in	r0, 0x3f	; 63
    3ca6:	0f 92       	push	r0
    3ca8:	11 24       	eor	r1, r1
    3caa:	0b b6       	in	r0, 0x3b	; 59
    3cac:	0f 92       	push	r0
    3cae:	2f 93       	push	r18
    3cb0:	3f 93       	push	r19
    3cb2:	4f 93       	push	r20
    3cb4:	5f 93       	push	r21
    3cb6:	6f 93       	push	r22
    3cb8:	7f 93       	push	r23
    3cba:	8f 93       	push	r24
    3cbc:	9f 93       	push	r25
    3cbe:	af 93       	push	r26
    3cc0:	bf 93       	push	r27
    3cc2:	ef 93       	push	r30
    3cc4:	ff 93       	push	r31

  if (timer2_toggle_count != 0)
    3cc6:	80 91 4e 06 	lds	r24, 0x064E	; 0x80064e <timer2_toggle_count>
    3cca:	90 91 4f 06 	lds	r25, 0x064F	; 0x80064f <timer2_toggle_count+0x1>
    3cce:	a0 91 50 06 	lds	r26, 0x0650	; 0x800650 <timer2_toggle_count+0x2>
    3cd2:	b0 91 51 06 	lds	r27, 0x0651	; 0x800651 <timer2_toggle_count+0x3>
    3cd6:	89 2b       	or	r24, r25
    3cd8:	8a 2b       	or	r24, r26
    3cda:	8b 2b       	or	r24, r27
    3cdc:	51 f1       	breq	.+84     	; 0x3d32 <__vector_13+0x92>
  {
    // toggle the pin
    *timer2_pin_port ^= timer2_pin_mask;
    3cde:	80 91 4b 06 	lds	r24, 0x064B	; 0x80064b <timer2_pin_mask>
    3ce2:	e0 91 4c 06 	lds	r30, 0x064C	; 0x80064c <timer2_pin_port>
    3ce6:	f0 91 4d 06 	lds	r31, 0x064D	; 0x80064d <timer2_pin_port+0x1>
    3cea:	90 81       	ld	r25, Z
    3cec:	89 27       	eor	r24, r25
    3cee:	80 83       	st	Z, r24

    if (timer2_toggle_count > 0)
    3cf0:	80 91 4e 06 	lds	r24, 0x064E	; 0x80064e <timer2_toggle_count>
    3cf4:	90 91 4f 06 	lds	r25, 0x064F	; 0x80064f <timer2_toggle_count+0x1>
    3cf8:	a0 91 50 06 	lds	r26, 0x0650	; 0x800650 <timer2_toggle_count+0x2>
    3cfc:	b0 91 51 06 	lds	r27, 0x0651	; 0x800651 <timer2_toggle_count+0x3>
    3d00:	18 16       	cp	r1, r24
    3d02:	19 06       	cpc	r1, r25
    3d04:	1a 06       	cpc	r1, r26
    3d06:	1b 06       	cpc	r1, r27
    3d08:	bc f4       	brge	.+46     	; 0x3d38 <__vector_13+0x98>
      timer2_toggle_count--;
    3d0a:	80 91 4e 06 	lds	r24, 0x064E	; 0x80064e <timer2_toggle_count>
    3d0e:	90 91 4f 06 	lds	r25, 0x064F	; 0x80064f <timer2_toggle_count+0x1>
    3d12:	a0 91 50 06 	lds	r26, 0x0650	; 0x800650 <timer2_toggle_count+0x2>
    3d16:	b0 91 51 06 	lds	r27, 0x0651	; 0x800651 <timer2_toggle_count+0x3>
    3d1a:	01 97       	sbiw	r24, 0x01	; 1
    3d1c:	a1 09       	sbc	r26, r1
    3d1e:	b1 09       	sbc	r27, r1
    3d20:	80 93 4e 06 	sts	0x064E, r24	; 0x80064e <timer2_toggle_count>
    3d24:	90 93 4f 06 	sts	0x064F, r25	; 0x80064f <timer2_toggle_count+0x1>
    3d28:	a0 93 50 06 	sts	0x0650, r26	; 0x800650 <timer2_toggle_count+0x2>
    3d2c:	b0 93 51 06 	sts	0x0651, r27	; 0x800651 <timer2_toggle_count+0x3>
    3d30:	03 c0       	rjmp	.+6      	; 0x3d38 <__vector_13+0x98>
  else
  {
    // need to call noTone() so that the tone_pins[] entry is reset, so the
    // timer gets initialized next time we call tone().
    // XXX: this assumes timer 2 is always the first one used.
    noTone(tone_pins[0]);
    3d32:	80 91 c7 02 	lds	r24, 0x02C7	; 0x8002c7 <_ZL9tone_pins>
    3d36:	a0 df       	rcall	.-192    	; 0x3c78 <_Z6noToneh>
//    disableTimer(2);
//    *timer2_pin_port &= ~(timer2_pin_mask);  // keep pin low after stop
  }
}
    3d38:	ff 91       	pop	r31
    3d3a:	ef 91       	pop	r30
    3d3c:	bf 91       	pop	r27
    3d3e:	af 91       	pop	r26
    3d40:	9f 91       	pop	r25
    3d42:	8f 91       	pop	r24
    3d44:	7f 91       	pop	r23
    3d46:	6f 91       	pop	r22
    3d48:	5f 91       	pop	r21
    3d4a:	4f 91       	pop	r20
    3d4c:	3f 91       	pop	r19
    3d4e:	2f 91       	pop	r18
    3d50:	0f 90       	pop	r0
    3d52:	0b be       	out	0x3b, r0	; 59
    3d54:	0f 90       	pop	r0
    3d56:	0f be       	out	0x3f, r0	; 63
    3d58:	0f 90       	pop	r0
    3d5a:	1f 90       	pop	r1
    3d5c:	18 95       	reti

00003d5e <nothing>:
    #endif
      break;       
#endif
    }
      
    intFunc[interruptNum] = nothing;
    3d5e:	08 95       	ret

00003d60 <attachInterrupt>:
    3d60:	88 30       	cpi	r24, 0x08	; 8
    3d62:	08 f0       	brcs	.+2      	; 0x3d66 <attachInterrupt+0x6>
    3d64:	6f c0       	rjmp	.+222    	; 0x3e44 <attachInterrupt+0xe4>
    3d66:	a8 2f       	mov	r26, r24
    3d68:	b0 e0       	ldi	r27, 0x00	; 0
    3d6a:	aa 0f       	add	r26, r26
    3d6c:	bb 1f       	adc	r27, r27
    3d6e:	a8 53       	subi	r26, 0x38	; 56
    3d70:	bd 4f       	sbci	r27, 0xFD	; 253
    3d72:	11 96       	adiw	r26, 0x01	; 1
    3d74:	7c 93       	st	X, r23
    3d76:	6e 93       	st	-X, r22
    3d78:	90 e0       	ldi	r25, 0x00	; 0
    3d7a:	fc 01       	movw	r30, r24
    3d7c:	31 97       	sbiw	r30, 0x01	; 1
    3d7e:	e7 30       	cpi	r30, 0x07	; 7
    3d80:	f1 05       	cpc	r31, r1
    3d82:	98 f5       	brcc	.+102    	; 0x3dea <attachInterrupt+0x8a>
    3d84:	88 27       	eor	r24, r24
    3d86:	e7 57       	subi	r30, 0x77	; 119
    3d88:	ff 4f       	sbci	r31, 0xFF	; 255
    3d8a:	8f 4f       	sbci	r24, 0xFF	; 255
    3d8c:	92 c4       	rjmp	.+2340   	; 0x46b2 <__tablejump2__>
    3d8e:	80 91 69 00 	lds	r24, 0x0069	; 0x800069 <__TEXT_REGION_LENGTH__+0x700069>
    3d92:	8c 7f       	andi	r24, 0xFC	; 252
    3d94:	48 2b       	or	r20, r24
    3d96:	40 93 69 00 	sts	0x0069, r20	; 0x800069 <__TEXT_REGION_LENGTH__+0x700069>
    3d9a:	e8 9a       	sbi	0x1d, 0	; 29
    3d9c:	08 95       	ret
    3d9e:	80 91 69 00 	lds	r24, 0x0069	; 0x800069 <__TEXT_REGION_LENGTH__+0x700069>
    3da2:	44 0f       	add	r20, r20
    3da4:	55 1f       	adc	r21, r21
    3da6:	44 0f       	add	r20, r20
    3da8:	55 1f       	adc	r21, r21
    3daa:	83 7f       	andi	r24, 0xF3	; 243
    3dac:	48 2b       	or	r20, r24
    3dae:	40 93 69 00 	sts	0x0069, r20	; 0x800069 <__TEXT_REGION_LENGTH__+0x700069>
    3db2:	e9 9a       	sbi	0x1d, 1	; 29
    3db4:	08 95       	ret
    3db6:	80 91 69 00 	lds	r24, 0x0069	; 0x800069 <__TEXT_REGION_LENGTH__+0x700069>
    3dba:	74 e0       	ldi	r23, 0x04	; 4
    3dbc:	44 0f       	add	r20, r20
    3dbe:	55 1f       	adc	r21, r21
    3dc0:	7a 95       	dec	r23
    3dc2:	e1 f7       	brne	.-8      	; 0x3dbc <attachInterrupt+0x5c>
    3dc4:	8f 7c       	andi	r24, 0xCF	; 207
    3dc6:	48 2b       	or	r20, r24
    3dc8:	40 93 69 00 	sts	0x0069, r20	; 0x800069 <__TEXT_REGION_LENGTH__+0x700069>
    3dcc:	ea 9a       	sbi	0x1d, 2	; 29
    3dce:	08 95       	ret
    3dd0:	80 91 69 00 	lds	r24, 0x0069	; 0x800069 <__TEXT_REGION_LENGTH__+0x700069>
    3dd4:	66 e0       	ldi	r22, 0x06	; 6
    3dd6:	44 0f       	add	r20, r20
    3dd8:	55 1f       	adc	r21, r21
    3dda:	6a 95       	dec	r22
    3ddc:	e1 f7       	brne	.-8      	; 0x3dd6 <attachInterrupt+0x76>
    3dde:	8f 73       	andi	r24, 0x3F	; 63
    3de0:	48 2b       	or	r20, r24
    3de2:	40 93 69 00 	sts	0x0069, r20	; 0x800069 <__TEXT_REGION_LENGTH__+0x700069>
    3de6:	eb 9a       	sbi	0x1d, 3	; 29
    3de8:	08 95       	ret
    3dea:	80 91 6a 00 	lds	r24, 0x006A	; 0x80006a <__TEXT_REGION_LENGTH__+0x70006a>
    3dee:	8c 7f       	andi	r24, 0xFC	; 252
    3df0:	48 2b       	or	r20, r24
    3df2:	40 93 6a 00 	sts	0x006A, r20	; 0x80006a <__TEXT_REGION_LENGTH__+0x70006a>
    3df6:	ec 9a       	sbi	0x1d, 4	; 29
    3df8:	08 95       	ret
    3dfa:	80 91 6a 00 	lds	r24, 0x006A	; 0x80006a <__TEXT_REGION_LENGTH__+0x70006a>
    3dfe:	44 0f       	add	r20, r20
    3e00:	55 1f       	adc	r21, r21
    3e02:	44 0f       	add	r20, r20
    3e04:	55 1f       	adc	r21, r21
    3e06:	83 7f       	andi	r24, 0xF3	; 243
    3e08:	48 2b       	or	r20, r24
    3e0a:	40 93 6a 00 	sts	0x006A, r20	; 0x80006a <__TEXT_REGION_LENGTH__+0x70006a>
    3e0e:	ed 9a       	sbi	0x1d, 5	; 29
    3e10:	08 95       	ret
    3e12:	80 91 6a 00 	lds	r24, 0x006A	; 0x80006a <__TEXT_REGION_LENGTH__+0x70006a>
    3e16:	24 e0       	ldi	r18, 0x04	; 4
    3e18:	44 0f       	add	r20, r20
    3e1a:	55 1f       	adc	r21, r21
    3e1c:	2a 95       	dec	r18
    3e1e:	e1 f7       	brne	.-8      	; 0x3e18 <attachInterrupt+0xb8>
    3e20:	8f 7c       	andi	r24, 0xCF	; 207
    3e22:	48 2b       	or	r20, r24
    3e24:	40 93 6a 00 	sts	0x006A, r20	; 0x80006a <__TEXT_REGION_LENGTH__+0x70006a>
    3e28:	ee 9a       	sbi	0x1d, 6	; 29
    3e2a:	08 95       	ret
    3e2c:	80 91 6a 00 	lds	r24, 0x006A	; 0x80006a <__TEXT_REGION_LENGTH__+0x70006a>
    3e30:	96 e0       	ldi	r25, 0x06	; 6
    3e32:	44 0f       	add	r20, r20
    3e34:	55 1f       	adc	r21, r21
    3e36:	9a 95       	dec	r25
    3e38:	e1 f7       	brne	.-8      	; 0x3e32 <attachInterrupt+0xd2>
    3e3a:	8f 73       	andi	r24, 0x3F	; 63
    3e3c:	48 2b       	or	r20, r24
    3e3e:	40 93 6a 00 	sts	0x006A, r20	; 0x80006a <__TEXT_REGION_LENGTH__+0x70006a>
    3e42:	ef 9a       	sbi	0x1d, 7	; 29
    3e44:	08 95       	ret

00003e46 <__vector_1>:
IMPLEMENT_ISR(INT3_vect, EXTERNAL_INT_3)
IMPLEMENT_ISR(INT6_vect, EXTERNAL_INT_4)

#elif defined(EICRA) && defined(EICRB)

IMPLEMENT_ISR(INT0_vect, EXTERNAL_INT_2)
    3e46:	1f 92       	push	r1
    3e48:	0f 92       	push	r0
    3e4a:	0f b6       	in	r0, 0x3f	; 63
    3e4c:	0f 92       	push	r0
    3e4e:	11 24       	eor	r1, r1
    3e50:	0b b6       	in	r0, 0x3b	; 59
    3e52:	0f 92       	push	r0
    3e54:	2f 93       	push	r18
    3e56:	3f 93       	push	r19
    3e58:	4f 93       	push	r20
    3e5a:	5f 93       	push	r21
    3e5c:	6f 93       	push	r22
    3e5e:	7f 93       	push	r23
    3e60:	8f 93       	push	r24
    3e62:	9f 93       	push	r25
    3e64:	af 93       	push	r26
    3e66:	bf 93       	push	r27
    3e68:	ef 93       	push	r30
    3e6a:	ff 93       	push	r31
    3e6c:	e0 91 cc 02 	lds	r30, 0x02CC	; 0x8002cc <intFunc+0x4>
    3e70:	f0 91 cd 02 	lds	r31, 0x02CD	; 0x8002cd <intFunc+0x5>
    3e74:	19 95       	eicall
    3e76:	ff 91       	pop	r31
    3e78:	ef 91       	pop	r30
    3e7a:	bf 91       	pop	r27
    3e7c:	af 91       	pop	r26
    3e7e:	9f 91       	pop	r25
    3e80:	8f 91       	pop	r24
    3e82:	7f 91       	pop	r23
    3e84:	6f 91       	pop	r22
    3e86:	5f 91       	pop	r21
    3e88:	4f 91       	pop	r20
    3e8a:	3f 91       	pop	r19
    3e8c:	2f 91       	pop	r18
    3e8e:	0f 90       	pop	r0
    3e90:	0b be       	out	0x3b, r0	; 59
    3e92:	0f 90       	pop	r0
    3e94:	0f be       	out	0x3f, r0	; 63
    3e96:	0f 90       	pop	r0
    3e98:	1f 90       	pop	r1
    3e9a:	18 95       	reti

00003e9c <__vector_2>:
IMPLEMENT_ISR(INT1_vect, EXTERNAL_INT_3)
    3e9c:	1f 92       	push	r1
    3e9e:	0f 92       	push	r0
    3ea0:	0f b6       	in	r0, 0x3f	; 63
    3ea2:	0f 92       	push	r0
    3ea4:	11 24       	eor	r1, r1
    3ea6:	0b b6       	in	r0, 0x3b	; 59
    3ea8:	0f 92       	push	r0
    3eaa:	2f 93       	push	r18
    3eac:	3f 93       	push	r19
    3eae:	4f 93       	push	r20
    3eb0:	5f 93       	push	r21
    3eb2:	6f 93       	push	r22
    3eb4:	7f 93       	push	r23
    3eb6:	8f 93       	push	r24
    3eb8:	9f 93       	push	r25
    3eba:	af 93       	push	r26
    3ebc:	bf 93       	push	r27
    3ebe:	ef 93       	push	r30
    3ec0:	ff 93       	push	r31
    3ec2:	e0 91 ce 02 	lds	r30, 0x02CE	; 0x8002ce <intFunc+0x6>
    3ec6:	f0 91 cf 02 	lds	r31, 0x02CF	; 0x8002cf <intFunc+0x7>
    3eca:	19 95       	eicall
    3ecc:	ff 91       	pop	r31
    3ece:	ef 91       	pop	r30
    3ed0:	bf 91       	pop	r27
    3ed2:	af 91       	pop	r26
    3ed4:	9f 91       	pop	r25
    3ed6:	8f 91       	pop	r24
    3ed8:	7f 91       	pop	r23
    3eda:	6f 91       	pop	r22
    3edc:	5f 91       	pop	r21
    3ede:	4f 91       	pop	r20
    3ee0:	3f 91       	pop	r19
    3ee2:	2f 91       	pop	r18
    3ee4:	0f 90       	pop	r0
    3ee6:	0b be       	out	0x3b, r0	; 59
    3ee8:	0f 90       	pop	r0
    3eea:	0f be       	out	0x3f, r0	; 63
    3eec:	0f 90       	pop	r0
    3eee:	1f 90       	pop	r1
    3ef0:	18 95       	reti

00003ef2 <__vector_3>:
IMPLEMENT_ISR(INT2_vect, EXTERNAL_INT_4)
    3ef2:	1f 92       	push	r1
    3ef4:	0f 92       	push	r0
    3ef6:	0f b6       	in	r0, 0x3f	; 63
    3ef8:	0f 92       	push	r0
    3efa:	11 24       	eor	r1, r1
    3efc:	0b b6       	in	r0, 0x3b	; 59
    3efe:	0f 92       	push	r0
    3f00:	2f 93       	push	r18
    3f02:	3f 93       	push	r19
    3f04:	4f 93       	push	r20
    3f06:	5f 93       	push	r21
    3f08:	6f 93       	push	r22
    3f0a:	7f 93       	push	r23
    3f0c:	8f 93       	push	r24
    3f0e:	9f 93       	push	r25
    3f10:	af 93       	push	r26
    3f12:	bf 93       	push	r27
    3f14:	ef 93       	push	r30
    3f16:	ff 93       	push	r31
    3f18:	e0 91 d0 02 	lds	r30, 0x02D0	; 0x8002d0 <intFunc+0x8>
    3f1c:	f0 91 d1 02 	lds	r31, 0x02D1	; 0x8002d1 <intFunc+0x9>
    3f20:	19 95       	eicall
    3f22:	ff 91       	pop	r31
    3f24:	ef 91       	pop	r30
    3f26:	bf 91       	pop	r27
    3f28:	af 91       	pop	r26
    3f2a:	9f 91       	pop	r25
    3f2c:	8f 91       	pop	r24
    3f2e:	7f 91       	pop	r23
    3f30:	6f 91       	pop	r22
    3f32:	5f 91       	pop	r21
    3f34:	4f 91       	pop	r20
    3f36:	3f 91       	pop	r19
    3f38:	2f 91       	pop	r18
    3f3a:	0f 90       	pop	r0
    3f3c:	0b be       	out	0x3b, r0	; 59
    3f3e:	0f 90       	pop	r0
    3f40:	0f be       	out	0x3f, r0	; 63
    3f42:	0f 90       	pop	r0
    3f44:	1f 90       	pop	r1
    3f46:	18 95       	reti

00003f48 <__vector_4>:
IMPLEMENT_ISR(INT3_vect, EXTERNAL_INT_5)
    3f48:	1f 92       	push	r1
    3f4a:	0f 92       	push	r0
    3f4c:	0f b6       	in	r0, 0x3f	; 63
    3f4e:	0f 92       	push	r0
    3f50:	11 24       	eor	r1, r1
    3f52:	0b b6       	in	r0, 0x3b	; 59
    3f54:	0f 92       	push	r0
    3f56:	2f 93       	push	r18
    3f58:	3f 93       	push	r19
    3f5a:	4f 93       	push	r20
    3f5c:	5f 93       	push	r21
    3f5e:	6f 93       	push	r22
    3f60:	7f 93       	push	r23
    3f62:	8f 93       	push	r24
    3f64:	9f 93       	push	r25
    3f66:	af 93       	push	r26
    3f68:	bf 93       	push	r27
    3f6a:	ef 93       	push	r30
    3f6c:	ff 93       	push	r31
    3f6e:	e0 91 d2 02 	lds	r30, 0x02D2	; 0x8002d2 <intFunc+0xa>
    3f72:	f0 91 d3 02 	lds	r31, 0x02D3	; 0x8002d3 <intFunc+0xb>
    3f76:	19 95       	eicall
    3f78:	ff 91       	pop	r31
    3f7a:	ef 91       	pop	r30
    3f7c:	bf 91       	pop	r27
    3f7e:	af 91       	pop	r26
    3f80:	9f 91       	pop	r25
    3f82:	8f 91       	pop	r24
    3f84:	7f 91       	pop	r23
    3f86:	6f 91       	pop	r22
    3f88:	5f 91       	pop	r21
    3f8a:	4f 91       	pop	r20
    3f8c:	3f 91       	pop	r19
    3f8e:	2f 91       	pop	r18
    3f90:	0f 90       	pop	r0
    3f92:	0b be       	out	0x3b, r0	; 59
    3f94:	0f 90       	pop	r0
    3f96:	0f be       	out	0x3f, r0	; 63
    3f98:	0f 90       	pop	r0
    3f9a:	1f 90       	pop	r1
    3f9c:	18 95       	reti

00003f9e <__vector_5>:
IMPLEMENT_ISR(INT4_vect, EXTERNAL_INT_0)
    3f9e:	1f 92       	push	r1
    3fa0:	0f 92       	push	r0
    3fa2:	0f b6       	in	r0, 0x3f	; 63
    3fa4:	0f 92       	push	r0
    3fa6:	11 24       	eor	r1, r1
    3fa8:	0b b6       	in	r0, 0x3b	; 59
    3faa:	0f 92       	push	r0
    3fac:	2f 93       	push	r18
    3fae:	3f 93       	push	r19
    3fb0:	4f 93       	push	r20
    3fb2:	5f 93       	push	r21
    3fb4:	6f 93       	push	r22
    3fb6:	7f 93       	push	r23
    3fb8:	8f 93       	push	r24
    3fba:	9f 93       	push	r25
    3fbc:	af 93       	push	r26
    3fbe:	bf 93       	push	r27
    3fc0:	ef 93       	push	r30
    3fc2:	ff 93       	push	r31
    3fc4:	e0 91 c8 02 	lds	r30, 0x02C8	; 0x8002c8 <intFunc>
    3fc8:	f0 91 c9 02 	lds	r31, 0x02C9	; 0x8002c9 <intFunc+0x1>
    3fcc:	19 95       	eicall
    3fce:	ff 91       	pop	r31
    3fd0:	ef 91       	pop	r30
    3fd2:	bf 91       	pop	r27
    3fd4:	af 91       	pop	r26
    3fd6:	9f 91       	pop	r25
    3fd8:	8f 91       	pop	r24
    3fda:	7f 91       	pop	r23
    3fdc:	6f 91       	pop	r22
    3fde:	5f 91       	pop	r21
    3fe0:	4f 91       	pop	r20
    3fe2:	3f 91       	pop	r19
    3fe4:	2f 91       	pop	r18
    3fe6:	0f 90       	pop	r0
    3fe8:	0b be       	out	0x3b, r0	; 59
    3fea:	0f 90       	pop	r0
    3fec:	0f be       	out	0x3f, r0	; 63
    3fee:	0f 90       	pop	r0
    3ff0:	1f 90       	pop	r1
    3ff2:	18 95       	reti

00003ff4 <__vector_6>:
IMPLEMENT_ISR(INT5_vect, EXTERNAL_INT_1)
    3ff4:	1f 92       	push	r1
    3ff6:	0f 92       	push	r0
    3ff8:	0f b6       	in	r0, 0x3f	; 63
    3ffa:	0f 92       	push	r0
    3ffc:	11 24       	eor	r1, r1
    3ffe:	0b b6       	in	r0, 0x3b	; 59
    4000:	0f 92       	push	r0
    4002:	2f 93       	push	r18
    4004:	3f 93       	push	r19
    4006:	4f 93       	push	r20
    4008:	5f 93       	push	r21
    400a:	6f 93       	push	r22
    400c:	7f 93       	push	r23
    400e:	8f 93       	push	r24
    4010:	9f 93       	push	r25
    4012:	af 93       	push	r26
    4014:	bf 93       	push	r27
    4016:	ef 93       	push	r30
    4018:	ff 93       	push	r31
    401a:	e0 91 ca 02 	lds	r30, 0x02CA	; 0x8002ca <intFunc+0x2>
    401e:	f0 91 cb 02 	lds	r31, 0x02CB	; 0x8002cb <intFunc+0x3>
    4022:	19 95       	eicall
    4024:	ff 91       	pop	r31
    4026:	ef 91       	pop	r30
    4028:	bf 91       	pop	r27
    402a:	af 91       	pop	r26
    402c:	9f 91       	pop	r25
    402e:	8f 91       	pop	r24
    4030:	7f 91       	pop	r23
    4032:	6f 91       	pop	r22
    4034:	5f 91       	pop	r21
    4036:	4f 91       	pop	r20
    4038:	3f 91       	pop	r19
    403a:	2f 91       	pop	r18
    403c:	0f 90       	pop	r0
    403e:	0b be       	out	0x3b, r0	; 59
    4040:	0f 90       	pop	r0
    4042:	0f be       	out	0x3f, r0	; 63
    4044:	0f 90       	pop	r0
    4046:	1f 90       	pop	r1
    4048:	18 95       	reti

0000404a <__vector_7>:
IMPLEMENT_ISR(INT6_vect, EXTERNAL_INT_6)
    404a:	1f 92       	push	r1
    404c:	0f 92       	push	r0
    404e:	0f b6       	in	r0, 0x3f	; 63
    4050:	0f 92       	push	r0
    4052:	11 24       	eor	r1, r1
    4054:	0b b6       	in	r0, 0x3b	; 59
    4056:	0f 92       	push	r0
    4058:	2f 93       	push	r18
    405a:	3f 93       	push	r19
    405c:	4f 93       	push	r20
    405e:	5f 93       	push	r21
    4060:	6f 93       	push	r22
    4062:	7f 93       	push	r23
    4064:	8f 93       	push	r24
    4066:	9f 93       	push	r25
    4068:	af 93       	push	r26
    406a:	bf 93       	push	r27
    406c:	ef 93       	push	r30
    406e:	ff 93       	push	r31
    4070:	e0 91 d4 02 	lds	r30, 0x02D4	; 0x8002d4 <intFunc+0xc>
    4074:	f0 91 d5 02 	lds	r31, 0x02D5	; 0x8002d5 <intFunc+0xd>
    4078:	19 95       	eicall
    407a:	ff 91       	pop	r31
    407c:	ef 91       	pop	r30
    407e:	bf 91       	pop	r27
    4080:	af 91       	pop	r26
    4082:	9f 91       	pop	r25
    4084:	8f 91       	pop	r24
    4086:	7f 91       	pop	r23
    4088:	6f 91       	pop	r22
    408a:	5f 91       	pop	r21
    408c:	4f 91       	pop	r20
    408e:	3f 91       	pop	r19
    4090:	2f 91       	pop	r18
    4092:	0f 90       	pop	r0
    4094:	0b be       	out	0x3b, r0	; 59
    4096:	0f 90       	pop	r0
    4098:	0f be       	out	0x3f, r0	; 63
    409a:	0f 90       	pop	r0
    409c:	1f 90       	pop	r1
    409e:	18 95       	reti

000040a0 <__vector_8>:
IMPLEMENT_ISR(INT7_vect, EXTERNAL_INT_7)
    40a0:	1f 92       	push	r1
    40a2:	0f 92       	push	r0
    40a4:	0f b6       	in	r0, 0x3f	; 63
    40a6:	0f 92       	push	r0
    40a8:	11 24       	eor	r1, r1
    40aa:	0b b6       	in	r0, 0x3b	; 59
    40ac:	0f 92       	push	r0
    40ae:	2f 93       	push	r18
    40b0:	3f 93       	push	r19
    40b2:	4f 93       	push	r20
    40b4:	5f 93       	push	r21
    40b6:	6f 93       	push	r22
    40b8:	7f 93       	push	r23
    40ba:	8f 93       	push	r24
    40bc:	9f 93       	push	r25
    40be:	af 93       	push	r26
    40c0:	bf 93       	push	r27
    40c2:	ef 93       	push	r30
    40c4:	ff 93       	push	r31
    40c6:	e0 91 d6 02 	lds	r30, 0x02D6	; 0x8002d6 <intFunc+0xe>
    40ca:	f0 91 d7 02 	lds	r31, 0x02D7	; 0x8002d7 <intFunc+0xf>
    40ce:	19 95       	eicall
    40d0:	ff 91       	pop	r31
    40d2:	ef 91       	pop	r30
    40d4:	bf 91       	pop	r27
    40d6:	af 91       	pop	r26
    40d8:	9f 91       	pop	r25
    40da:	8f 91       	pop	r24
    40dc:	7f 91       	pop	r23
    40de:	6f 91       	pop	r22
    40e0:	5f 91       	pop	r21
    40e2:	4f 91       	pop	r20
    40e4:	3f 91       	pop	r19
    40e6:	2f 91       	pop	r18
    40e8:	0f 90       	pop	r0
    40ea:	0b be       	out	0x3b, r0	; 59
    40ec:	0f 90       	pop	r0
    40ee:	0f be       	out	0x3f, r0	; 63
    40f0:	0f 90       	pop	r0
    40f2:	1f 90       	pop	r1
    40f4:	18 95       	reti

000040f6 <__vector_23>:
	

#endif

	// busy wait
	__asm__ __volatile__ (
    40f6:	1f 92       	push	r1
    40f8:	0f 92       	push	r0
    40fa:	0f b6       	in	r0, 0x3f	; 63
    40fc:	0f 92       	push	r0
    40fe:	11 24       	eor	r1, r1
    4100:	2f 93       	push	r18
    4102:	3f 93       	push	r19
    4104:	8f 93       	push	r24
    4106:	9f 93       	push	r25
    4108:	af 93       	push	r26
    410a:	bf 93       	push	r27
    410c:	80 91 61 06 	lds	r24, 0x0661	; 0x800661 <timer0_millis>
    4110:	90 91 62 06 	lds	r25, 0x0662	; 0x800662 <timer0_millis+0x1>
    4114:	a0 91 63 06 	lds	r26, 0x0663	; 0x800663 <timer0_millis+0x2>
    4118:	b0 91 64 06 	lds	r27, 0x0664	; 0x800664 <timer0_millis+0x3>
    411c:	30 91 60 06 	lds	r19, 0x0660	; 0x800660 <timer0_fract>
    4120:	23 e0       	ldi	r18, 0x03	; 3
    4122:	23 0f       	add	r18, r19
    4124:	2d 37       	cpi	r18, 0x7D	; 125
    4126:	20 f4       	brcc	.+8      	; 0x4130 <__vector_23+0x3a>
    4128:	01 96       	adiw	r24, 0x01	; 1
    412a:	a1 1d       	adc	r26, r1
    412c:	b1 1d       	adc	r27, r1
    412e:	05 c0       	rjmp	.+10     	; 0x413a <__vector_23+0x44>
    4130:	26 e8       	ldi	r18, 0x86	; 134
    4132:	23 0f       	add	r18, r19
    4134:	02 96       	adiw	r24, 0x02	; 2
    4136:	a1 1d       	adc	r26, r1
    4138:	b1 1d       	adc	r27, r1
    413a:	20 93 60 06 	sts	0x0660, r18	; 0x800660 <timer0_fract>
    413e:	80 93 61 06 	sts	0x0661, r24	; 0x800661 <timer0_millis>
    4142:	90 93 62 06 	sts	0x0662, r25	; 0x800662 <timer0_millis+0x1>
    4146:	a0 93 63 06 	sts	0x0663, r26	; 0x800663 <timer0_millis+0x2>
    414a:	b0 93 64 06 	sts	0x0664, r27	; 0x800664 <timer0_millis+0x3>
    414e:	80 91 65 06 	lds	r24, 0x0665	; 0x800665 <timer0_overflow_count>
    4152:	90 91 66 06 	lds	r25, 0x0666	; 0x800666 <timer0_overflow_count+0x1>
    4156:	a0 91 67 06 	lds	r26, 0x0667	; 0x800667 <timer0_overflow_count+0x2>
    415a:	b0 91 68 06 	lds	r27, 0x0668	; 0x800668 <timer0_overflow_count+0x3>
    415e:	01 96       	adiw	r24, 0x01	; 1
    4160:	a1 1d       	adc	r26, r1
    4162:	b1 1d       	adc	r27, r1
    4164:	80 93 65 06 	sts	0x0665, r24	; 0x800665 <timer0_overflow_count>
    4168:	90 93 66 06 	sts	0x0666, r25	; 0x800666 <timer0_overflow_count+0x1>
    416c:	a0 93 67 06 	sts	0x0667, r26	; 0x800667 <timer0_overflow_count+0x2>
    4170:	b0 93 68 06 	sts	0x0668, r27	; 0x800668 <timer0_overflow_count+0x3>
    4174:	bf 91       	pop	r27
    4176:	af 91       	pop	r26
    4178:	9f 91       	pop	r25
    417a:	8f 91       	pop	r24
    417c:	3f 91       	pop	r19
    417e:	2f 91       	pop	r18
    4180:	0f 90       	pop	r0
    4182:	0f be       	out	0x3f, r0	; 63
    4184:	0f 90       	pop	r0
    4186:	1f 90       	pop	r1
    4188:	18 95       	reti

0000418a <millis>:
    418a:	2f b7       	in	r18, 0x3f	; 63
    418c:	f8 94       	cli
    418e:	60 91 61 06 	lds	r22, 0x0661	; 0x800661 <timer0_millis>
    4192:	70 91 62 06 	lds	r23, 0x0662	; 0x800662 <timer0_millis+0x1>
    4196:	80 91 63 06 	lds	r24, 0x0663	; 0x800663 <timer0_millis+0x2>
    419a:	90 91 64 06 	lds	r25, 0x0664	; 0x800664 <timer0_millis+0x3>
    419e:	2f bf       	out	0x3f, r18	; 63
    41a0:	08 95       	ret

000041a2 <init>:

void init()
{
	// this needs to be called before setup() or some functions won't
	// work there
	sei();
    41a2:	78 94       	sei
	
	// on the ATmega168, timer 0 is also used for fast hardware pwm
	// (using phase-correct PWM would mean that timer 0 overflowed half as often
	// resulting in different millis() behavior on the ATmega8 and ATmega168)
#if defined(TCCR0A) && defined(WGM01)
	sbi(TCCR0A, WGM01);
    41a4:	84 b5       	in	r24, 0x24	; 36
    41a6:	82 60       	ori	r24, 0x02	; 2
    41a8:	84 bd       	out	0x24, r24	; 36
	sbi(TCCR0A, WGM00);
    41aa:	84 b5       	in	r24, 0x24	; 36
    41ac:	81 60       	ori	r24, 0x01	; 1
    41ae:	84 bd       	out	0x24, r24	; 36
	// this combination is for the standard atmega8
	sbi(TCCR0, CS01);
	sbi(TCCR0, CS00);
#elif defined(TCCR0B) && defined(CS01) && defined(CS00)
	// this combination is for the standard 168/328/1280/2560
	sbi(TCCR0B, CS01);
    41b0:	85 b5       	in	r24, 0x25	; 37
    41b2:	82 60       	ori	r24, 0x02	; 2
    41b4:	85 bd       	out	0x25, r24	; 37
	sbi(TCCR0B, CS00);
    41b6:	85 b5       	in	r24, 0x25	; 37
    41b8:	81 60       	ori	r24, 0x01	; 1
    41ba:	85 bd       	out	0x25, r24	; 37

	// enable timer 0 overflow interrupt
#if defined(TIMSK) && defined(TOIE0)
	sbi(TIMSK, TOIE0);
#elif defined(TIMSK0) && defined(TOIE0)
	sbi(TIMSK0, TOIE0);
    41bc:	ee e6       	ldi	r30, 0x6E	; 110
    41be:	f0 e0       	ldi	r31, 0x00	; 0
    41c0:	80 81       	ld	r24, Z
    41c2:	81 60       	ori	r24, 0x01	; 1
    41c4:	80 83       	st	Z, r24
	// this is better for motors as it ensures an even waveform
	// note, however, that fast pwm mode can achieve a frequency of up
	// 8 MHz (with a 16 MHz clock) at 50% duty cycle

#if defined(TCCR1B) && defined(CS11) && defined(CS10)
	TCCR1B = 0;
    41c6:	e1 e8       	ldi	r30, 0x81	; 129
    41c8:	f0 e0       	ldi	r31, 0x00	; 0
    41ca:	10 82       	st	Z, r1

	// set timer 1 prescale factor to 64
	sbi(TCCR1B, CS11);
    41cc:	80 81       	ld	r24, Z
    41ce:	82 60       	ori	r24, 0x02	; 2
    41d0:	80 83       	st	Z, r24
#if F_CPU >= 8000000L
	sbi(TCCR1B, CS10);
    41d2:	80 81       	ld	r24, Z
    41d4:	81 60       	ori	r24, 0x01	; 1
    41d6:	80 83       	st	Z, r24
	sbi(TCCR1, CS10);
#endif
#endif
	// put timer 1 in 8-bit phase correct pwm mode
#if defined(TCCR1A) && defined(WGM10)
	sbi(TCCR1A, WGM10);
    41d8:	e0 e8       	ldi	r30, 0x80	; 128
    41da:	f0 e0       	ldi	r31, 0x00	; 0
    41dc:	80 81       	ld	r24, Z
    41de:	81 60       	ori	r24, 0x01	; 1
    41e0:	80 83       	st	Z, r24

	// set timer 2 prescale factor to 64
#if defined(TCCR2) && defined(CS22)
	sbi(TCCR2, CS22);
#elif defined(TCCR2B) && defined(CS22)
	sbi(TCCR2B, CS22);
    41e2:	e1 eb       	ldi	r30, 0xB1	; 177
    41e4:	f0 e0       	ldi	r31, 0x00	; 0
    41e6:	80 81       	ld	r24, Z
    41e8:	84 60       	ori	r24, 0x04	; 4
    41ea:	80 83       	st	Z, r24

	// configure timer 2 for phase correct pwm (8-bit)
#if defined(TCCR2) && defined(WGM20)
	sbi(TCCR2, WGM20);
#elif defined(TCCR2A) && defined(WGM20)
	sbi(TCCR2A, WGM20);
    41ec:	e0 eb       	ldi	r30, 0xB0	; 176
    41ee:	f0 e0       	ldi	r31, 0x00	; 0
    41f0:	80 81       	ld	r24, Z
    41f2:	81 60       	ori	r24, 0x01	; 1
    41f4:	80 83       	st	Z, r24
//#else
	// Timer 2 not finished (may not be present on this CPU)
#endif

#if defined(TCCR3B) && defined(CS31) && defined(WGM30)
	sbi(TCCR3B, CS31);		// set timer 3 prescale factor to 64
    41f6:	e1 e9       	ldi	r30, 0x91	; 145
    41f8:	f0 e0       	ldi	r31, 0x00	; 0
    41fa:	80 81       	ld	r24, Z
    41fc:	82 60       	ori	r24, 0x02	; 2
    41fe:	80 83       	st	Z, r24
	sbi(TCCR3B, CS30);
    4200:	80 81       	ld	r24, Z
    4202:	81 60       	ori	r24, 0x01	; 1
    4204:	80 83       	st	Z, r24
	sbi(TCCR3A, WGM30);		// put timer 3 in 8-bit phase correct pwm mode
    4206:	e0 e9       	ldi	r30, 0x90	; 144
    4208:	f0 e0       	ldi	r31, 0x00	; 0
    420a:	80 81       	ld	r24, Z
    420c:	81 60       	ori	r24, 0x01	; 1
    420e:	80 83       	st	Z, r24
	sbi(TCCR4D, WGM40);		// put timer 4 in phase- and frequency-correct PWM mode	
	sbi(TCCR4A, PWM4A);		// enable PWM mode for comparator OCR4A
	sbi(TCCR4C, PWM4D);		// enable PWM mode for comparator OCR4D
#else /* beginning of timer4 block for ATMEGA1280 and ATMEGA2560 */
#if defined(TCCR4B) && defined(CS41) && defined(WGM40)
	sbi(TCCR4B, CS41);		// set timer 4 prescale factor to 64
    4210:	e1 ea       	ldi	r30, 0xA1	; 161
    4212:	f0 e0       	ldi	r31, 0x00	; 0
    4214:	80 81       	ld	r24, Z
    4216:	82 60       	ori	r24, 0x02	; 2
    4218:	80 83       	st	Z, r24
	sbi(TCCR4B, CS40);
    421a:	80 81       	ld	r24, Z
    421c:	81 60       	ori	r24, 0x01	; 1
    421e:	80 83       	st	Z, r24
	sbi(TCCR4A, WGM40);		// put timer 4 in 8-bit phase correct pwm mode
    4220:	e0 ea       	ldi	r30, 0xA0	; 160
    4222:	f0 e0       	ldi	r31, 0x00	; 0
    4224:	80 81       	ld	r24, Z
    4226:	81 60       	ori	r24, 0x01	; 1
    4228:	80 83       	st	Z, r24
#endif
#endif /* end timer4 block for ATMEGA1280/2560 and similar */	

#if defined(TCCR5B) && defined(CS51) && defined(WGM50)
	sbi(TCCR5B, CS51);		// set timer 5 prescale factor to 64
    422a:	e1 e2       	ldi	r30, 0x21	; 33
    422c:	f1 e0       	ldi	r31, 0x01	; 1
    422e:	80 81       	ld	r24, Z
    4230:	82 60       	ori	r24, 0x02	; 2
    4232:	80 83       	st	Z, r24
	sbi(TCCR5B, CS50);
    4234:	80 81       	ld	r24, Z
    4236:	81 60       	ori	r24, 0x01	; 1
    4238:	80 83       	st	Z, r24
	sbi(TCCR5A, WGM50);		// put timer 5 in 8-bit phase correct pwm mode
    423a:	e0 e2       	ldi	r30, 0x20	; 32
    423c:	f1 e0       	ldi	r31, 0x01	; 1
    423e:	80 81       	ld	r24, Z
    4240:	81 60       	ori	r24, 0x01	; 1
    4242:	80 83       	st	Z, r24
#endif

#if defined(ADCSRA)
	// set a2d prescaler so we are inside the desired 50-200 KHz range.
	#if F_CPU >= 16000000 // 16 MHz / 128 = 125 KHz
		sbi(ADCSRA, ADPS2);
    4244:	ea e7       	ldi	r30, 0x7A	; 122
    4246:	f0 e0       	ldi	r31, 0x00	; 0
    4248:	80 81       	ld	r24, Z
    424a:	84 60       	ori	r24, 0x04	; 4
    424c:	80 83       	st	Z, r24
		sbi(ADCSRA, ADPS1);
    424e:	80 81       	ld	r24, Z
    4250:	82 60       	ori	r24, 0x02	; 2
    4252:	80 83       	st	Z, r24
		sbi(ADCSRA, ADPS0);
    4254:	80 81       	ld	r24, Z
    4256:	81 60       	ori	r24, 0x01	; 1
    4258:	80 83       	st	Z, r24
		cbi(ADCSRA, ADPS2);
		cbi(ADCSRA, ADPS1);
		sbi(ADCSRA, ADPS0);
	#endif
	// enable a2d conversions
	sbi(ADCSRA, ADEN);
    425a:	80 81       	ld	r24, Z
    425c:	80 68       	ori	r24, 0x80	; 128
    425e:	80 83       	st	Z, r24
	// here so they can be used as normal digital i/o; they will be
	// reconnected in Serial.begin()
#if defined(UCSRB)
	UCSRB = 0;
#elif defined(UCSR0B)
	UCSR0B = 0;
    4260:	10 92 c1 00 	sts	0x00C1, r1	; 0x8000c1 <__TEXT_REGION_LENGTH__+0x7000c1>
    4264:	08 95       	ret

00004266 <analogWrite>:
// Right now, PWM output only works on the pins with
// hardware support.  These are defined in the appropriate
// pins_*.c file.  For the rest of the pins, we default
// to digital output.
void analogWrite(uint8_t pin, int val)
{
    4266:	1f 93       	push	r17
    4268:	cf 93       	push	r28
    426a:	df 93       	push	r29
    426c:	18 2f       	mov	r17, r24
    426e:	eb 01       	movw	r28, r22
	// We need to make sure the PWM output is enabled for those pins
	// that support it, as we turn it off when digitally reading or
	// writing with them.  Also, make sure the pin is in output mode
	// for consistenty with Wiring, which doesn't require a pinMode
	// call for the analog output pins.
	pinMode(pin, OUTPUT);
    4270:	61 e0       	ldi	r22, 0x01	; 1
    4272:	14 d1       	rcall	.+552    	; 0x449c <pinMode>
	if (val == 0)
    4274:	20 97       	sbiw	r28, 0x00	; 0
    4276:	11 f4       	brne	.+4      	; 0x427c <analogWrite+0x16>
	{
		digitalWrite(pin, LOW);
    4278:	60 e0       	ldi	r22, 0x00	; 0
    427a:	04 c0       	rjmp	.+8      	; 0x4284 <analogWrite+0x1e>
	}
	else if (val == 255)
    427c:	cf 3f       	cpi	r28, 0xFF	; 255
    427e:	d1 05       	cpc	r29, r1
    4280:	31 f4       	brne	.+12     	; 0x428e <analogWrite+0x28>
	{
		digitalWrite(pin, HIGH);
    4282:	61 e0       	ldi	r22, 0x01	; 1
    4284:	81 2f       	mov	r24, r17
				} else {
					digitalWrite(pin, HIGH);
				}
		}
	}
}
    4286:	df 91       	pop	r29
    4288:	cf 91       	pop	r28
    428a:	1f 91       	pop	r17
	{
		digitalWrite(pin, LOW);
	}
	else if (val == 255)
	{
		digitalWrite(pin, HIGH);
    428c:	43 c1       	rjmp	.+646    	; 0x4514 <digitalWrite>
	}
	else
	{
		switch(digitalPinToTimer(pin))
    428e:	e1 2f       	mov	r30, r17
    4290:	f0 e0       	ldi	r31, 0x00	; 0
    4292:	e7 59       	subi	r30, 0x97	; 151
    4294:	fe 4f       	sbci	r31, 0xFE	; 254
    4296:	e4 91       	lpm	r30, Z
    4298:	4e 2f       	mov	r20, r30
    429a:	50 e0       	ldi	r21, 0x00	; 0
    429c:	fa 01       	movw	r30, r20
    429e:	31 97       	sbiw	r30, 0x01	; 1
    42a0:	e2 31       	cpi	r30, 0x12	; 18
    42a2:	f1 05       	cpc	r31, r1
    42a4:	08 f0       	brcs	.+2      	; 0x42a8 <analogWrite+0x42>
    42a6:	9c c0       	rjmp	.+312    	; 0x43e0 <analogWrite+0x17a>
    42a8:	88 27       	eor	r24, r24
    42aa:	e0 57       	subi	r30, 0x70	; 112
    42ac:	ff 4f       	sbci	r31, 0xFF	; 255
    42ae:	8f 4f       	sbci	r24, 0xFF	; 255
    42b0:	00 c2       	rjmp	.+1024   	; 0x46b2 <__tablejump2__>
			#endif

			#if defined(TCCR0A) && defined(COM0A1)
			case TIMER0A:
				// connect pwm to pin on timer 0, channel A
				sbi(TCCR0A, COM0A1);
    42b2:	84 b5       	in	r24, 0x24	; 36
    42b4:	80 68       	ori	r24, 0x80	; 128
    42b6:	84 bd       	out	0x24, r24	; 36
				OCR0A = val; // set pwm duty
    42b8:	c7 bd       	out	0x27, r28	; 39
				break;
    42ba:	97 c0       	rjmp	.+302    	; 0x43ea <analogWrite+0x184>
			#endif

			#if defined(TCCR0A) && defined(COM0B1)
			case TIMER0B:
				// connect pwm to pin on timer 0, channel B
				sbi(TCCR0A, COM0B1);
    42bc:	84 b5       	in	r24, 0x24	; 36
    42be:	80 62       	ori	r24, 0x20	; 32
    42c0:	84 bd       	out	0x24, r24	; 36
				OCR0B = val; // set pwm duty
    42c2:	c8 bd       	out	0x28, r28	; 40
				break;
    42c4:	92 c0       	rjmp	.+292    	; 0x43ea <analogWrite+0x184>
			#endif

			#if defined(TCCR1A) && defined(COM1A1)
			case TIMER1A:
				// connect pwm to pin on timer 1, channel A
				sbi(TCCR1A, COM1A1);
    42c6:	80 91 80 00 	lds	r24, 0x0080	; 0x800080 <__TEXT_REGION_LENGTH__+0x700080>
    42ca:	80 68       	ori	r24, 0x80	; 128
    42cc:	80 93 80 00 	sts	0x0080, r24	; 0x800080 <__TEXT_REGION_LENGTH__+0x700080>
				OCR1A = val; // set pwm duty
    42d0:	d0 93 89 00 	sts	0x0089, r29	; 0x800089 <__TEXT_REGION_LENGTH__+0x700089>
    42d4:	c0 93 88 00 	sts	0x0088, r28	; 0x800088 <__TEXT_REGION_LENGTH__+0x700088>
				break;
    42d8:	88 c0       	rjmp	.+272    	; 0x43ea <analogWrite+0x184>
			#endif

			#if defined(TCCR1A) && defined(COM1B1)
			case TIMER1B:
				// connect pwm to pin on timer 1, channel B
				sbi(TCCR1A, COM1B1);
    42da:	80 91 80 00 	lds	r24, 0x0080	; 0x800080 <__TEXT_REGION_LENGTH__+0x700080>
    42de:	80 62       	ori	r24, 0x20	; 32
    42e0:	80 93 80 00 	sts	0x0080, r24	; 0x800080 <__TEXT_REGION_LENGTH__+0x700080>
				OCR1B = val; // set pwm duty
    42e4:	d0 93 8b 00 	sts	0x008B, r29	; 0x80008b <__TEXT_REGION_LENGTH__+0x70008b>
    42e8:	c0 93 8a 00 	sts	0x008A, r28	; 0x80008a <__TEXT_REGION_LENGTH__+0x70008a>
				break;
    42ec:	7e c0       	rjmp	.+252    	; 0x43ea <analogWrite+0x184>
			#endif

			#if defined(TCCR1A) && defined(COM1C1)
			case TIMER1C:
				// connect pwm to pin on timer 1, channel B
				sbi(TCCR1A, COM1C1);
    42ee:	80 91 80 00 	lds	r24, 0x0080	; 0x800080 <__TEXT_REGION_LENGTH__+0x700080>
    42f2:	88 60       	ori	r24, 0x08	; 8
    42f4:	80 93 80 00 	sts	0x0080, r24	; 0x800080 <__TEXT_REGION_LENGTH__+0x700080>
				OCR1C = val; // set pwm duty
    42f8:	d0 93 8d 00 	sts	0x008D, r29	; 0x80008d <__TEXT_REGION_LENGTH__+0x70008d>
    42fc:	c0 93 8c 00 	sts	0x008C, r28	; 0x80008c <__TEXT_REGION_LENGTH__+0x70008c>
				break;
    4300:	74 c0       	rjmp	.+232    	; 0x43ea <analogWrite+0x184>
			#endif

			#if defined(TCCR2A) && defined(COM2A1)
			case TIMER2A:
				// connect pwm to pin on timer 2, channel A
				sbi(TCCR2A, COM2A1);
    4302:	80 91 b0 00 	lds	r24, 0x00B0	; 0x8000b0 <__TEXT_REGION_LENGTH__+0x7000b0>
    4306:	80 68       	ori	r24, 0x80	; 128
    4308:	80 93 b0 00 	sts	0x00B0, r24	; 0x8000b0 <__TEXT_REGION_LENGTH__+0x7000b0>
				OCR2A = val; // set pwm duty
    430c:	c0 93 b3 00 	sts	0x00B3, r28	; 0x8000b3 <__TEXT_REGION_LENGTH__+0x7000b3>
				break;
    4310:	6c c0       	rjmp	.+216    	; 0x43ea <analogWrite+0x184>
			#endif

			#if defined(TCCR2A) && defined(COM2B1)
			case TIMER2B:
				// connect pwm to pin on timer 2, channel B
				sbi(TCCR2A, COM2B1);
    4312:	80 91 b0 00 	lds	r24, 0x00B0	; 0x8000b0 <__TEXT_REGION_LENGTH__+0x7000b0>
    4316:	80 62       	ori	r24, 0x20	; 32
    4318:	80 93 b0 00 	sts	0x00B0, r24	; 0x8000b0 <__TEXT_REGION_LENGTH__+0x7000b0>
				OCR2B = val; // set pwm duty
    431c:	c0 93 b4 00 	sts	0x00B4, r28	; 0x8000b4 <__TEXT_REGION_LENGTH__+0x7000b4>
				break;
    4320:	64 c0       	rjmp	.+200    	; 0x43ea <analogWrite+0x184>
			#endif

			#if defined(TCCR3A) && defined(COM3A1)
			case TIMER3A:
				// connect pwm to pin on timer 3, channel A
				sbi(TCCR3A, COM3A1);
    4322:	80 91 90 00 	lds	r24, 0x0090	; 0x800090 <__TEXT_REGION_LENGTH__+0x700090>
    4326:	80 68       	ori	r24, 0x80	; 128
    4328:	80 93 90 00 	sts	0x0090, r24	; 0x800090 <__TEXT_REGION_LENGTH__+0x700090>
				OCR3A = val; // set pwm duty
    432c:	d0 93 99 00 	sts	0x0099, r29	; 0x800099 <__TEXT_REGION_LENGTH__+0x700099>
    4330:	c0 93 98 00 	sts	0x0098, r28	; 0x800098 <__TEXT_REGION_LENGTH__+0x700098>
				break;
    4334:	5a c0       	rjmp	.+180    	; 0x43ea <analogWrite+0x184>
			#endif

			#if defined(TCCR3A) && defined(COM3B1)
			case TIMER3B:
				// connect pwm to pin on timer 3, channel B
				sbi(TCCR3A, COM3B1);
    4336:	80 91 90 00 	lds	r24, 0x0090	; 0x800090 <__TEXT_REGION_LENGTH__+0x700090>
    433a:	80 62       	ori	r24, 0x20	; 32
    433c:	80 93 90 00 	sts	0x0090, r24	; 0x800090 <__TEXT_REGION_LENGTH__+0x700090>
				OCR3B = val; // set pwm duty
    4340:	d0 93 9b 00 	sts	0x009B, r29	; 0x80009b <__TEXT_REGION_LENGTH__+0x70009b>
    4344:	c0 93 9a 00 	sts	0x009A, r28	; 0x80009a <__TEXT_REGION_LENGTH__+0x70009a>
				break;
    4348:	50 c0       	rjmp	.+160    	; 0x43ea <analogWrite+0x184>
			#endif

			#if defined(TCCR3A) && defined(COM3C1)
			case TIMER3C:
				// connect pwm to pin on timer 3, channel C
				sbi(TCCR3A, COM3C1);
    434a:	80 91 90 00 	lds	r24, 0x0090	; 0x800090 <__TEXT_REGION_LENGTH__+0x700090>
    434e:	88 60       	ori	r24, 0x08	; 8
    4350:	80 93 90 00 	sts	0x0090, r24	; 0x800090 <__TEXT_REGION_LENGTH__+0x700090>
				OCR3C = val; // set pwm duty
    4354:	d0 93 9d 00 	sts	0x009D, r29	; 0x80009d <__TEXT_REGION_LENGTH__+0x70009d>
    4358:	c0 93 9c 00 	sts	0x009C, r28	; 0x80009c <__TEXT_REGION_LENGTH__+0x70009c>
				break;
    435c:	46 c0       	rjmp	.+140    	; 0x43ea <analogWrite+0x184>
			#endif

			#if defined(TCCR4A)
			case TIMER4A:
				//connect pwm to pin on timer 4, channel A
				sbi(TCCR4A, COM4A1);
    435e:	80 91 a0 00 	lds	r24, 0x00A0	; 0x8000a0 <__TEXT_REGION_LENGTH__+0x7000a0>
    4362:	80 68       	ori	r24, 0x80	; 128
    4364:	80 93 a0 00 	sts	0x00A0, r24	; 0x8000a0 <__TEXT_REGION_LENGTH__+0x7000a0>
				#if defined(COM4A0)		// only used on 32U4
				cbi(TCCR4A, COM4A0);
    4368:	80 91 a0 00 	lds	r24, 0x00A0	; 0x8000a0 <__TEXT_REGION_LENGTH__+0x7000a0>
    436c:	8f 7b       	andi	r24, 0xBF	; 191
    436e:	80 93 a0 00 	sts	0x00A0, r24	; 0x8000a0 <__TEXT_REGION_LENGTH__+0x7000a0>
				#endif
				OCR4A = val;	// set pwm duty
    4372:	d0 93 a9 00 	sts	0x00A9, r29	; 0x8000a9 <__TEXT_REGION_LENGTH__+0x7000a9>
    4376:	c0 93 a8 00 	sts	0x00A8, r28	; 0x8000a8 <__TEXT_REGION_LENGTH__+0x7000a8>
				break;
    437a:	37 c0       	rjmp	.+110    	; 0x43ea <analogWrite+0x184>
			#endif
			
			#if defined(TCCR4A) && defined(COM4B1)
			case TIMER4B:
				// connect pwm to pin on timer 4, channel B
				sbi(TCCR4A, COM4B1);
    437c:	80 91 a0 00 	lds	r24, 0x00A0	; 0x8000a0 <__TEXT_REGION_LENGTH__+0x7000a0>
    4380:	80 62       	ori	r24, 0x20	; 32
    4382:	80 93 a0 00 	sts	0x00A0, r24	; 0x8000a0 <__TEXT_REGION_LENGTH__+0x7000a0>
				OCR4B = val; // set pwm duty
    4386:	d0 93 ab 00 	sts	0x00AB, r29	; 0x8000ab <__TEXT_REGION_LENGTH__+0x7000ab>
    438a:	c0 93 aa 00 	sts	0x00AA, r28	; 0x8000aa <__TEXT_REGION_LENGTH__+0x7000aa>
				break;
    438e:	2d c0       	rjmp	.+90     	; 0x43ea <analogWrite+0x184>
			#endif

			#if defined(TCCR4A) && defined(COM4C1)
			case TIMER4C:
				// connect pwm to pin on timer 4, channel C
				sbi(TCCR4A, COM4C1);
    4390:	80 91 a0 00 	lds	r24, 0x00A0	; 0x8000a0 <__TEXT_REGION_LENGTH__+0x7000a0>
    4394:	88 60       	ori	r24, 0x08	; 8
    4396:	80 93 a0 00 	sts	0x00A0, r24	; 0x8000a0 <__TEXT_REGION_LENGTH__+0x7000a0>
				OCR4C = val; // set pwm duty
    439a:	d0 93 ad 00 	sts	0x00AD, r29	; 0x8000ad <__TEXT_REGION_LENGTH__+0x7000ad>
    439e:	c0 93 ac 00 	sts	0x00AC, r28	; 0x8000ac <__TEXT_REGION_LENGTH__+0x7000ac>
				break;
    43a2:	23 c0       	rjmp	.+70     	; 0x43ea <analogWrite+0x184>

							
			#if defined(TCCR5A) && defined(COM5A1)
			case TIMER5A:
				// connect pwm to pin on timer 5, channel A
				sbi(TCCR5A, COM5A1);
    43a4:	80 91 20 01 	lds	r24, 0x0120	; 0x800120 <__TEXT_REGION_LENGTH__+0x700120>
    43a8:	80 68       	ori	r24, 0x80	; 128
    43aa:	80 93 20 01 	sts	0x0120, r24	; 0x800120 <__TEXT_REGION_LENGTH__+0x700120>
				OCR5A = val; // set pwm duty
    43ae:	d0 93 29 01 	sts	0x0129, r29	; 0x800129 <__TEXT_REGION_LENGTH__+0x700129>
    43b2:	c0 93 28 01 	sts	0x0128, r28	; 0x800128 <__TEXT_REGION_LENGTH__+0x700128>
				break;
    43b6:	19 c0       	rjmp	.+50     	; 0x43ea <analogWrite+0x184>
			#endif

			#if defined(TCCR5A) && defined(COM5B1)
			case TIMER5B:
				// connect pwm to pin on timer 5, channel B
				sbi(TCCR5A, COM5B1);
    43b8:	80 91 20 01 	lds	r24, 0x0120	; 0x800120 <__TEXT_REGION_LENGTH__+0x700120>
    43bc:	80 62       	ori	r24, 0x20	; 32
    43be:	80 93 20 01 	sts	0x0120, r24	; 0x800120 <__TEXT_REGION_LENGTH__+0x700120>
				OCR5B = val; // set pwm duty
    43c2:	d0 93 2b 01 	sts	0x012B, r29	; 0x80012b <__TEXT_REGION_LENGTH__+0x70012b>
    43c6:	c0 93 2a 01 	sts	0x012A, r28	; 0x80012a <__TEXT_REGION_LENGTH__+0x70012a>
				break;
    43ca:	0f c0       	rjmp	.+30     	; 0x43ea <analogWrite+0x184>
			#endif

			#if defined(TCCR5A) && defined(COM5C1)
			case TIMER5C:
				// connect pwm to pin on timer 5, channel C
				sbi(TCCR5A, COM5C1);
    43cc:	80 91 20 01 	lds	r24, 0x0120	; 0x800120 <__TEXT_REGION_LENGTH__+0x700120>
    43d0:	88 60       	ori	r24, 0x08	; 8
    43d2:	80 93 20 01 	sts	0x0120, r24	; 0x800120 <__TEXT_REGION_LENGTH__+0x700120>
				OCR5C = val; // set pwm duty
    43d6:	d0 93 2d 01 	sts	0x012D, r29	; 0x80012d <__TEXT_REGION_LENGTH__+0x70012d>
    43da:	c0 93 2c 01 	sts	0x012C, r28	; 0x80012c <__TEXT_REGION_LENGTH__+0x70012c>
				break;
    43de:	05 c0       	rjmp	.+10     	; 0x43ea <analogWrite+0x184>
			#endif

			case NOT_ON_TIMER:
			default:
				if (val < 128) {
    43e0:	c0 38       	cpi	r28, 0x80	; 128
    43e2:	d1 05       	cpc	r29, r1
    43e4:	0c f0       	brlt	.+2      	; 0x43e8 <analogWrite+0x182>
    43e6:	4d cf       	rjmp	.-358    	; 0x4282 <analogWrite+0x1c>
    43e8:	47 cf       	rjmp	.-370    	; 0x4278 <analogWrite+0x12>
				} else {
					digitalWrite(pin, HIGH);
				}
		}
	}
}
    43ea:	df 91       	pop	r29
    43ec:	cf 91       	pop	r28
    43ee:	1f 91       	pop	r17
    43f0:	08 95       	ret

000043f2 <turnOffPWM>:
//
//static inline void turnOffPWM(uint8_t timer) __attribute__ ((always_inline));
//static inline void turnOffPWM(uint8_t timer)
static void turnOffPWM(uint8_t timer)
{
	switch (timer)
    43f2:	90 e0       	ldi	r25, 0x00	; 0
    43f4:	fc 01       	movw	r30, r24
    43f6:	31 97       	sbiw	r30, 0x01	; 1
    43f8:	e2 31       	cpi	r30, 0x12	; 18
    43fa:	f1 05       	cpc	r31, r1
    43fc:	08 f0       	brcs	.+2      	; 0x4400 <turnOffPWM+0xe>
    43fe:	4d c0       	rjmp	.+154    	; 0x449a <turnOffPWM+0xa8>
    4400:	88 27       	eor	r24, r24
    4402:	ee 55       	subi	r30, 0x5E	; 94
    4404:	ff 4f       	sbci	r31, 0xFF	; 255
    4406:	8f 4f       	sbci	r24, 0xFF	; 255
    4408:	54 c1       	rjmp	.+680    	; 0x46b2 <__tablejump2__>
	{
		#if defined(TCCR1A) && defined(COM1A1)
		case TIMER1A:   cbi(TCCR1A, COM1A1);    break;
    440a:	80 91 80 00 	lds	r24, 0x0080	; 0x800080 <__TEXT_REGION_LENGTH__+0x700080>
    440e:	8f 77       	andi	r24, 0x7F	; 127
    4410:	03 c0       	rjmp	.+6      	; 0x4418 <turnOffPWM+0x26>
		#endif
		#if defined(TCCR1A) && defined(COM1B1)
		case TIMER1B:   cbi(TCCR1A, COM1B1);    break;
    4412:	80 91 80 00 	lds	r24, 0x0080	; 0x800080 <__TEXT_REGION_LENGTH__+0x700080>
    4416:	8f 7d       	andi	r24, 0xDF	; 223
    4418:	80 93 80 00 	sts	0x0080, r24	; 0x800080 <__TEXT_REGION_LENGTH__+0x700080>
    441c:	08 95       	ret
		#endif
		#if defined(TCCR1A) && defined(COM1C1)
		case TIMER1C:   cbi(TCCR1A, COM1C1);    break;
    441e:	80 91 80 00 	lds	r24, 0x0080	; 0x800080 <__TEXT_REGION_LENGTH__+0x700080>
    4422:	87 7f       	andi	r24, 0xF7	; 247
    4424:	f9 cf       	rjmp	.-14     	; 0x4418 <turnOffPWM+0x26>
		#if defined(TCCR2) && defined(COM21)
		case  TIMER2:   cbi(TCCR2, COM21);      break;
		#endif
		
		#if defined(TCCR0A) && defined(COM0A1)
		case  TIMER0A:  cbi(TCCR0A, COM0A1);    break;
    4426:	84 b5       	in	r24, 0x24	; 36
    4428:	8f 77       	andi	r24, 0x7F	; 127
    442a:	02 c0       	rjmp	.+4      	; 0x4430 <turnOffPWM+0x3e>
		#endif
		
		#if defined(TCCR0A) && defined(COM0B1)
		case  TIMER0B:  cbi(TCCR0A, COM0B1);    break;
    442c:	84 b5       	in	r24, 0x24	; 36
    442e:	8f 7d       	andi	r24, 0xDF	; 223
    4430:	84 bd       	out	0x24, r24	; 36
    4432:	08 95       	ret
		#endif
		#if defined(TCCR2A) && defined(COM2A1)
		case  TIMER2A:  cbi(TCCR2A, COM2A1);    break;
    4434:	80 91 b0 00 	lds	r24, 0x00B0	; 0x8000b0 <__TEXT_REGION_LENGTH__+0x7000b0>
    4438:	8f 77       	andi	r24, 0x7F	; 127
    443a:	03 c0       	rjmp	.+6      	; 0x4442 <turnOffPWM+0x50>
		#endif
		#if defined(TCCR2A) && defined(COM2B1)
		case  TIMER2B:  cbi(TCCR2A, COM2B1);    break;
    443c:	80 91 b0 00 	lds	r24, 0x00B0	; 0x8000b0 <__TEXT_REGION_LENGTH__+0x7000b0>
    4440:	8f 7d       	andi	r24, 0xDF	; 223
    4442:	80 93 b0 00 	sts	0x00B0, r24	; 0x8000b0 <__TEXT_REGION_LENGTH__+0x7000b0>
    4446:	08 95       	ret
		#endif
		
		#if defined(TCCR3A) && defined(COM3A1)
		case  TIMER3A:  cbi(TCCR3A, COM3A1);    break;
    4448:	80 91 90 00 	lds	r24, 0x0090	; 0x800090 <__TEXT_REGION_LENGTH__+0x700090>
    444c:	8f 77       	andi	r24, 0x7F	; 127
    444e:	07 c0       	rjmp	.+14     	; 0x445e <turnOffPWM+0x6c>
		#endif
		#if defined(TCCR3A) && defined(COM3B1)
		case  TIMER3B:  cbi(TCCR3A, COM3B1);    break;
    4450:	80 91 90 00 	lds	r24, 0x0090	; 0x800090 <__TEXT_REGION_LENGTH__+0x700090>
    4454:	8f 7d       	andi	r24, 0xDF	; 223
    4456:	03 c0       	rjmp	.+6      	; 0x445e <turnOffPWM+0x6c>
		#endif
		#if defined(TCCR3A) && defined(COM3C1)
		case  TIMER3C:  cbi(TCCR3A, COM3C1);    break;
    4458:	80 91 90 00 	lds	r24, 0x0090	; 0x800090 <__TEXT_REGION_LENGTH__+0x700090>
    445c:	87 7f       	andi	r24, 0xF7	; 247
    445e:	80 93 90 00 	sts	0x0090, r24	; 0x800090 <__TEXT_REGION_LENGTH__+0x700090>
    4462:	08 95       	ret
		#endif

		#if defined(TCCR4A) && defined(COM4A1)
		case  TIMER4A:  cbi(TCCR4A, COM4A1);    break;
    4464:	80 91 a0 00 	lds	r24, 0x00A0	; 0x8000a0 <__TEXT_REGION_LENGTH__+0x7000a0>
    4468:	8f 77       	andi	r24, 0x7F	; 127
    446a:	07 c0       	rjmp	.+14     	; 0x447a <turnOffPWM+0x88>
		#endif					
		#if defined(TCCR4A) && defined(COM4B1)
		case  TIMER4B:  cbi(TCCR4A, COM4B1);    break;
    446c:	80 91 a0 00 	lds	r24, 0x00A0	; 0x8000a0 <__TEXT_REGION_LENGTH__+0x7000a0>
    4470:	8f 7d       	andi	r24, 0xDF	; 223
    4472:	03 c0       	rjmp	.+6      	; 0x447a <turnOffPWM+0x88>
		#endif
		#if defined(TCCR4A) && defined(COM4C1)
		case  TIMER4C:  cbi(TCCR4A, COM4C1);    break;
    4474:	80 91 a0 00 	lds	r24, 0x00A0	; 0x8000a0 <__TEXT_REGION_LENGTH__+0x7000a0>
    4478:	87 7f       	andi	r24, 0xF7	; 247
    447a:	80 93 a0 00 	sts	0x00A0, r24	; 0x8000a0 <__TEXT_REGION_LENGTH__+0x7000a0>
    447e:	08 95       	ret
		#if defined(TCCR4C) && defined(COM4D1)
		case TIMER4D:	cbi(TCCR4C, COM4D1);	break;
		#endif			
			
		#if defined(TCCR5A)
		case  TIMER5A:  cbi(TCCR5A, COM5A1);    break;
    4480:	80 91 20 01 	lds	r24, 0x0120	; 0x800120 <__TEXT_REGION_LENGTH__+0x700120>
    4484:	8f 77       	andi	r24, 0x7F	; 127
    4486:	07 c0       	rjmp	.+14     	; 0x4496 <turnOffPWM+0xa4>
		case  TIMER5B:  cbi(TCCR5A, COM5B1);    break;
    4488:	80 91 20 01 	lds	r24, 0x0120	; 0x800120 <__TEXT_REGION_LENGTH__+0x700120>
    448c:	8f 7d       	andi	r24, 0xDF	; 223
    448e:	03 c0       	rjmp	.+6      	; 0x4496 <turnOffPWM+0xa4>
		case  TIMER5C:  cbi(TCCR5A, COM5C1);    break;
    4490:	80 91 20 01 	lds	r24, 0x0120	; 0x800120 <__TEXT_REGION_LENGTH__+0x700120>
    4494:	87 7f       	andi	r24, 0xF7	; 247
    4496:	80 93 20 01 	sts	0x0120, r24	; 0x800120 <__TEXT_REGION_LENGTH__+0x700120>
    449a:	08 95       	ret

0000449c <pinMode>:
#define ARDUINO_MAIN
#include "wiring_private.h"
#include "pins_arduino.h"

void pinMode(uint8_t pin, uint8_t mode)
{
    449c:	cf 93       	push	r28
    449e:	df 93       	push	r29
	uint8_t bit = digitalPinToBitMask(pin);
    44a0:	90 e0       	ldi	r25, 0x00	; 0
    44a2:	fc 01       	movw	r30, r24
    44a4:	e1 55       	subi	r30, 0x51	; 81
    44a6:	fe 4f       	sbci	r31, 0xFE	; 254
    44a8:	24 91       	lpm	r18, Z
	uint8_t port = digitalPinToPort(pin);
    44aa:	fc 01       	movw	r30, r24
    44ac:	eb 50       	subi	r30, 0x0B	; 11
    44ae:	fe 4f       	sbci	r31, 0xFE	; 254
    44b0:	84 91       	lpm	r24, Z
	volatile uint8_t *reg, *out;

	if (port == NOT_A_PIN) return;
    44b2:	88 23       	and	r24, r24
    44b4:	61 f1       	breq	.+88     	; 0x450e <pinMode+0x72>

	// JWS: can I let the optimizer do this?
	reg = portModeRegister(port);
    44b6:	90 e0       	ldi	r25, 0x00	; 0
    44b8:	88 0f       	add	r24, r24
    44ba:	99 1f       	adc	r25, r25
    44bc:	fc 01       	movw	r30, r24
    44be:	eb 5a       	subi	r30, 0xAB	; 171
    44c0:	fd 4f       	sbci	r31, 0xFD	; 253
    44c2:	c5 91       	lpm	r28, Z+
    44c4:	d4 91       	lpm	r29, Z
	out = portOutputRegister(port);
    44c6:	fc 01       	movw	r30, r24
    44c8:	e5 5c       	subi	r30, 0xC5	; 197
    44ca:	fd 4f       	sbci	r31, 0xFD	; 253
    44cc:	a5 91       	lpm	r26, Z+
    44ce:	b4 91       	lpm	r27, Z

	if (mode == INPUT) { 
    44d0:	61 11       	cpse	r22, r1
    44d2:	09 c0       	rjmp	.+18     	; 0x44e6 <pinMode+0x4a>
		uint8_t oldSREG = SREG;
    44d4:	9f b7       	in	r25, 0x3f	; 63
                cli();
    44d6:	f8 94       	cli
		*reg &= ~bit;
    44d8:	88 81       	ld	r24, Y
    44da:	20 95       	com	r18
    44dc:	82 23       	and	r24, r18
    44de:	88 83       	st	Y, r24
		*out &= ~bit;
    44e0:	ec 91       	ld	r30, X
    44e2:	2e 23       	and	r18, r30
    44e4:	0b c0       	rjmp	.+22     	; 0x44fc <pinMode+0x60>
		SREG = oldSREG;
	} else if (mode == INPUT_PULLUP) {
    44e6:	62 30       	cpi	r22, 0x02	; 2
    44e8:	61 f4       	brne	.+24     	; 0x4502 <pinMode+0x66>
		uint8_t oldSREG = SREG;
    44ea:	9f b7       	in	r25, 0x3f	; 63
                cli();
    44ec:	f8 94       	cli
		*reg &= ~bit;
    44ee:	38 81       	ld	r19, Y
    44f0:	82 2f       	mov	r24, r18
    44f2:	80 95       	com	r24
    44f4:	83 23       	and	r24, r19
    44f6:	88 83       	st	Y, r24
		*out |= bit;
    44f8:	ec 91       	ld	r30, X
    44fa:	2e 2b       	or	r18, r30
    44fc:	2c 93       	st	X, r18
		SREG = oldSREG;
    44fe:	9f bf       	out	0x3f, r25	; 63
    4500:	06 c0       	rjmp	.+12     	; 0x450e <pinMode+0x72>
	} else {
		uint8_t oldSREG = SREG;
    4502:	8f b7       	in	r24, 0x3f	; 63
                cli();
    4504:	f8 94       	cli
		*reg |= bit;
    4506:	e8 81       	ld	r30, Y
    4508:	2e 2b       	or	r18, r30
    450a:	28 83       	st	Y, r18
		SREG = oldSREG;
    450c:	8f bf       	out	0x3f, r24	; 63
	}
}
    450e:	df 91       	pop	r29
    4510:	cf 91       	pop	r28
    4512:	08 95       	ret

00004514 <digitalWrite>:
		#endif
	}
}

void digitalWrite(uint8_t pin, uint8_t val)
{
    4514:	1f 93       	push	r17
    4516:	cf 93       	push	r28
    4518:	df 93       	push	r29
	uint8_t timer = digitalPinToTimer(pin);
    451a:	28 2f       	mov	r18, r24
    451c:	30 e0       	ldi	r19, 0x00	; 0
    451e:	f9 01       	movw	r30, r18
    4520:	e7 59       	subi	r30, 0x97	; 151
    4522:	fe 4f       	sbci	r31, 0xFE	; 254
    4524:	84 91       	lpm	r24, Z
	uint8_t bit = digitalPinToBitMask(pin);
    4526:	f9 01       	movw	r30, r18
    4528:	e1 55       	subi	r30, 0x51	; 81
    452a:	fe 4f       	sbci	r31, 0xFE	; 254
    452c:	d4 91       	lpm	r29, Z
	uint8_t port = digitalPinToPort(pin);
    452e:	f9 01       	movw	r30, r18
    4530:	eb 50       	subi	r30, 0x0B	; 11
    4532:	fe 4f       	sbci	r31, 0xFE	; 254
    4534:	c4 91       	lpm	r28, Z
	volatile uint8_t *out;

	if (port == NOT_A_PIN) return;
    4536:	cc 23       	and	r28, r28
    4538:	c1 f0       	breq	.+48     	; 0x456a <digitalWrite+0x56>
    453a:	16 2f       	mov	r17, r22

	// If the pin that support PWM output, we need to turn it off
	// before doing a digital write.
	if (timer != NOT_ON_TIMER) turnOffPWM(timer);
    453c:	81 11       	cpse	r24, r1
    453e:	59 df       	rcall	.-334    	; 0x43f2 <turnOffPWM>

	out = portOutputRegister(port);
    4540:	ec 2f       	mov	r30, r28
    4542:	f0 e0       	ldi	r31, 0x00	; 0
    4544:	ee 0f       	add	r30, r30
    4546:	ff 1f       	adc	r31, r31
    4548:	e5 5c       	subi	r30, 0xC5	; 197
    454a:	fd 4f       	sbci	r31, 0xFD	; 253
    454c:	a5 91       	lpm	r26, Z+
    454e:	b4 91       	lpm	r27, Z

	uint8_t oldSREG = SREG;
    4550:	8f b7       	in	r24, 0x3f	; 63
	cli();
    4552:	f8 94       	cli

	if (val == LOW) {
    4554:	11 11       	cpse	r17, r1
    4556:	05 c0       	rjmp	.+10     	; 0x4562 <digitalWrite+0x4e>
		*out &= ~bit;
    4558:	9c 91       	ld	r25, X
    455a:	ed 2f       	mov	r30, r29
    455c:	e0 95       	com	r30
    455e:	e9 23       	and	r30, r25
    4560:	02 c0       	rjmp	.+4      	; 0x4566 <digitalWrite+0x52>
	} else {
		*out |= bit;
    4562:	ec 91       	ld	r30, X
    4564:	ed 2b       	or	r30, r29
    4566:	ec 93       	st	X, r30
	}

	SREG = oldSREG;
    4568:	8f bf       	out	0x3f, r24	; 63
}
    456a:	df 91       	pop	r29
    456c:	cf 91       	pop	r28
    456e:	1f 91       	pop	r17
    4570:	08 95       	ret

00004572 <_Z3maplllll>:
  long diff = howbig - howsmall;
  return random(diff) + howsmall;
}

long map(long x, long in_min, long in_max, long out_min, long out_max)
{
    4572:	4f 92       	push	r4
    4574:	5f 92       	push	r5
    4576:	6f 92       	push	r6
    4578:	7f 92       	push	r7
    457a:	af 92       	push	r10
    457c:	bf 92       	push	r11
    457e:	cf 92       	push	r12
    4580:	df 92       	push	r13
    4582:	ef 92       	push	r14
    4584:	ff 92       	push	r15
    4586:	0f 93       	push	r16
    4588:	1f 93       	push	r17
    458a:	cf 93       	push	r28
    458c:	df 93       	push	r29
    458e:	cd b7       	in	r28, 0x3d	; 61
    4590:	de b7       	in	r29, 0x3e	; 62
    4592:	29 01       	movw	r4, r18
    4594:	3a 01       	movw	r6, r20
  return (x - in_min) * (out_max - out_min) / (in_max - in_min) + out_min;
    4596:	9b 01       	movw	r18, r22
    4598:	ac 01       	movw	r20, r24
    459a:	24 19       	sub	r18, r4
    459c:	35 09       	sbc	r19, r5
    459e:	46 09       	sbc	r20, r6
    45a0:	57 09       	sbc	r21, r7
    45a2:	8a 89       	ldd	r24, Y+18	; 0x12
    45a4:	9b 89       	ldd	r25, Y+19	; 0x13
    45a6:	ac 89       	ldd	r26, Y+20	; 0x14
    45a8:	bd 89       	ldd	r27, Y+21	; 0x15
    45aa:	bc 01       	movw	r22, r24
    45ac:	cd 01       	movw	r24, r26
    45ae:	6a 19       	sub	r22, r10
    45b0:	7b 09       	sbc	r23, r11
    45b2:	8c 09       	sbc	r24, r12
    45b4:	9d 09       	sbc	r25, r13
    45b6:	1c d0       	rcall	.+56     	; 0x45f0 <__mulsi3>
    45b8:	a8 01       	movw	r20, r16
    45ba:	97 01       	movw	r18, r14
    45bc:	24 19       	sub	r18, r4
    45be:	35 09       	sbc	r19, r5
    45c0:	46 09       	sbc	r20, r6
    45c2:	57 09       	sbc	r21, r7
    45c4:	5a d0       	rcall	.+180    	; 0x467a <__divmodsi4>
    45c6:	ca 01       	movw	r24, r20
    45c8:	b9 01       	movw	r22, r18
    45ca:	6a 0d       	add	r22, r10
    45cc:	7b 1d       	adc	r23, r11
    45ce:	8c 1d       	adc	r24, r12
    45d0:	9d 1d       	adc	r25, r13
}
    45d2:	df 91       	pop	r29
    45d4:	cf 91       	pop	r28
    45d6:	1f 91       	pop	r17
    45d8:	0f 91       	pop	r16
    45da:	ff 90       	pop	r15
    45dc:	ef 90       	pop	r14
    45de:	df 90       	pop	r13
    45e0:	cf 90       	pop	r12
    45e2:	bf 90       	pop	r11
    45e4:	af 90       	pop	r10
    45e6:	7f 90       	pop	r7
    45e8:	6f 90       	pop	r6
    45ea:	5f 90       	pop	r5
    45ec:	4f 90       	pop	r4
    45ee:	08 95       	ret

000045f0 <__mulsi3>:
    45f0:	db 01       	movw	r26, r22
    45f2:	8f 93       	push	r24
    45f4:	9f 93       	push	r25
    45f6:	65 d0       	rcall	.+202    	; 0x46c2 <__muluhisi3>
    45f8:	bf 91       	pop	r27
    45fa:	af 91       	pop	r26
    45fc:	a2 9f       	mul	r26, r18
    45fe:	80 0d       	add	r24, r0
    4600:	91 1d       	adc	r25, r1
    4602:	a3 9f       	mul	r26, r19
    4604:	90 0d       	add	r25, r0
    4606:	b2 9f       	mul	r27, r18
    4608:	90 0d       	add	r25, r0
    460a:	11 24       	eor	r1, r1
    460c:	08 95       	ret

0000460e <__udivmodhi4>:
    460e:	aa 1b       	sub	r26, r26
    4610:	bb 1b       	sub	r27, r27
    4612:	51 e1       	ldi	r21, 0x11	; 17
    4614:	07 c0       	rjmp	.+14     	; 0x4624 <__udivmodhi4_ep>

00004616 <__udivmodhi4_loop>:
    4616:	aa 1f       	adc	r26, r26
    4618:	bb 1f       	adc	r27, r27
    461a:	a6 17       	cp	r26, r22
    461c:	b7 07       	cpc	r27, r23
    461e:	10 f0       	brcs	.+4      	; 0x4624 <__udivmodhi4_ep>
    4620:	a6 1b       	sub	r26, r22
    4622:	b7 0b       	sbc	r27, r23

00004624 <__udivmodhi4_ep>:
    4624:	88 1f       	adc	r24, r24
    4626:	99 1f       	adc	r25, r25
    4628:	5a 95       	dec	r21
    462a:	a9 f7       	brne	.-22     	; 0x4616 <__udivmodhi4_loop>
    462c:	80 95       	com	r24
    462e:	90 95       	com	r25
    4630:	bc 01       	movw	r22, r24
    4632:	cd 01       	movw	r24, r26
    4634:	08 95       	ret

00004636 <__udivmodsi4>:
    4636:	a1 e2       	ldi	r26, 0x21	; 33
    4638:	1a 2e       	mov	r1, r26
    463a:	aa 1b       	sub	r26, r26
    463c:	bb 1b       	sub	r27, r27
    463e:	fd 01       	movw	r30, r26
    4640:	0d c0       	rjmp	.+26     	; 0x465c <__udivmodsi4_ep>

00004642 <__udivmodsi4_loop>:
    4642:	aa 1f       	adc	r26, r26
    4644:	bb 1f       	adc	r27, r27
    4646:	ee 1f       	adc	r30, r30
    4648:	ff 1f       	adc	r31, r31
    464a:	a2 17       	cp	r26, r18
    464c:	b3 07       	cpc	r27, r19
    464e:	e4 07       	cpc	r30, r20
    4650:	f5 07       	cpc	r31, r21
    4652:	20 f0       	brcs	.+8      	; 0x465c <__udivmodsi4_ep>
    4654:	a2 1b       	sub	r26, r18
    4656:	b3 0b       	sbc	r27, r19
    4658:	e4 0b       	sbc	r30, r20
    465a:	f5 0b       	sbc	r31, r21

0000465c <__udivmodsi4_ep>:
    465c:	66 1f       	adc	r22, r22
    465e:	77 1f       	adc	r23, r23
    4660:	88 1f       	adc	r24, r24
    4662:	99 1f       	adc	r25, r25
    4664:	1a 94       	dec	r1
    4666:	69 f7       	brne	.-38     	; 0x4642 <__udivmodsi4_loop>
    4668:	60 95       	com	r22
    466a:	70 95       	com	r23
    466c:	80 95       	com	r24
    466e:	90 95       	com	r25
    4670:	9b 01       	movw	r18, r22
    4672:	ac 01       	movw	r20, r24
    4674:	bd 01       	movw	r22, r26
    4676:	cf 01       	movw	r24, r30
    4678:	08 95       	ret

0000467a <__divmodsi4>:
    467a:	05 2e       	mov	r0, r21
    467c:	97 fb       	bst	r25, 7
    467e:	16 f4       	brtc	.+4      	; 0x4684 <__divmodsi4+0xa>
    4680:	00 94       	com	r0
    4682:	0f d0       	rcall	.+30     	; 0x46a2 <__negsi2>
    4684:	57 fd       	sbrc	r21, 7
    4686:	05 d0       	rcall	.+10     	; 0x4692 <__divmodsi4_neg2>
    4688:	d6 df       	rcall	.-84     	; 0x4636 <__udivmodsi4>
    468a:	07 fc       	sbrc	r0, 7
    468c:	02 d0       	rcall	.+4      	; 0x4692 <__divmodsi4_neg2>
    468e:	46 f4       	brtc	.+16     	; 0x46a0 <__divmodsi4_exit>
    4690:	08 c0       	rjmp	.+16     	; 0x46a2 <__negsi2>

00004692 <__divmodsi4_neg2>:
    4692:	50 95       	com	r21
    4694:	40 95       	com	r20
    4696:	30 95       	com	r19
    4698:	21 95       	neg	r18
    469a:	3f 4f       	sbci	r19, 0xFF	; 255
    469c:	4f 4f       	sbci	r20, 0xFF	; 255
    469e:	5f 4f       	sbci	r21, 0xFF	; 255

000046a0 <__divmodsi4_exit>:
    46a0:	08 95       	ret

000046a2 <__negsi2>:
    46a2:	90 95       	com	r25
    46a4:	80 95       	com	r24
    46a6:	70 95       	com	r23
    46a8:	61 95       	neg	r22
    46aa:	7f 4f       	sbci	r23, 0xFF	; 255
    46ac:	8f 4f       	sbci	r24, 0xFF	; 255
    46ae:	9f 4f       	sbci	r25, 0xFF	; 255
    46b0:	08 95       	ret

000046b2 <__tablejump2__>:
    46b2:	ee 0f       	add	r30, r30
    46b4:	ff 1f       	adc	r31, r31
    46b6:	88 1f       	adc	r24, r24
    46b8:	8b bf       	out	0x3b, r24	; 59
    46ba:	07 90       	elpm	r0, Z+
    46bc:	f6 91       	elpm	r31, Z
    46be:	e0 2d       	mov	r30, r0
    46c0:	19 94       	eijmp

000046c2 <__muluhisi3>:
    46c2:	09 d0       	rcall	.+18     	; 0x46d6 <__umulhisi3>
    46c4:	a5 9f       	mul	r26, r21
    46c6:	90 0d       	add	r25, r0
    46c8:	b4 9f       	mul	r27, r20
    46ca:	90 0d       	add	r25, r0
    46cc:	a4 9f       	mul	r26, r20
    46ce:	80 0d       	add	r24, r0
    46d0:	91 1d       	adc	r25, r1
    46d2:	11 24       	eor	r1, r1
    46d4:	08 95       	ret

000046d6 <__umulhisi3>:
    46d6:	a2 9f       	mul	r26, r18
    46d8:	b0 01       	movw	r22, r0
    46da:	b3 9f       	mul	r27, r19
    46dc:	c0 01       	movw	r24, r0
    46de:	a3 9f       	mul	r26, r19
    46e0:	70 0d       	add	r23, r0
    46e2:	81 1d       	adc	r24, r1
    46e4:	11 24       	eor	r1, r1
    46e6:	91 1d       	adc	r25, r1
    46e8:	b2 9f       	mul	r27, r18
    46ea:	70 0d       	add	r23, r0
    46ec:	81 1d       	adc	r24, r1
    46ee:	11 24       	eor	r1, r1
    46f0:	91 1d       	adc	r25, r1
    46f2:	08 95       	ret

000046f4 <_exit>:
    46f4:	f8 94       	cli

000046f6 <__stop_program>:
    46f6:	ff cf       	rjmp	.-2      	; 0x46f6 <__stop_program>
